ARM GAS  /var/folders/kw/h2sg8jtn02b91cpsjc1nlpg80000gn/T//ccz3jKAs.s 			page 1


   1              		.cpu cortex-m7
   2              		.arch armv7e-m
   3              		.fpu fpv5-d16
   4              		.eabi_attribute 28, 1
   5              		.eabi_attribute 20, 1
   6              		.eabi_attribute 21, 1
   7              		.eabi_attribute 23, 3
   8              		.eabi_attribute 24, 1
   9              		.eabi_attribute 25, 1
  10              		.eabi_attribute 26, 1
  11              		.eabi_attribute 30, 2
  12              		.eabi_attribute 34, 1
  13              		.eabi_attribute 18, 4
  14              		.file	"main.cpp"
  15              		.text
  16              	.Ltext0:
  17              		.cfi_sections	.debug_frame
  18              		.section	.text._ZN5daisy9DaisySeedD2Ev,"axG",%progbits,_ZN5daisy9DaisySeedD5Ev,comdat
  19              		.align	1
  20              		.p2align 2,,3
  21              		.weak	_ZN5daisy9DaisySeedD2Ev
  22              		.syntax unified
  23              		.thumb
  24              		.thumb_func
  26              	_ZN5daisy9DaisySeedD2Ev:
  27              	.LVL0:
  28              	.LFB2556:
  29              		.file 1 "../../libDaisy/src/daisy_seed.h"
   1:../../libDaisy/src/daisy_seed.h **** #pragma once
   2:../../libDaisy/src/daisy_seed.h **** #ifndef DSY_SEED_H
   3:../../libDaisy/src/daisy_seed.h **** #define DSY_SEED_H
   4:../../libDaisy/src/daisy_seed.h **** 
   5:../../libDaisy/src/daisy_seed.h **** #include "daisy.h"
   6:../../libDaisy/src/daisy_seed.h **** 
   7:../../libDaisy/src/daisy_seed.h **** //Uncomment this out if you're still using the rev2 hardware
   8:../../libDaisy/src/daisy_seed.h **** //#define SEED_REV2
   9:../../libDaisy/src/daisy_seed.h **** 
  10:../../libDaisy/src/daisy_seed.h **** namespace daisy
  11:../../libDaisy/src/daisy_seed.h **** {
  12:../../libDaisy/src/daisy_seed.h **** /**
  13:../../libDaisy/src/daisy_seed.h ****    @brief This is the higher-level interface for the Daisy board. \n 
  14:../../libDaisy/src/daisy_seed.h ****     All basic peripheral configuration/initialization is setup here. \n
  15:../../libDaisy/src/daisy_seed.h **** 
  16:../../libDaisy/src/daisy_seed.h ****    @ingroup boards
  17:../../libDaisy/src/daisy_seed.h **** */
  18:../../libDaisy/src/daisy_seed.h **** class DaisySeed
  19:../../libDaisy/src/daisy_seed.h **** {
  20:../../libDaisy/src/daisy_seed.h ****   public:
  21:../../libDaisy/src/daisy_seed.h ****     DaisySeed() {}
  22:../../libDaisy/src/daisy_seed.h ****     ~DaisySeed() {}
  30              		.loc 1 22 5 view -0
  31              		.cfi_startproc
  32              		@ args = 0, pretend = 0, frame = 0
  33              		@ frame_needed = 0, uses_anonymous_args = 0
  34              		@ link register save eliminated.
  35              	.LBB298:
  36              	.LBI298:
ARM GAS  /var/folders/kw/h2sg8jtn02b91cpsjc1nlpg80000gn/T//ccz3jKAs.s 			page 2


  37              		.file 2 "../../libDaisy/src/sys/system.h"
   1:../../libDaisy/src/sys/system.h **** #ifndef DSY_SYSTEM_H
   2:../../libDaisy/src/sys/system.h **** #define DSY_SYSTEM_H
   3:../../libDaisy/src/sys/system.h **** 
   4:../../libDaisy/src/sys/system.h **** #ifndef UNIT_TEST // for unit tests, a dummy implementation is provided below
   5:../../libDaisy/src/sys/system.h **** 
   6:../../libDaisy/src/sys/system.h **** #include <cstdint>
   7:../../libDaisy/src/sys/system.h **** #include "per/tim.h"
   8:../../libDaisy/src/sys/system.h **** 
   9:../../libDaisy/src/sys/system.h **** namespace daisy
  10:../../libDaisy/src/sys/system.h **** {
  11:../../libDaisy/src/sys/system.h **** /** A handle for interacting with the Core System.
  12:../../libDaisy/src/sys/system.h ****  ** This includes the Clock tree, MPU, global DMA initialization,
  13:../../libDaisy/src/sys/system.h ****  ** cache handling, and any other necessary global initiailzation
  14:../../libDaisy/src/sys/system.h ****  **
  15:../../libDaisy/src/sys/system.h ****  ** @author shensley
  16:../../libDaisy/src/sys/system.h ****  ** @ingroup system
  17:../../libDaisy/src/sys/system.h ****  */
  18:../../libDaisy/src/sys/system.h **** class System
  19:../../libDaisy/src/sys/system.h **** {
  20:../../libDaisy/src/sys/system.h ****   public:
  21:../../libDaisy/src/sys/system.h ****     /** Contains settings for initializing the System */
  22:../../libDaisy/src/sys/system.h ****     struct Config
  23:../../libDaisy/src/sys/system.h ****     {
  24:../../libDaisy/src/sys/system.h ****         /** Specifies the system clock frequency that feeds APB/AHB clocks, etc. */
  25:../../libDaisy/src/sys/system.h ****         enum class SysClkFreq
  26:../../libDaisy/src/sys/system.h ****         {
  27:../../libDaisy/src/sys/system.h ****             FREQ_400MHZ,
  28:../../libDaisy/src/sys/system.h ****             FREQ_480MHZ,
  29:../../libDaisy/src/sys/system.h ****         };
  30:../../libDaisy/src/sys/system.h **** 
  31:../../libDaisy/src/sys/system.h ****         /** Method to call on the struct to set to defaults
  32:../../libDaisy/src/sys/system.h ****          ** CPU Freq set to 400MHz
  33:../../libDaisy/src/sys/system.h ****          ** Cache Enabled
  34:../../libDaisy/src/sys/system.h ****          ** */
  35:../../libDaisy/src/sys/system.h ****         void Defaults()
  36:../../libDaisy/src/sys/system.h ****         {
  37:../../libDaisy/src/sys/system.h ****             cpu_freq    = SysClkFreq::FREQ_400MHZ;
  38:../../libDaisy/src/sys/system.h ****             use_dcache  = true;
  39:../../libDaisy/src/sys/system.h ****             use_icache  = true;
  40:../../libDaisy/src/sys/system.h ****             skip_clocks = false;
  41:../../libDaisy/src/sys/system.h ****         }
  42:../../libDaisy/src/sys/system.h **** 
  43:../../libDaisy/src/sys/system.h ****         /** Method to call on the struct to set to boost mode:
  44:../../libDaisy/src/sys/system.h ****          ** CPU Freq set to 480MHz
  45:../../libDaisy/src/sys/system.h ****          ** Cache Enabled
  46:../../libDaisy/src/sys/system.h ****          ** */
  47:../../libDaisy/src/sys/system.h ****         void Boost()
  48:../../libDaisy/src/sys/system.h ****         {
  49:../../libDaisy/src/sys/system.h ****             cpu_freq    = SysClkFreq::FREQ_480MHZ;
  50:../../libDaisy/src/sys/system.h ****             use_dcache  = true;
  51:../../libDaisy/src/sys/system.h ****             use_icache  = true;
  52:../../libDaisy/src/sys/system.h ****             skip_clocks = false;
  53:../../libDaisy/src/sys/system.h ****         }
  54:../../libDaisy/src/sys/system.h **** 
  55:../../libDaisy/src/sys/system.h ****         SysClkFreq cpu_freq;
  56:../../libDaisy/src/sys/system.h ****         bool       use_dcache;
ARM GAS  /var/folders/kw/h2sg8jtn02b91cpsjc1nlpg80000gn/T//ccz3jKAs.s 			page 3


  57:../../libDaisy/src/sys/system.h ****         bool       use_icache;
  58:../../libDaisy/src/sys/system.h ****         bool       skip_clocks;
  59:../../libDaisy/src/sys/system.h ****     };
  60:../../libDaisy/src/sys/system.h **** 
  61:../../libDaisy/src/sys/system.h ****     /** Describes the different regions of memory available to the Daisy */
  62:../../libDaisy/src/sys/system.h ****     enum MemoryRegion
  63:../../libDaisy/src/sys/system.h ****     {
  64:../../libDaisy/src/sys/system.h ****         INTERNAL_FLASH = 0,
  65:../../libDaisy/src/sys/system.h ****         ITCMRAM,
  66:../../libDaisy/src/sys/system.h ****         DTCMRAM,
  67:../../libDaisy/src/sys/system.h ****         SRAM_D1,
  68:../../libDaisy/src/sys/system.h ****         SRAM_D2,
  69:../../libDaisy/src/sys/system.h ****         SRAM_D3,
  70:../../libDaisy/src/sys/system.h ****         SDRAM,
  71:../../libDaisy/src/sys/system.h ****         QSPI,
  72:../../libDaisy/src/sys/system.h ****         INVALID_ADDRESS,
  73:../../libDaisy/src/sys/system.h ****     };
  74:../../libDaisy/src/sys/system.h **** 
  75:../../libDaisy/src/sys/system.h ****     /** Bootloader struct for controlling bootloading parameters */
  76:../../libDaisy/src/sys/system.h ****     struct BootInfo
  77:../../libDaisy/src/sys/system.h ****     {
  78:../../libDaisy/src/sys/system.h ****         enum class Type : uint32_t
  79:../../libDaisy/src/sys/system.h ****         {
  80:../../libDaisy/src/sys/system.h ****             INVALID      = 0x00000000,
  81:../../libDaisy/src/sys/system.h ****             JUMP         = 0xDEADBEEF,
  82:../../libDaisy/src/sys/system.h ****             SKIP_TIMEOUT = 0x5AFEB007,
  83:../../libDaisy/src/sys/system.h ****             INF_TIMEOUT  = 0xB0074EFA,
  84:../../libDaisy/src/sys/system.h ****         } status;
  85:../../libDaisy/src/sys/system.h ****         uint32_t data;
  86:../../libDaisy/src/sys/system.h ****         enum class Version : uint32_t
  87:../../libDaisy/src/sys/system.h ****         {
  88:../../libDaisy/src/sys/system.h ****             LT_v6_0 = 0, // Less than v6.0
  89:../../libDaisy/src/sys/system.h ****             NONE,        // No bootloader present
  90:../../libDaisy/src/sys/system.h ****             v6_0,        // v6.0
  91:../../libDaisy/src/sys/system.h ****             v6_1,        // v6.1 or greater
  92:../../libDaisy/src/sys/system.h ****             LAST
  93:../../libDaisy/src/sys/system.h ****         } version;
  94:../../libDaisy/src/sys/system.h ****     };
  95:../../libDaisy/src/sys/system.h **** 
  96:../../libDaisy/src/sys/system.h ****     System() {}
  97:../../libDaisy/src/sys/system.h ****     ~System() {}
  38              		.loc 2 97 5 view .LVU1
  39              		.loc 2 97 5 is_stmt 0 view .LVU2
  40              	.LBE298:
  41              	.LBB299:
  42              	.LBI299:
  43              		.file 3 "../../libDaisy/src/hid/usb.h"
   1:../../libDaisy/src/hid/usb.h **** #pragma once
   2:../../libDaisy/src/hid/usb.h **** #ifndef DSY_HID_USB_H
   3:../../libDaisy/src/hid/usb.h **** #define DSY_HID_USB_H
   4:../../libDaisy/src/hid/usb.h **** #include <stdint.h>
   5:../../libDaisy/src/hid/usb.h **** #include <stdlib.h>
   6:../../libDaisy/src/hid/usb.h **** 
   7:../../libDaisy/src/hid/usb.h **** namespace daisy
   8:../../libDaisy/src/hid/usb.h **** /** @addtogroup human_interface
   9:../../libDaisy/src/hid/usb.h ****     @{
  10:../../libDaisy/src/hid/usb.h **** */
ARM GAS  /var/folders/kw/h2sg8jtn02b91cpsjc1nlpg80000gn/T//ccz3jKAs.s 			page 4


  11:../../libDaisy/src/hid/usb.h **** 
  12:../../libDaisy/src/hid/usb.h **** {
  13:../../libDaisy/src/hid/usb.h **** /** 
  14:../../libDaisy/src/hid/usb.h ****     @brief Interface for initializing and using the USB Peripherals on the daisy
  15:../../libDaisy/src/hid/usb.h ****     @author Stephen Hensley
  16:../../libDaisy/src/hid/usb.h ****     @date December 2019
  17:../../libDaisy/src/hid/usb.h **** */
  18:../../libDaisy/src/hid/usb.h **** class UsbHandle
  19:../../libDaisy/src/hid/usb.h **** {
  20:../../libDaisy/src/hid/usb.h ****   public:
  21:../../libDaisy/src/hid/usb.h ****     /** Return values for USBHandle Functions */
  22:../../libDaisy/src/hid/usb.h ****     enum class Result
  23:../../libDaisy/src/hid/usb.h ****     {
  24:../../libDaisy/src/hid/usb.h ****         OK,
  25:../../libDaisy/src/hid/usb.h ****         ERR,
  26:../../libDaisy/src/hid/usb.h ****     };
  27:../../libDaisy/src/hid/usb.h **** 
  28:../../libDaisy/src/hid/usb.h ****     /** Specified which of the two USB Peripherals to initialize. */
  29:../../libDaisy/src/hid/usb.h ****     enum UsbPeriph
  30:../../libDaisy/src/hid/usb.h ****     {
  31:../../libDaisy/src/hid/usb.h ****         FS_INTERNAL, /**< Internal pin */
  32:../../libDaisy/src/hid/usb.h ****         FS_EXTERNAL, /**< FS External D+ pin is Pin 38 (GPIO32). FS External D- pin is Pin 37 (GPIO
  33:../../libDaisy/src/hid/usb.h ****         FS_BOTH,     /**< Both */
  34:../../libDaisy/src/hid/usb.h ****     };
  35:../../libDaisy/src/hid/usb.h **** 
  36:../../libDaisy/src/hid/usb.h **** 
  37:../../libDaisy/src/hid/usb.h ****     /** Function called upon reception of a buffer */
  38:../../libDaisy/src/hid/usb.h ****     typedef void (*ReceiveCallback)(uint8_t* buff, uint32_t* len);
  39:../../libDaisy/src/hid/usb.h **** 
  40:../../libDaisy/src/hid/usb.h ****     UsbHandle() {}
  41:../../libDaisy/src/hid/usb.h **** 
  42:../../libDaisy/src/hid/usb.h ****     ~UsbHandle() {}
  44              		.loc 3 42 5 is_stmt 1 view .LVU3
  45              		.loc 3 42 5 is_stmt 0 view .LVU4
  46              	.LBE299:
  47              	.LBB300:
  48              	.LBI300:
  49              		.file 4 "../../libDaisy/src/per/adc.h"
   1:../../libDaisy/src/per/adc.h **** #pragma once
   2:../../libDaisy/src/per/adc.h **** #ifndef DSY_ADC_H
   3:../../libDaisy/src/per/adc.h **** #define DSY_ADC_H /**< Macro */
   4:../../libDaisy/src/per/adc.h **** #include <stdint.h>
   5:../../libDaisy/src/per/adc.h **** #include <stdlib.h>
   6:../../libDaisy/src/per/adc.h **** #include "daisy_core.h"
   7:../../libDaisy/src/per/adc.h **** #include "per/gpio.h"
   8:../../libDaisy/src/per/adc.h **** 
   9:../../libDaisy/src/per/adc.h **** #define DSY_ADC_MAX_CHANNELS 16 /**< Maximum number of ADC channels */
  10:../../libDaisy/src/per/adc.h **** 
  11:../../libDaisy/src/per/adc.h **** namespace daisy
  12:../../libDaisy/src/per/adc.h **** {
  13:../../libDaisy/src/per/adc.h **** /** @addtogroup per_analog
  14:../../libDaisy/src/per/adc.h ****     @{
  15:../../libDaisy/src/per/adc.h **** */
  16:../../libDaisy/src/per/adc.h **** 
  17:../../libDaisy/src/per/adc.h **** /* While there may not be many configuration options here,
  18:../../libDaisy/src/per/adc.h **** using a struct like this allows us to add more configuration
  19:../../libDaisy/src/per/adc.h **** later without breaking existing functionality.
ARM GAS  /var/folders/kw/h2sg8jtn02b91cpsjc1nlpg80000gn/T//ccz3jKAs.s 			page 5


  20:../../libDaisy/src/per/adc.h **** */
  21:../../libDaisy/src/per/adc.h **** 
  22:../../libDaisy/src/per/adc.h **** /** @brief   Configuration Structure for an ADC Channel 
  23:../../libDaisy/src/per/adc.h ****  *  @details This can be used to configure a a single input, 
  24:../../libDaisy/src/per/adc.h ****  *           or a multiplexed input, allowing up to 8 inputs on 
  25:../../libDaisy/src/per/adc.h ****  *           one channel.
  26:../../libDaisy/src/per/adc.h ****  *  @note    Sharing data lines to multiple muxes _is_ possible, but
  27:../../libDaisy/src/per/adc.h ****  *           each channel sharing data lines must be set to the maximum
  28:../../libDaisy/src/per/adc.h ****  *           number of channels, even if some multiplexers have fewer
  29:../../libDaisy/src/per/adc.h ****  *           inputs connected.
  30:../../libDaisy/src/per/adc.h **** */
  31:../../libDaisy/src/per/adc.h **** struct AdcChannelConfig
  32:../../libDaisy/src/per/adc.h **** {
  33:../../libDaisy/src/per/adc.h ****     /** Which pin to use for multiplexing */
  34:../../libDaisy/src/per/adc.h ****     enum MuxPin
  35:../../libDaisy/src/per/adc.h ****     {
  36:../../libDaisy/src/per/adc.h ****         MUX_SEL_0,    /**< & */
  37:../../libDaisy/src/per/adc.h ****         MUX_SEL_1,    /**< & */
  38:../../libDaisy/src/per/adc.h ****         MUX_SEL_2,    /**< & */
  39:../../libDaisy/src/per/adc.h ****         MUX_SEL_LAST, /**< & */
  40:../../libDaisy/src/per/adc.h ****     };
  41:../../libDaisy/src/per/adc.h **** 
  42:../../libDaisy/src/per/adc.h ****     /** \brief per channel conversion speed added to fixed time based on bitdepth, etc. */
  43:../../libDaisy/src/per/adc.h ****     enum ConversionSpeed
  44:../../libDaisy/src/per/adc.h ****     {
  45:../../libDaisy/src/per/adc.h ****         SPEED_1CYCLES_5,
  46:../../libDaisy/src/per/adc.h ****         SPEED_2CYCLES_5,
  47:../../libDaisy/src/per/adc.h ****         SPEED_8CYCLES_5,
  48:../../libDaisy/src/per/adc.h ****         SPEED_16CYCLES_5,
  49:../../libDaisy/src/per/adc.h ****         SPEED_32CYCLES_5,
  50:../../libDaisy/src/per/adc.h ****         SPEED_64CYCLES_5,
  51:../../libDaisy/src/per/adc.h ****         SPEED_387CYCLES_5,
  52:../../libDaisy/src/per/adc.h ****         SPEED_810CYCLES_5,
  53:../../libDaisy/src/per/adc.h ****     };
  54:../../libDaisy/src/per/adc.h **** 
  55:../../libDaisy/src/per/adc.h ****     /** Initializes a single ADC pin as an ADC. 
  56:../../libDaisy/src/per/adc.h ****     \param pin Pin to init.
  57:../../libDaisy/src/per/adc.h ****     \param speed conversion speed for this pin defaults to 8.5 cycles
  58:../../libDaisy/src/per/adc.h ****      */
  59:../../libDaisy/src/per/adc.h ****     void InitSingle(dsy_gpio_pin pin, ConversionSpeed speed = SPEED_8CYCLES_5);
  60:../../libDaisy/src/per/adc.h **** 
  61:../../libDaisy/src/per/adc.h ****     /** 
  62:../../libDaisy/src/per/adc.h ****     Initializes a single ADC pin as a Multiplexed ADC.
  63:../../libDaisy/src/per/adc.h ****     Requires a CD405X Multiplexer connected to the pin.
  64:../../libDaisy/src/per/adc.h ****     You only need to supply the mux pins that are required,
  65:../../libDaisy/src/per/adc.h ****     e.g. a 4052 mux would only require mux_0 and mux_1.
  66:../../libDaisy/src/per/adc.h ****     Internal Callbacks handle the pin addressing.
  67:../../libDaisy/src/per/adc.h ****     \param adc_pin &
  68:../../libDaisy/src/per/adc.h ****     \param mux_channels must be 1-8
  69:../../libDaisy/src/per/adc.h ****     \param mux_0 First mux pin
  70:../../libDaisy/src/per/adc.h ****     \param mux_1 Second mux pin
  71:../../libDaisy/src/per/adc.h ****     \param mux_2 Third mux pin
  72:../../libDaisy/src/per/adc.h ****     \param speed conversion speed for this pin defaults to 8.5 cycles
  73:../../libDaisy/src/per/adc.h ****     */
  74:../../libDaisy/src/per/adc.h ****     void InitMux(dsy_gpio_pin    adc_pin,
  75:../../libDaisy/src/per/adc.h ****                  size_t          mux_channels,
  76:../../libDaisy/src/per/adc.h ****                  dsy_gpio_pin    mux_0,
ARM GAS  /var/folders/kw/h2sg8jtn02b91cpsjc1nlpg80000gn/T//ccz3jKAs.s 			page 6


  77:../../libDaisy/src/per/adc.h ****                  dsy_gpio_pin    mux_1 = {DSY_GPIOX, 0},
  78:../../libDaisy/src/per/adc.h ****                  dsy_gpio_pin    mux_2 = {DSY_GPIOX, 0},
  79:../../libDaisy/src/per/adc.h ****                  ConversionSpeed speed = SPEED_8CYCLES_5);
  80:../../libDaisy/src/per/adc.h **** 
  81:../../libDaisy/src/per/adc.h ****     dsy_gpio        pin_;                   /**< & */
  82:../../libDaisy/src/per/adc.h ****     dsy_gpio        mux_pin_[MUX_SEL_LAST]; /**< & */
  83:../../libDaisy/src/per/adc.h ****     uint8_t         mux_channels_;          /**< & */
  84:../../libDaisy/src/per/adc.h ****     ConversionSpeed speed_;
  85:../../libDaisy/src/per/adc.h **** };
  86:../../libDaisy/src/per/adc.h **** 
  87:../../libDaisy/src/per/adc.h **** /**
  88:../../libDaisy/src/per/adc.h ****    @brief Handler for analog to digital conversion
  89:../../libDaisy/src/per/adc.h **** */
  90:../../libDaisy/src/per/adc.h **** class AdcHandle
  91:../../libDaisy/src/per/adc.h **** {
  92:../../libDaisy/src/per/adc.h ****   public:
  93:../../libDaisy/src/per/adc.h ****     /** Supported oversampling amounts */
  94:../../libDaisy/src/per/adc.h ****     enum OverSampling
  95:../../libDaisy/src/per/adc.h ****     {
  96:../../libDaisy/src/per/adc.h ****         OVS_NONE, /**< & */
  97:../../libDaisy/src/per/adc.h ****         OVS_4,    /**< & */
  98:../../libDaisy/src/per/adc.h ****         OVS_8,    /**< & */
  99:../../libDaisy/src/per/adc.h ****         OVS_16,   /**< & */
 100:../../libDaisy/src/per/adc.h ****         OVS_32,   /**< & */
 101:../../libDaisy/src/per/adc.h ****         OVS_64,   /**< & */
 102:../../libDaisy/src/per/adc.h ****         OVS_128,  /**< & */
 103:../../libDaisy/src/per/adc.h ****         OVS_256,  /**< & */
 104:../../libDaisy/src/per/adc.h ****         OVS_512,  /**< & */
 105:../../libDaisy/src/per/adc.h ****         OVS_1024, /**< & */
 106:../../libDaisy/src/per/adc.h ****         OVS_LAST, /**< & */
 107:../../libDaisy/src/per/adc.h ****     };
 108:../../libDaisy/src/per/adc.h **** 
 109:../../libDaisy/src/per/adc.h ****     AdcHandle() {}
 110:../../libDaisy/src/per/adc.h ****     ~AdcHandle() {}
  50              		.loc 4 110 5 is_stmt 1 view .LVU5
  51              		.loc 4 110 5 is_stmt 0 view .LVU6
  52              	.LBE300:
  53              	.LBB301:
  54              	.LBI301:
  55              		.file 5 "../../libDaisy/src/hid/audio.h"
   1:../../libDaisy/src/hid/audio.h **** #ifndef DSY_AUDIO_H
   2:../../libDaisy/src/hid/audio.h **** #define DSY_AUDIO_H /**< & */
   3:../../libDaisy/src/hid/audio.h **** 
   4:../../libDaisy/src/hid/audio.h **** #include "per/sai.h"
   5:../../libDaisy/src/hid/audio.h **** 
   6:../../libDaisy/src/hid/audio.h **** namespace daisy
   7:../../libDaisy/src/hid/audio.h **** {
   8:../../libDaisy/src/hid/audio.h **** /** @brief Audio Engine Handle
   9:../../libDaisy/src/hid/audio.h ****  *  @ingroup audio 
  10:../../libDaisy/src/hid/audio.h ****  *  @details This class allows for higher level access to an audio engine.
  11:../../libDaisy/src/hid/audio.h ****  *           If you're using a SOM like the DaisySeed or DaisyPatchSM (or any 
  12:../../libDaisy/src/hid/audio.h ****  *            board that includes one of those objects) then the intialization
  13:../../libDaisy/src/hid/audio.h ****  *            is already taken  care of.
  14:../../libDaisy/src/hid/audio.h ****  *           If you're setting up your own custom hardware, or need to make changes
  15:../../libDaisy/src/hid/audio.h ****  *           you will have to take the following steps:
  16:../../libDaisy/src/hid/audio.h ****  *             1. Create and Initialize an SaiHandle or two depending on your requirements
  17:../../libDaisy/src/hid/audio.h ****  *             2. Initialize the Audio Handle with the desired settings and the Initialized SaiHand
ARM GAS  /var/folders/kw/h2sg8jtn02b91cpsjc1nlpg80000gn/T//ccz3jKAs.s 			page 7


  18:../../libDaisy/src/hid/audio.h ****  *             3. If the connected codec requires special configuration or initialization, do so
  19:../../libDaisy/src/hid/audio.h ****  *             4. Write a callback method using either the AudioCallback or the InterleavingAudioCa
  20:../../libDaisy/src/hid/audio.h ****  *             5. Start the Audio using one of the StartAudio function
  21:../../libDaisy/src/hid/audio.h ****  */
  22:../../libDaisy/src/hid/audio.h **** class AudioHandle
  23:../../libDaisy/src/hid/audio.h **** {
  24:../../libDaisy/src/hid/audio.h ****   public:
  25:../../libDaisy/src/hid/audio.h ****     /** Manually configurable details about the Audio Engine */
  26:../../libDaisy/src/hid/audio.h ****     /** TODO: Figure out how to get samplerate in here. */
  27:../../libDaisy/src/hid/audio.h ****     struct Config
  28:../../libDaisy/src/hid/audio.h ****     {
  29:../../libDaisy/src/hid/audio.h ****         /** number of samples to process per callback */
  30:../../libDaisy/src/hid/audio.h ****         size_t blocksize;
  31:../../libDaisy/src/hid/audio.h **** 
  32:../../libDaisy/src/hid/audio.h ****         /**< Sample rate of audio */
  33:../../libDaisy/src/hid/audio.h ****         SaiHandle::Config::SampleRate samplerate;
  34:../../libDaisy/src/hid/audio.h **** 
  35:../../libDaisy/src/hid/audio.h ****         /** factor for adjustment before and after callback for hardware that may have extra headro
  36:../../libDaisy/src/hid/audio.h ****         float postgain;
  37:../../libDaisy/src/hid/audio.h **** 
  38:../../libDaisy/src/hid/audio.h ****         /** factor for additional one-sided compensation to audio path for hardware that may
  39:../../libDaisy/src/hid/audio.h ****          *  have unequal input/output ranges
  40:../../libDaisy/src/hid/audio.h ****          */
  41:../../libDaisy/src/hid/audio.h ****         float output_compensation;
  42:../../libDaisy/src/hid/audio.h **** 
  43:../../libDaisy/src/hid/audio.h ****         /** Sets default values for config struct */
  44:../../libDaisy/src/hid/audio.h ****         Config()
  45:../../libDaisy/src/hid/audio.h ****         : blocksize(48),
  46:../../libDaisy/src/hid/audio.h ****           samplerate(SaiHandle::Config::SampleRate::SAI_48KHZ),
  47:../../libDaisy/src/hid/audio.h ****           postgain(1.f),
  48:../../libDaisy/src/hid/audio.h ****           output_compensation(1.f)
  49:../../libDaisy/src/hid/audio.h ****         {
  50:../../libDaisy/src/hid/audio.h ****         }
  51:../../libDaisy/src/hid/audio.h ****     };
  52:../../libDaisy/src/hid/audio.h **** 
  53:../../libDaisy/src/hid/audio.h ****     enum class Result
  54:../../libDaisy/src/hid/audio.h ****     {
  55:../../libDaisy/src/hid/audio.h ****         OK,
  56:../../libDaisy/src/hid/audio.h ****         ERR,
  57:../../libDaisy/src/hid/audio.h ****     };
  58:../../libDaisy/src/hid/audio.h **** 
  59:../../libDaisy/src/hid/audio.h ****     /** Non-Interleaving input buffer
  60:../../libDaisy/src/hid/audio.h ****      * Buffer arranged by float[chn][sample] 
  61:../../libDaisy/src/hid/audio.h ****      * const so that the user can't modify the input
  62:../../libDaisy/src/hid/audio.h ****      */
  63:../../libDaisy/src/hid/audio.h ****     typedef const float* const* InputBuffer;
  64:../../libDaisy/src/hid/audio.h **** 
  65:../../libDaisy/src/hid/audio.h ****     /** Non-Interleaving output buffer
  66:../../libDaisy/src/hid/audio.h ****      * Arranged by float[chn][sample] 
  67:../../libDaisy/src/hid/audio.h ****      */
  68:../../libDaisy/src/hid/audio.h ****     typedef float** OutputBuffer;
  69:../../libDaisy/src/hid/audio.h **** 
  70:../../libDaisy/src/hid/audio.h ****     /** Type for a Non-Interleaving audio callback 
  71:../../libDaisy/src/hid/audio.h ****      * Non-Interleaving audio callbacks in daisy will be of this type
  72:../../libDaisy/src/hid/audio.h ****      */
  73:../../libDaisy/src/hid/audio.h ****     typedef void (*AudioCallback)(InputBuffer  in,
  74:../../libDaisy/src/hid/audio.h ****                                   OutputBuffer out,
ARM GAS  /var/folders/kw/h2sg8jtn02b91cpsjc1nlpg80000gn/T//ccz3jKAs.s 			page 8


  75:../../libDaisy/src/hid/audio.h ****                                   size_t       size);
  76:../../libDaisy/src/hid/audio.h **** 
  77:../../libDaisy/src/hid/audio.h ****     /** Interleaving Input buffer
  78:../../libDaisy/src/hid/audio.h ****      ** audio is prepared as { L0, R0, L1, R1, . . . LN, RN }]
  79:../../libDaisy/src/hid/audio.h ****      ** this is const, as the user shouldn't modify it
  80:../../libDaisy/src/hid/audio.h ****     */
  81:../../libDaisy/src/hid/audio.h ****     typedef const float* InterleavingInputBuffer;
  82:../../libDaisy/src/hid/audio.h **** 
  83:../../libDaisy/src/hid/audio.h ****     /** Interleaving Output buffer 
  84:../../libDaisy/src/hid/audio.h ****      ** audio is prepared as { L0, R0, L1, R1, . . . LN, RN }
  85:../../libDaisy/src/hid/audio.h ****     */
  86:../../libDaisy/src/hid/audio.h ****     typedef float* InterleavingOutputBuffer;
  87:../../libDaisy/src/hid/audio.h **** 
  88:../../libDaisy/src/hid/audio.h ****     /** Interleaving Audio Callback 
  89:../../libDaisy/src/hid/audio.h ****      * Interleaving audio callbacks in daisy must be of this type
  90:../../libDaisy/src/hid/audio.h ****      */
  91:../../libDaisy/src/hid/audio.h ****     typedef void (*InterleavingAudioCallback)(InterleavingInputBuffer  in,
  92:../../libDaisy/src/hid/audio.h ****                                               InterleavingOutputBuffer out,
  93:../../libDaisy/src/hid/audio.h ****                                               size_t                   size);
  94:../../libDaisy/src/hid/audio.h **** 
  95:../../libDaisy/src/hid/audio.h ****     AudioHandle() : pimpl_(nullptr) {}
  96:../../libDaisy/src/hid/audio.h ****     ~AudioHandle() {}
  56              		.loc 5 96 5 is_stmt 1 view .LVU7
  57              		.loc 5 96 5 is_stmt 0 view .LVU8
  58              	.LBE301:
  59              		.loc 1 22 19 view .LVU9
  60 0000 7047     		bx	lr
  61              		.cfi_endproc
  62              	.LFE2556:
  64              		.weak	_ZN5daisy9DaisySeedD1Ev
  65              		.thumb_set _ZN5daisy9DaisySeedD1Ev,_ZN5daisy9DaisySeedD2Ev
  66 0002 00BF     		.section	.text._ZN7VASynthD2Ev,"axG",%progbits,_ZN7VASynthD5Ev,comdat
  67              		.align	1
  68              		.p2align 2,,3
  69              		.weak	_ZN7VASynthD2Ev
  70              		.syntax unified
  71              		.thumb
  72              		.thumb_func
  74              	_ZN7VASynthD2Ev:
  75              	.LVL1:
  76              	.LFB4851:
  77              		.file 6 "vasynth.h"
   1:vasynth.h     **** #pragma once
   2:vasynth.h     **** #ifndef DSY_VAVOICE_H
   3:vasynth.h     **** #define DSY_VAVOICE_H
   4:vasynth.h     **** 
   5:vasynth.h     **** #include "main.h"
   6:vasynth.h     **** 
   7:vasynth.h     **** #include "daisysp.h"
   8:vasynth.h     **** 
   9:vasynth.h     **** 
  10:vasynth.h     **** 
  11:vasynth.h     **** // preset
  12:vasynth.h     **** #define PRESET_MAX 1
  13:vasynth.h     **** 
  14:vasynth.h     **** // waveforms
  15:vasynth.h     **** #define WAVE_TRI 0
ARM GAS  /var/folders/kw/h2sg8jtn02b91cpsjc1nlpg80000gn/T//ccz3jKAs.s 			page 9


  16:vasynth.h     **** #define WAVE_SAW 1
  17:vasynth.h     **** #define WAVE_SQUARE 2
  18:vasynth.h     **** #define WAVE_POLYBLEP_SAW 3 
  19:vasynth.h     **** 
  20:vasynth.h     **** using namespace daisy;
  21:vasynth.h     **** using namespace daisysp;
  22:vasynth.h     **** 
  23:vasynth.h     **** typedef struct
  24:vasynth.h     **** {
  25:vasynth.h     **** 	// config
  26:vasynth.h     **** 	uint8_t waveform;
  27:vasynth.h     **** 	float osc_mix;
  28:vasynth.h     **** 	float detune;
  29:vasynth.h     **** 	float osc_pw;
  30:vasynth.h     **** 
  31:vasynth.h     **** 	uint8_t osc2_waveform;
  32:vasynth.h     **** 	float osc2_detune;
  33:vasynth.h     **** 	float osc2_transpose;
  34:vasynth.h     **** 	float osc2_pw;
  35:vasynth.h     **** 	
  36:vasynth.h     **** 	float eg_a_attack;
  37:vasynth.h     **** 	float eg_a_decay;
  38:vasynth.h     **** 	float eg_a_sustain; // level
  39:vasynth.h     **** 	float eg_a_release;
  40:vasynth.h     **** 	float eg_f_attack;
  41:vasynth.h     **** 	float eg_f_decay;
  42:vasynth.h     **** 	float eg_f_sustain; // level
  43:vasynth.h     **** 	float eg_f_release;
  44:vasynth.h     **** 	
  45:vasynth.h     **** 	uint8_t lfo_waveform;
  46:vasynth.h     **** 	float lfo_freq;
  47:vasynth.h     **** 	float lfo_amp;
  48:vasynth.h     **** 
  49:vasynth.h     **** 	uint8_t pwmlfo_waveform;
  50:vasynth.h     **** 	float pwmlfo_freq;
  51:vasynth.h     **** 	float pwmlfo_amp;
  52:vasynth.h     **** 
  53:vasynth.h     **** 	uint8_t pwm2lfo_waveform;
  54:vasynth.h     **** 	float pwm2lfo_freq;
  55:vasynth.h     **** 	float pwm2lfo_amp;
  56:vasynth.h     **** 	
  57:vasynth.h     **** 	uint8_t vcavcflfo_waveform;
  58:vasynth.h     **** 	float vcavcflfo_freq;
  59:vasynth.h     **** 	float vcavcflfo_amp;
  60:vasynth.h     **** 
  61:vasynth.h     **** 	float vcf_kbd_follow;
  62:vasynth.h     **** 	float env_kbd_follow;
  63:vasynth.h     **** 
  64:vasynth.h     **** 	float filter_res;
  65:vasynth.h     **** 	float filter_cutoff;
  66:vasynth.h     **** 	float eg_f_amount;
  67:vasynth.h     **** 	uint8_t vel_select;
  68:vasynth.h     **** 	uint8_t midi_channel;
  69:vasynth.h     **** } VASynthSetting;
  70:vasynth.h     **** 
  71:vasynth.h     **** class VASynth
  72:vasynth.h     **** {
ARM GAS  /var/folders/kw/h2sg8jtn02b91cpsjc1nlpg80000gn/T//ccz3jKAs.s 			page 10


  73:vasynth.h     **** 	public:
  74:vasynth.h     **** 
  75:vasynth.h     ****     VASynth() {}
  76:vasynth.h     ****     ~VASynth() {}
  78              		.loc 6 76 5 is_stmt 1 view -0
  79              		.cfi_startproc
  80              		@ args = 0, pretend = 0, frame = 0
  81              		@ frame_needed = 0, uses_anonymous_args = 0
  82              		@ link register save eliminated.
  83              	.LBB302:
  84              	.LBI302:
  85              		.file 7 "../../DaisySP/Source/Synthesis/oscillator.h"
   1:../../DaisySP/Source/Synthesis/oscillator.h **** /*
   2:../../DaisySP/Source/Synthesis/oscillator.h **** Copyright (c) 2020 Electrosmith, Corp
   3:../../DaisySP/Source/Synthesis/oscillator.h **** 
   4:../../DaisySP/Source/Synthesis/oscillator.h **** Use of this source code is governed by an MIT-style
   5:../../DaisySP/Source/Synthesis/oscillator.h **** license that can be found in the LICENSE file or at
   6:../../DaisySP/Source/Synthesis/oscillator.h **** https://opensource.org/licenses/MIT.
   7:../../DaisySP/Source/Synthesis/oscillator.h **** */
   8:../../DaisySP/Source/Synthesis/oscillator.h **** 
   9:../../DaisySP/Source/Synthesis/oscillator.h **** #pragma once
  10:../../DaisySP/Source/Synthesis/oscillator.h **** #ifndef DSY_OSCILLATOR_H
  11:../../DaisySP/Source/Synthesis/oscillator.h **** #define DSY_OSCILLATOR_H
  12:../../DaisySP/Source/Synthesis/oscillator.h **** #include <stdint.h>
  13:../../DaisySP/Source/Synthesis/oscillator.h **** #include "Utility/dsp.h"
  14:../../DaisySP/Source/Synthesis/oscillator.h **** #ifdef __cplusplus
  15:../../DaisySP/Source/Synthesis/oscillator.h **** 
  16:../../DaisySP/Source/Synthesis/oscillator.h **** namespace daisysp
  17:../../DaisySP/Source/Synthesis/oscillator.h **** {
  18:../../DaisySP/Source/Synthesis/oscillator.h **** /** Synthesis of several waveforms, including polyBLEP bandlimited waveforms.
  19:../../DaisySP/Source/Synthesis/oscillator.h **** */
  20:../../DaisySP/Source/Synthesis/oscillator.h **** class Oscillator
  21:../../DaisySP/Source/Synthesis/oscillator.h **** {
  22:../../DaisySP/Source/Synthesis/oscillator.h ****   public:
  23:../../DaisySP/Source/Synthesis/oscillator.h ****     Oscillator() {}
  24:../../DaisySP/Source/Synthesis/oscillator.h ****     ~Oscillator() {}
  86              		.loc 7 24 5 view .LVU11
  87              		.loc 7 24 5 is_stmt 0 view .LVU12
  88              	.LBE302:
  89              	.LBB303:
  90              	.LBI303:
  91              		.loc 7 24 5 is_stmt 1 view .LVU13
  92              		.loc 7 24 5 is_stmt 0 view .LVU14
  93              	.LBE303:
  94              	.LBB304:
  95              	.LBI304:
  96              		.loc 7 24 5 is_stmt 1 view .LVU15
  97              		.loc 7 24 5 is_stmt 0 view .LVU16
  98              	.LBE304:
  99              	.LBB305:
 100              	.LBI305:
 101              		.loc 7 24 5 is_stmt 1 view .LVU17
 102              		.loc 7 24 5 is_stmt 0 view .LVU18
 103              	.LBE305:
 104              		.loc 6 76 17 view .LVU19
 105 0000 7047     		bx	lr
 106              		.cfi_endproc
ARM GAS  /var/folders/kw/h2sg8jtn02b91cpsjc1nlpg80000gn/T//ccz3jKAs.s 			page 11


 107              	.LFE4851:
 109              		.weak	_ZN7VASynthD1Ev
 110              		.thumb_set _ZN7VASynthD1Ev,_ZN7VASynthD2Ev
 111 0002 00BF     		.section	.text._ZN5daisy11MidiHandlerINS_16MidiUsbTransportEED2Ev,"axG",%progbits,_ZN5daisy11MidiH
 112              		.align	1
 113              		.p2align 2,,3
 114              		.weak	_ZN5daisy11MidiHandlerINS_16MidiUsbTransportEED2Ev
 115              		.syntax unified
 116              		.thumb
 117              		.thumb_func
 119              	_ZN5daisy11MidiHandlerINS_16MidiUsbTransportEED2Ev:
 120              	.LVL2:
 121              	.LFB5463:
 122              		.file 8 "../../libDaisy/src/hid/midi.h"
   1:../../libDaisy/src/hid/midi.h **** #pragma once
   2:../../libDaisy/src/hid/midi.h **** #ifndef DSY_MIDI_H
   3:../../libDaisy/src/hid/midi.h **** #define DSY_MIDI_H
   4:../../libDaisy/src/hid/midi.h **** 
   5:../../libDaisy/src/hid/midi.h **** #include <stdint.h>
   6:../../libDaisy/src/hid/midi.h **** #include <stdlib.h>
   7:../../libDaisy/src/hid/midi.h **** #include <algorithm>
   8:../../libDaisy/src/hid/midi.h **** #include "per/uart.h"
   9:../../libDaisy/src/hid/midi.h **** #include "util/ringbuffer.h"
  10:../../libDaisy/src/hid/midi.h **** #include "util/FIFO.h"
  11:../../libDaisy/src/hid/midi.h **** #include "hid/midi_parser.h"
  12:../../libDaisy/src/hid/midi.h **** #include "hid/usb_midi.h"
  13:../../libDaisy/src/hid/midi.h **** #include "sys/dma.h"
  14:../../libDaisy/src/hid/midi.h **** #include "sys/system.h"
  15:../../libDaisy/src/hid/midi.h **** 
  16:../../libDaisy/src/hid/midi.h **** namespace daisy
  17:../../libDaisy/src/hid/midi.h **** {
  18:../../libDaisy/src/hid/midi.h **** /** @brief   Transport layer for sending and receiving MIDI data over UART
  19:../../libDaisy/src/hid/midi.h ****  *  @details This is the mode of communication used for TRS and DIN MIDI
  20:../../libDaisy/src/hid/midi.h ****  *           There is an additional 2kB of RAM data used within this class
  21:../../libDaisy/src/hid/midi.h ****  *           for processing bulk data from the UART peripheral
  22:../../libDaisy/src/hid/midi.h ****  *  @ingroup midi
  23:../../libDaisy/src/hid/midi.h **** */
  24:../../libDaisy/src/hid/midi.h **** class MidiUartTransport
  25:../../libDaisy/src/hid/midi.h **** {
  26:../../libDaisy/src/hid/midi.h ****   public:
  27:../../libDaisy/src/hid/midi.h ****     typedef void (*MidiRxParseCallback)(uint8_t* data,
  28:../../libDaisy/src/hid/midi.h ****                                         size_t   size,
  29:../../libDaisy/src/hid/midi.h ****                                         void*    context);
  30:../../libDaisy/src/hid/midi.h **** 
  31:../../libDaisy/src/hid/midi.h ****     MidiUartTransport() {}
  32:../../libDaisy/src/hid/midi.h ****     ~MidiUartTransport() {}
  33:../../libDaisy/src/hid/midi.h **** 
  34:../../libDaisy/src/hid/midi.h ****     /** @brief Configuration structure for UART MIDI */
  35:../../libDaisy/src/hid/midi.h ****     struct Config
  36:../../libDaisy/src/hid/midi.h ****     {
  37:../../libDaisy/src/hid/midi.h ****         UartHandler::Config::Peripheral periph;
  38:../../libDaisy/src/hid/midi.h ****         dsy_gpio_pin                    rx;
  39:../../libDaisy/src/hid/midi.h ****         dsy_gpio_pin                    tx;
  40:../../libDaisy/src/hid/midi.h **** 
  41:../../libDaisy/src/hid/midi.h ****         /** Pointer to buffer for DMA UART rx byte transfer in background.
  42:../../libDaisy/src/hid/midi.h ****          *
  43:../../libDaisy/src/hid/midi.h ****          *  @details By default this uses a shared buffer in DMA_BUFFER_MEM_SECTION,
ARM GAS  /var/folders/kw/h2sg8jtn02b91cpsjc1nlpg80000gn/T//ccz3jKAs.s 			page 12


  44:../../libDaisy/src/hid/midi.h ****          *           which can only be utilized for a single UART peripheral. To
  45:../../libDaisy/src/hid/midi.h ****          *           use MIDI with multiple UART peripherals, you must provide your own
  46:../../libDaisy/src/hid/midi.h ****          *           buffer, allocated to a DMA-capable memory section.
  47:../../libDaisy/src/hid/midi.h ****          */
  48:../../libDaisy/src/hid/midi.h ****         uint8_t* rx_buffer;
  49:../../libDaisy/src/hid/midi.h **** 
  50:../../libDaisy/src/hid/midi.h ****         /** Size in bytes of rx_buffer.
  51:../../libDaisy/src/hid/midi.h ****          *
  52:../../libDaisy/src/hid/midi.h ****          *  @details This size determines the maximum Rx bytes readable by the UART in the backgrou
  53:../../libDaisy/src/hid/midi.h ****          *           By default it's set to the size of the default shared rx_buffer (256 bytes).
  54:../../libDaisy/src/hid/midi.h ****          *           While much smaller sizes can be used, data can get missed if the buffer is too
  55:../../libDaisy/src/hid/midi.h ****          */
  56:../../libDaisy/src/hid/midi.h ****         size_t rx_buffer_size;
  57:../../libDaisy/src/hid/midi.h **** 
  58:../../libDaisy/src/hid/midi.h ****         Config();
  59:../../libDaisy/src/hid/midi.h ****     };
  60:../../libDaisy/src/hid/midi.h **** 
  61:../../libDaisy/src/hid/midi.h ****     /** @brief Initialization of UART using config struct */
  62:../../libDaisy/src/hid/midi.h ****     inline void Init(Config config)
  63:../../libDaisy/src/hid/midi.h ****     {
  64:../../libDaisy/src/hid/midi.h ****         UartHandler::Config uart_config;
  65:../../libDaisy/src/hid/midi.h **** 
  66:../../libDaisy/src/hid/midi.h ****         //defaults
  67:../../libDaisy/src/hid/midi.h ****         uart_config.baudrate   = 31250;
  68:../../libDaisy/src/hid/midi.h ****         uart_config.stopbits   = UartHandler::Config::StopBits::BITS_1;
  69:../../libDaisy/src/hid/midi.h ****         uart_config.parity     = UartHandler::Config::Parity::NONE;
  70:../../libDaisy/src/hid/midi.h ****         uart_config.mode       = UartHandler::Config::Mode::TX_RX;
  71:../../libDaisy/src/hid/midi.h ****         uart_config.wordlength = UartHandler::Config::WordLength::BITS_8;
  72:../../libDaisy/src/hid/midi.h **** 
  73:../../libDaisy/src/hid/midi.h ****         //user settings
  74:../../libDaisy/src/hid/midi.h ****         uart_config.periph        = config.periph;
  75:../../libDaisy/src/hid/midi.h ****         uart_config.pin_config.rx = config.rx;
  76:../../libDaisy/src/hid/midi.h ****         uart_config.pin_config.tx = config.tx;
  77:../../libDaisy/src/hid/midi.h **** 
  78:../../libDaisy/src/hid/midi.h ****         rx_buffer      = config.rx_buffer;
  79:../../libDaisy/src/hid/midi.h ****         rx_buffer_size = config.rx_buffer_size;
  80:../../libDaisy/src/hid/midi.h **** 
  81:../../libDaisy/src/hid/midi.h ****         /** zero the buffer to ensure emptiness regardless of source memory */
  82:../../libDaisy/src/hid/midi.h ****         std::fill(rx_buffer, rx_buffer + rx_buffer_size, 0);
  83:../../libDaisy/src/hid/midi.h **** 
  84:../../libDaisy/src/hid/midi.h ****         uart_.Init(uart_config);
  85:../../libDaisy/src/hid/midi.h ****     }
  86:../../libDaisy/src/hid/midi.h **** 
  87:../../libDaisy/src/hid/midi.h ****     /** @brief Start the UART peripheral in listening mode.
  88:../../libDaisy/src/hid/midi.h ****      *  This will fill an internal data structure in the background */
  89:../../libDaisy/src/hid/midi.h ****     inline void StartRx(MidiRxParseCallback parse_callback, void* context)
  90:../../libDaisy/src/hid/midi.h ****     {
  91:../../libDaisy/src/hid/midi.h ****         parse_context_  = context;
  92:../../libDaisy/src/hid/midi.h ****         parse_callback_ = parse_callback;
  93:../../libDaisy/src/hid/midi.h ****         dsy_dma_clear_cache_for_buffer((uint8_t*)this,
  94:../../libDaisy/src/hid/midi.h ****                                        sizeof(MidiUartTransport));
  95:../../libDaisy/src/hid/midi.h ****         uart_.DmaListenStart(
  96:../../libDaisy/src/hid/midi.h ****             rx_buffer, rx_buffer_size, MidiUartTransport::rxCallback, this);
  97:../../libDaisy/src/hid/midi.h ****     }
  98:../../libDaisy/src/hid/midi.h **** 
  99:../../libDaisy/src/hid/midi.h ****     /** @brief returns whether the UART peripheral is actively listening in the background or not *
 100:../../libDaisy/src/hid/midi.h ****     inline bool RxActive() { return uart_.IsListening(); }
ARM GAS  /var/folders/kw/h2sg8jtn02b91cpsjc1nlpg80000gn/T//ccz3jKAs.s 			page 13


 101:../../libDaisy/src/hid/midi.h **** 
 102:../../libDaisy/src/hid/midi.h ****     /** @brief This is a no-op for UART transport - Rx is via DMA callback with circular buffer */
 103:../../libDaisy/src/hid/midi.h ****     inline void FlushRx() {}
 104:../../libDaisy/src/hid/midi.h **** 
 105:../../libDaisy/src/hid/midi.h ****     /** @brief sends the buffer of bytes out of the UART peripheral */
 106:../../libDaisy/src/hid/midi.h ****     inline void Tx(uint8_t* buff, size_t size) { uart_.PollTx(buff, size); }
 107:../../libDaisy/src/hid/midi.h **** 
 108:../../libDaisy/src/hid/midi.h ****   private:
 109:../../libDaisy/src/hid/midi.h ****     UartHandler         uart_;
 110:../../libDaisy/src/hid/midi.h ****     uint8_t*            rx_buffer;
 111:../../libDaisy/src/hid/midi.h ****     size_t              rx_buffer_size;
 112:../../libDaisy/src/hid/midi.h ****     void*               parse_context_;
 113:../../libDaisy/src/hid/midi.h ****     MidiRxParseCallback parse_callback_;
 114:../../libDaisy/src/hid/midi.h **** 
 115:../../libDaisy/src/hid/midi.h ****     /** Static callback for Uart MIDI that occurs when
 116:../../libDaisy/src/hid/midi.h ****          *  new data is available from the peripheral.
 117:../../libDaisy/src/hid/midi.h ****          *  The new data is transferred from the peripheral to the
 118:../../libDaisy/src/hid/midi.h ****          *  MIDI instance's byte FIFO that feeds the MIDI parser.
 119:../../libDaisy/src/hid/midi.h ****          *
 120:../../libDaisy/src/hid/midi.h ****          *  TODO: Handle UartHandler errors better/at all.
 121:../../libDaisy/src/hid/midi.h ****          *  (If there is a UART error, there's not really any recovery
 122:../../libDaisy/src/hid/midi.h ****          *  option at the moment)
 123:../../libDaisy/src/hid/midi.h ****          */
 124:../../libDaisy/src/hid/midi.h ****     static void rxCallback(uint8_t*            data,
 125:../../libDaisy/src/hid/midi.h ****                            size_t              size,
 126:../../libDaisy/src/hid/midi.h ****                            void*               context,
 127:../../libDaisy/src/hid/midi.h ****                            UartHandler::Result res)
 128:../../libDaisy/src/hid/midi.h ****     {
 129:../../libDaisy/src/hid/midi.h ****         /** Read context as transport type */
 130:../../libDaisy/src/hid/midi.h ****         MidiUartTransport* transport
 131:../../libDaisy/src/hid/midi.h ****             = reinterpret_cast<MidiUartTransport*>(context);
 132:../../libDaisy/src/hid/midi.h ****         if(res == UartHandler::Result::OK)
 133:../../libDaisy/src/hid/midi.h ****         {
 134:../../libDaisy/src/hid/midi.h ****             if(transport->parse_callback_)
 135:../../libDaisy/src/hid/midi.h ****             {
 136:../../libDaisy/src/hid/midi.h ****                 transport->parse_callback_(
 137:../../libDaisy/src/hid/midi.h ****                     data, size, transport->parse_context_);
 138:../../libDaisy/src/hid/midi.h ****             }
 139:../../libDaisy/src/hid/midi.h ****         }
 140:../../libDaisy/src/hid/midi.h ****     }
 141:../../libDaisy/src/hid/midi.h **** };
 142:../../libDaisy/src/hid/midi.h **** 
 143:../../libDaisy/src/hid/midi.h **** /**
 144:../../libDaisy/src/hid/midi.h ****     @brief Simple MIDI Handler \n
 145:../../libDaisy/src/hid/midi.h ****     Parses bytes from an input into valid MidiEvents. \n
 146:../../libDaisy/src/hid/midi.h ****     The MidiEvents fill a FIFO queue that the user can pop messages from.
 147:../../libDaisy/src/hid/midi.h ****     @author shensley
 148:../../libDaisy/src/hid/midi.h ****     @date March 2020
 149:../../libDaisy/src/hid/midi.h ****     @ingroup midi
 150:../../libDaisy/src/hid/midi.h **** */
 151:../../libDaisy/src/hid/midi.h **** template <typename Transport>
 152:../../libDaisy/src/hid/midi.h **** class MidiHandler
 153:../../libDaisy/src/hid/midi.h **** {
 154:../../libDaisy/src/hid/midi.h ****   public:
 155:../../libDaisy/src/hid/midi.h ****     MidiHandler() {}
 156:../../libDaisy/src/hid/midi.h ****     ~MidiHandler() {}
 123              		.loc 8 156 5 is_stmt 1 view -0
ARM GAS  /var/folders/kw/h2sg8jtn02b91cpsjc1nlpg80000gn/T//ccz3jKAs.s 			page 14


 124              		.cfi_startproc
 125              		@ args = 0, pretend = 0, frame = 0
 126              		@ frame_needed = 0, uses_anonymous_args = 0
 127              		@ link register save eliminated.
 128              	.LBB306:
 129              	.LBI306:
 130              		.file 9 "../../libDaisy/src/util/FIFO.h"
   1:../../libDaisy/src/util/FIFO.h **** #pragma once
   2:../../libDaisy/src/util/FIFO.h **** 
   3:../../libDaisy/src/util/FIFO.h **** #include <stdint.h>
   4:../../libDaisy/src/util/FIFO.h **** #include <stddef.h>
   5:../../libDaisy/src/util/FIFO.h **** #include <initializer_list>
   6:../../libDaisy/src/util/FIFO.h **** 
   7:../../libDaisy/src/util/FIFO.h **** namespace daisy
   8:../../libDaisy/src/util/FIFO.h **** {
   9:../../libDaisy/src/util/FIFO.h **** /** Capacity-independent base class for FIFO. Use FIFO instead. */
  10:../../libDaisy/src/util/FIFO.h **** template <typename T>
  11:../../libDaisy/src/util/FIFO.h **** class FIFOBase
  12:../../libDaisy/src/util/FIFO.h **** {
  13:../../libDaisy/src/util/FIFO.h ****   protected:
  14:../../libDaisy/src/util/FIFO.h ****     FIFOBase(T* buffer, size_t bufferSize)
  15:../../libDaisy/src/util/FIFO.h ****     : buffer_(buffer), bufferSize_(bufferSize), bufferIn_(0), bufferOut_(0)
  16:../../libDaisy/src/util/FIFO.h ****     {
  17:../../libDaisy/src/util/FIFO.h ****     }
  18:../../libDaisy/src/util/FIFO.h **** 
  19:../../libDaisy/src/util/FIFO.h ****     FIFOBase(T* buffer, size_t bufferSize, std::initializer_list<T> valuesToAdd)
  20:../../libDaisy/src/util/FIFO.h ****     : buffer_(buffer), bufferSize_(bufferSize), bufferIn_(0), bufferOut_(0)
  21:../../libDaisy/src/util/FIFO.h ****     {
  22:../../libDaisy/src/util/FIFO.h ****         PushBack(valuesToAdd);
  23:../../libDaisy/src/util/FIFO.h ****     }
  24:../../libDaisy/src/util/FIFO.h **** 
  25:../../libDaisy/src/util/FIFO.h ****   public:
  26:../../libDaisy/src/util/FIFO.h ****     /** Copies all elements from another FIFO */
  27:../../libDaisy/src/util/FIFO.h ****     FIFOBase<T>& operator=(const FIFOBase<T>& other)
  28:../../libDaisy/src/util/FIFO.h ****     {
  29:../../libDaisy/src/util/FIFO.h ****         bufferIn_ = bufferOut_ = 0;
  30:../../libDaisy/src/util/FIFO.h ****         if(!other.IsEmpty())
  31:../../libDaisy/src/util/FIFO.h ****         {
  32:../../libDaisy/src/util/FIFO.h ****             int readPtr = other.bufferOut_;
  33:../../libDaisy/src/util/FIFO.h ****             while((readPtr != other.bufferIn_) && (bufferIn_ < bufferSize_))
  34:../../libDaisy/src/util/FIFO.h ****             {
  35:../../libDaisy/src/util/FIFO.h ****                 buffer_[bufferIn_++] = other.buffer_[readPtr++];
  36:../../libDaisy/src/util/FIFO.h ****                 if(readPtr >= other.bufferSize_)
  37:../../libDaisy/src/util/FIFO.h ****                     readPtr -= other.bufferSize_;
  38:../../libDaisy/src/util/FIFO.h ****             }
  39:../../libDaisy/src/util/FIFO.h ****         }
  40:../../libDaisy/src/util/FIFO.h ****         return *this;
  41:../../libDaisy/src/util/FIFO.h ****     }
  42:../../libDaisy/src/util/FIFO.h ****     ~FIFOBase() {}
  43:../../libDaisy/src/util/FIFO.h **** 
  44:../../libDaisy/src/util/FIFO.h ****     /** Removes all elements from the FIFO */
  45:../../libDaisy/src/util/FIFO.h ****     void Clear() { bufferIn_ = bufferOut_ = 0; }
  46:../../libDaisy/src/util/FIFO.h **** 
  47:../../libDaisy/src/util/FIFO.h ****     /** Adds an element to the back of the buffer, returning true on
  48:../../libDaisy/src/util/FIFO.h ****         success */
  49:../../libDaisy/src/util/FIFO.h ****     bool PushBack(const T& elementToAdd)
  50:../../libDaisy/src/util/FIFO.h ****     {
ARM GAS  /var/folders/kw/h2sg8jtn02b91cpsjc1nlpg80000gn/T//ccz3jKAs.s 			page 15


  51:../../libDaisy/src/util/FIFO.h ****         if(!IsFull())
  52:../../libDaisy/src/util/FIFO.h ****         {
  53:../../libDaisy/src/util/FIFO.h ****             buffer_[bufferIn_++] = elementToAdd;
  54:../../libDaisy/src/util/FIFO.h ****             if(bufferIn_ >= bufferSize_)
  55:../../libDaisy/src/util/FIFO.h ****                 bufferIn_ -= bufferSize_;
  56:../../libDaisy/src/util/FIFO.h ****             return true;
  57:../../libDaisy/src/util/FIFO.h ****         }
  58:../../libDaisy/src/util/FIFO.h ****         return false;
  59:../../libDaisy/src/util/FIFO.h ****     }
  60:../../libDaisy/src/util/FIFO.h **** 
  61:../../libDaisy/src/util/FIFO.h ****     /** Adds multiple elements and returns the number of elements that were added */
  62:../../libDaisy/src/util/FIFO.h ****     int PushBack(std::initializer_list<T> valuesToAdd)
  63:../../libDaisy/src/util/FIFO.h ****     {
  64:../../libDaisy/src/util/FIFO.h ****         int numAdded = 0;
  65:../../libDaisy/src/util/FIFO.h ****         for(const auto& v : valuesToAdd)
  66:../../libDaisy/src/util/FIFO.h ****         {
  67:../../libDaisy/src/util/FIFO.h ****             if(IsFull())
  68:../../libDaisy/src/util/FIFO.h ****                 return numAdded;
  69:../../libDaisy/src/util/FIFO.h **** 
  70:../../libDaisy/src/util/FIFO.h ****             PushBack(v);
  71:../../libDaisy/src/util/FIFO.h ****             numAdded++;
  72:../../libDaisy/src/util/FIFO.h ****         }
  73:../../libDaisy/src/util/FIFO.h ****         return numAdded;
  74:../../libDaisy/src/util/FIFO.h ****     }
  75:../../libDaisy/src/util/FIFO.h **** 
  76:../../libDaisy/src/util/FIFO.h ****     /** returns a reference to the last element */
  77:../../libDaisy/src/util/FIFO.h ****     T& Back()
  78:../../libDaisy/src/util/FIFO.h ****     {
  79:../../libDaisy/src/util/FIFO.h ****         if(IsEmpty())
  80:../../libDaisy/src/util/FIFO.h ****             // invalid, but better not pass a temporary T() object as a reference...
  81:../../libDaisy/src/util/FIFO.h ****             return buffer_[0];
  82:../../libDaisy/src/util/FIFO.h ****         int idx = bufferIn_ - 1;
  83:../../libDaisy/src/util/FIFO.h ****         if(idx < 0)
  84:../../libDaisy/src/util/FIFO.h ****             idx += bufferSize_;
  85:../../libDaisy/src/util/FIFO.h ****         return buffer_[idx];
  86:../../libDaisy/src/util/FIFO.h ****     }
  87:../../libDaisy/src/util/FIFO.h **** 
  88:../../libDaisy/src/util/FIFO.h ****     /** returns a reference to the last element */
  89:../../libDaisy/src/util/FIFO.h ****     const T& Back() const
  90:../../libDaisy/src/util/FIFO.h ****     {
  91:../../libDaisy/src/util/FIFO.h ****         if(IsEmpty())
  92:../../libDaisy/src/util/FIFO.h ****             // invalid, but better not pass a temporary T() object as a reference...
  93:../../libDaisy/src/util/FIFO.h ****             return buffer_[0];
  94:../../libDaisy/src/util/FIFO.h ****         int idx = bufferIn_ - 1;
  95:../../libDaisy/src/util/FIFO.h ****         if(idx < 0)
  96:../../libDaisy/src/util/FIFO.h ****             idx += bufferSize_;
  97:../../libDaisy/src/util/FIFO.h ****         return buffer_[idx];
  98:../../libDaisy/src/util/FIFO.h ****     }
  99:../../libDaisy/src/util/FIFO.h **** 
 100:../../libDaisy/src/util/FIFO.h ****     /** removes and returns an element from the front of the buffer */
 101:../../libDaisy/src/util/FIFO.h ****     T PopFront()
 102:../../libDaisy/src/util/FIFO.h ****     {
 103:../../libDaisy/src/util/FIFO.h ****         if(IsEmpty())
 104:../../libDaisy/src/util/FIFO.h ****             return T();
 105:../../libDaisy/src/util/FIFO.h ****         else
 106:../../libDaisy/src/util/FIFO.h ****         {
 107:../../libDaisy/src/util/FIFO.h ****             const auto result = buffer_[bufferOut_];
ARM GAS  /var/folders/kw/h2sg8jtn02b91cpsjc1nlpg80000gn/T//ccz3jKAs.s 			page 16


 108:../../libDaisy/src/util/FIFO.h ****             bufferOut_++;
 109:../../libDaisy/src/util/FIFO.h ****             if(bufferOut_ >= bufferSize_)
 110:../../libDaisy/src/util/FIFO.h ****                 bufferOut_ -= bufferSize_;
 111:../../libDaisy/src/util/FIFO.h ****             return result;
 112:../../libDaisy/src/util/FIFO.h ****         }
 113:../../libDaisy/src/util/FIFO.h ****     }
 114:../../libDaisy/src/util/FIFO.h **** 
 115:../../libDaisy/src/util/FIFO.h ****     /** returns a copy of the first element */
 116:../../libDaisy/src/util/FIFO.h ****     T& Front()
 117:../../libDaisy/src/util/FIFO.h ****     {
 118:../../libDaisy/src/util/FIFO.h ****         if(IsEmpty())
 119:../../libDaisy/src/util/FIFO.h ****             // invalid, but better not pass a temporary T() object as a reference...
 120:../../libDaisy/src/util/FIFO.h ****             return buffer_[0];
 121:../../libDaisy/src/util/FIFO.h ****         return buffer_[bufferOut_];
 122:../../libDaisy/src/util/FIFO.h ****     }
 123:../../libDaisy/src/util/FIFO.h **** 
 124:../../libDaisy/src/util/FIFO.h ****     /** returns a reference to the first element */
 125:../../libDaisy/src/util/FIFO.h ****     const T& Front() const
 126:../../libDaisy/src/util/FIFO.h ****     {
 127:../../libDaisy/src/util/FIFO.h ****         if(IsEmpty())
 128:../../libDaisy/src/util/FIFO.h ****             // invalid, but better not pass a temporary T() object as a reference...
 129:../../libDaisy/src/util/FIFO.h ****             return buffer_[0];
 130:../../libDaisy/src/util/FIFO.h ****         return buffer_[bufferOut_];
 131:../../libDaisy/src/util/FIFO.h ****     }
 132:../../libDaisy/src/util/FIFO.h **** 
 133:../../libDaisy/src/util/FIFO.h ****     /** Returns true if the buffer contains an element equal to the provided value */
 134:../../libDaisy/src/util/FIFO.h ****     bool Contains(const T& element)
 135:../../libDaisy/src/util/FIFO.h ****     {
 136:../../libDaisy/src/util/FIFO.h ****         auto idx = bufferOut_;
 137:../../libDaisy/src/util/FIFO.h ****         while(idx != bufferIn_)
 138:../../libDaisy/src/util/FIFO.h ****         {
 139:../../libDaisy/src/util/FIFO.h ****             if(buffer_[idx] == element)
 140:../../libDaisy/src/util/FIFO.h ****                 return true;
 141:../../libDaisy/src/util/FIFO.h ****             idx++;
 142:../../libDaisy/src/util/FIFO.h ****             if(idx >= bufferSize_)
 143:../../libDaisy/src/util/FIFO.h ****                 idx -= bufferSize_;
 144:../../libDaisy/src/util/FIFO.h ****         }
 145:../../libDaisy/src/util/FIFO.h ****         return false;
 146:../../libDaisy/src/util/FIFO.h ****     }
 147:../../libDaisy/src/util/FIFO.h **** 
 148:../../libDaisy/src/util/FIFO.h ****     /** Returns the number of elements in the buffer that are equal to the provided value */
 149:../../libDaisy/src/util/FIFO.h ****     size_t CountEqualTo(const T& element)
 150:../../libDaisy/src/util/FIFO.h ****     {
 151:../../libDaisy/src/util/FIFO.h ****         size_t result = 0;
 152:../../libDaisy/src/util/FIFO.h ****         size_t idx    = bufferOut_;
 153:../../libDaisy/src/util/FIFO.h ****         while(idx != bufferIn_)
 154:../../libDaisy/src/util/FIFO.h ****         {
 155:../../libDaisy/src/util/FIFO.h ****             if(buffer_[idx] == element)
 156:../../libDaisy/src/util/FIFO.h ****                 result++;
 157:../../libDaisy/src/util/FIFO.h ****             idx++;
 158:../../libDaisy/src/util/FIFO.h ****             if(idx >= bufferSize_)
 159:../../libDaisy/src/util/FIFO.h ****                 idx -= bufferSize_;
 160:../../libDaisy/src/util/FIFO.h ****         }
 161:../../libDaisy/src/util/FIFO.h ****         return result;
 162:../../libDaisy/src/util/FIFO.h ****     }
 163:../../libDaisy/src/util/FIFO.h **** 
 164:../../libDaisy/src/util/FIFO.h ****     /** returns true, if the buffer is empty */
ARM GAS  /var/folders/kw/h2sg8jtn02b91cpsjc1nlpg80000gn/T//ccz3jKAs.s 			page 17


 165:../../libDaisy/src/util/FIFO.h ****     bool IsEmpty() const { return bufferIn_ == bufferOut_; }
 166:../../libDaisy/src/util/FIFO.h **** 
 167:../../libDaisy/src/util/FIFO.h ****     /** returns true, if the buffer is Full */
 168:../../libDaisy/src/util/FIFO.h ****     bool IsFull() const { return GetNumElements() == bufferSize_ - 1; }
 169:../../libDaisy/src/util/FIFO.h **** 
 170:../../libDaisy/src/util/FIFO.h ****     /** returns the number of elements in the buffer */
 171:../../libDaisy/src/util/FIFO.h ****     size_t GetNumElements() const
 172:../../libDaisy/src/util/FIFO.h ****     {
 173:../../libDaisy/src/util/FIFO.h ****         int32_t numElements = bufferIn_ - bufferOut_;
 174:../../libDaisy/src/util/FIFO.h ****         if(numElements < 0)
 175:../../libDaisy/src/util/FIFO.h ****             numElements += bufferSize_;
 176:../../libDaisy/src/util/FIFO.h ****         return size_t(numElements);
 177:../../libDaisy/src/util/FIFO.h ****     }
 178:../../libDaisy/src/util/FIFO.h **** 
 179:../../libDaisy/src/util/FIFO.h ****     /** inserts an element "idx" positions behind the first element and returns true if successful 
 180:../../libDaisy/src/util/FIFO.h ****     bool Insert(size_t idx, const T& element)
 181:../../libDaisy/src/util/FIFO.h ****     {
 182:../../libDaisy/src/util/FIFO.h ****         if(idx > GetNumElements())
 183:../../libDaisy/src/util/FIFO.h ****             return false;
 184:../../libDaisy/src/util/FIFO.h ****         if(IsFull())
 185:../../libDaisy/src/util/FIFO.h ****             return false;
 186:../../libDaisy/src/util/FIFO.h ****         if(idx == GetNumElements())
 187:../../libDaisy/src/util/FIFO.h ****         {
 188:../../libDaisy/src/util/FIFO.h ****             PushBack(element);
 189:../../libDaisy/src/util/FIFO.h ****             return true;
 190:../../libDaisy/src/util/FIFO.h ****         }
 191:../../libDaisy/src/util/FIFO.h ****         // copy last element
 192:../../libDaisy/src/util/FIFO.h ****         PushBack(Back());
 193:../../libDaisy/src/util/FIFO.h ****         // move remaining elements: n => n+1
 194:../../libDaisy/src/util/FIFO.h ****         for(int i = GetNumElements() - 2; i > int(idx); i--)
 195:../../libDaisy/src/util/FIFO.h ****             (*this)[i] = (*this)[i - 1];
 196:../../libDaisy/src/util/FIFO.h ****         // insert element
 197:../../libDaisy/src/util/FIFO.h ****         (*this)[idx] = element;
 198:../../libDaisy/src/util/FIFO.h ****         return true;
 199:../../libDaisy/src/util/FIFO.h ****     }
 200:../../libDaisy/src/util/FIFO.h **** 
 201:../../libDaisy/src/util/FIFO.h ****     /** removes the element "idx" positions behind the first element 
 202:../../libDaisy/src/util/FIFO.h ****      *  and returns true if successful */
 203:../../libDaisy/src/util/FIFO.h ****     bool Remove(size_t idx)
 204:../../libDaisy/src/util/FIFO.h ****     {
 205:../../libDaisy/src/util/FIFO.h ****         if(idx >= GetNumElements())
 206:../../libDaisy/src/util/FIFO.h ****             return false;
 207:../../libDaisy/src/util/FIFO.h **** 
 208:../../libDaisy/src/util/FIFO.h ****         size_t index = bufferOut_ + idx;
 209:../../libDaisy/src/util/FIFO.h ****         if(index >= bufferSize_)
 210:../../libDaisy/src/util/FIFO.h ****             index -= bufferSize_;
 211:../../libDaisy/src/util/FIFO.h ****         size_t nextIndex = index + 1;
 212:../../libDaisy/src/util/FIFO.h ****         if(nextIndex >= bufferSize_)
 213:../../libDaisy/src/util/FIFO.h ****             nextIndex -= bufferSize_;
 214:../../libDaisy/src/util/FIFO.h **** 
 215:../../libDaisy/src/util/FIFO.h ****         while(nextIndex != bufferIn_)
 216:../../libDaisy/src/util/FIFO.h ****         {
 217:../../libDaisy/src/util/FIFO.h ****             buffer_[index] = buffer_[nextIndex];
 218:../../libDaisy/src/util/FIFO.h ****             index++;
 219:../../libDaisy/src/util/FIFO.h ****             nextIndex++;
 220:../../libDaisy/src/util/FIFO.h ****             if(index >= bufferSize_)
 221:../../libDaisy/src/util/FIFO.h ****                 index -= bufferSize_;
ARM GAS  /var/folders/kw/h2sg8jtn02b91cpsjc1nlpg80000gn/T//ccz3jKAs.s 			page 18


 222:../../libDaisy/src/util/FIFO.h ****             if(nextIndex >= bufferSize_)
 223:../../libDaisy/src/util/FIFO.h ****                 nextIndex -= bufferSize_;
 224:../../libDaisy/src/util/FIFO.h ****         }
 225:../../libDaisy/src/util/FIFO.h **** 
 226:../../libDaisy/src/util/FIFO.h ****         int32_t nextBufferIn = int32_t(bufferIn_) - 1;
 227:../../libDaisy/src/util/FIFO.h ****         if(nextBufferIn < 0)
 228:../../libDaisy/src/util/FIFO.h ****             nextBufferIn += bufferSize_;
 229:../../libDaisy/src/util/FIFO.h ****         bufferIn_ = size_t(nextBufferIn);
 230:../../libDaisy/src/util/FIFO.h **** 
 231:../../libDaisy/src/util/FIFO.h ****         return true;
 232:../../libDaisy/src/util/FIFO.h ****     }
 233:../../libDaisy/src/util/FIFO.h **** 
 234:../../libDaisy/src/util/FIFO.h ****     /** removes all elements from the buffer for which
 235:../../libDaisy/src/util/FIFO.h ****         (buffer(index) == element) returns true and returns the number of
 236:../../libDaisy/src/util/FIFO.h ****         elements that were removed. */
 237:../../libDaisy/src/util/FIFO.h ****     size_t RemoveAllEqualTo(const T& element)
 238:../../libDaisy/src/util/FIFO.h ****     {
 239:../../libDaisy/src/util/FIFO.h ****         size_t numRemoved = 0;
 240:../../libDaisy/src/util/FIFO.h ****         int    idx        = GetNumElements() - 1;
 241:../../libDaisy/src/util/FIFO.h ****         while(idx >= 0)
 242:../../libDaisy/src/util/FIFO.h ****         {
 243:../../libDaisy/src/util/FIFO.h ****             if((*this)[idx] == element)
 244:../../libDaisy/src/util/FIFO.h ****             {
 245:../../libDaisy/src/util/FIFO.h ****                 numRemoved++;
 246:../../libDaisy/src/util/FIFO.h ****                 Remove(idx);
 247:../../libDaisy/src/util/FIFO.h ****                 // was that the last element?
 248:../../libDaisy/src/util/FIFO.h ****                 if(idx == int(GetNumElements()) - 1)
 249:../../libDaisy/src/util/FIFO.h ****                     idx--;
 250:../../libDaisy/src/util/FIFO.h ****             }
 251:../../libDaisy/src/util/FIFO.h ****             else
 252:../../libDaisy/src/util/FIFO.h ****                 idx--;
 253:../../libDaisy/src/util/FIFO.h ****         }
 254:../../libDaisy/src/util/FIFO.h ****         return numRemoved;
 255:../../libDaisy/src/util/FIFO.h ****     }
 256:../../libDaisy/src/util/FIFO.h **** 
 257:../../libDaisy/src/util/FIFO.h ****     /** returns the element "idx" positions behind the first element */
 258:../../libDaisy/src/util/FIFO.h ****     T& operator[](size_t idx)
 259:../../libDaisy/src/util/FIFO.h ****     {
 260:../../libDaisy/src/util/FIFO.h ****         if(idx >= GetNumElements())
 261:../../libDaisy/src/util/FIFO.h ****             // invalid, but better not pass a temporary T() object as a reference...
 262:../../libDaisy/src/util/FIFO.h ****             return buffer_[0];
 263:../../libDaisy/src/util/FIFO.h **** 
 264:../../libDaisy/src/util/FIFO.h ****         size_t index = bufferOut_ + idx;
 265:../../libDaisy/src/util/FIFO.h ****         if(index >= bufferSize_)
 266:../../libDaisy/src/util/FIFO.h ****             index -= bufferSize_;
 267:../../libDaisy/src/util/FIFO.h ****         return buffer_[index];
 268:../../libDaisy/src/util/FIFO.h ****     }
 269:../../libDaisy/src/util/FIFO.h **** 
 270:../../libDaisy/src/util/FIFO.h ****     /** returns the element "idx" positions behind the first element */
 271:../../libDaisy/src/util/FIFO.h ****     const T& operator[](size_t idx) const
 272:../../libDaisy/src/util/FIFO.h ****     {
 273:../../libDaisy/src/util/FIFO.h ****         if(idx >= GetNumElements())
 274:../../libDaisy/src/util/FIFO.h ****             // invalid, but better not pass a temporary T() object as a reference...
 275:../../libDaisy/src/util/FIFO.h ****             return buffer_[0];
 276:../../libDaisy/src/util/FIFO.h **** 
 277:../../libDaisy/src/util/FIFO.h ****         size_t index = bufferOut_ + idx;
 278:../../libDaisy/src/util/FIFO.h ****         if(index >= bufferSize_)
ARM GAS  /var/folders/kw/h2sg8jtn02b91cpsjc1nlpg80000gn/T//ccz3jKAs.s 			page 19


 279:../../libDaisy/src/util/FIFO.h ****             index -= bufferSize_;
 280:../../libDaisy/src/util/FIFO.h ****         return buffer_[index];
 281:../../libDaisy/src/util/FIFO.h ****     }
 282:../../libDaisy/src/util/FIFO.h **** 
 283:../../libDaisy/src/util/FIFO.h ****     /** returns the total capacity */
 284:../../libDaisy/src/util/FIFO.h ****     size_t GetCapacity() const { return bufferSize_ - 1; }
 285:../../libDaisy/src/util/FIFO.h **** 
 286:../../libDaisy/src/util/FIFO.h ****   private:
 287:../../libDaisy/src/util/FIFO.h ****     FIFOBase(const FIFOBase<T>&) {} // non copyable
 288:../../libDaisy/src/util/FIFO.h **** 
 289:../../libDaisy/src/util/FIFO.h ****   private:
 290:../../libDaisy/src/util/FIFO.h ****     T*           buffer_;
 291:../../libDaisy/src/util/FIFO.h ****     const size_t bufferSize_;
 292:../../libDaisy/src/util/FIFO.h ****     size_t       bufferIn_;
 293:../../libDaisy/src/util/FIFO.h ****     size_t       bufferOut_;
 294:../../libDaisy/src/util/FIFO.h **** };
 295:../../libDaisy/src/util/FIFO.h **** 
 296:../../libDaisy/src/util/FIFO.h **** /** A simple FIFO ring buffer with a fixed size. */
 297:../../libDaisy/src/util/FIFO.h **** template <typename T, size_t capacity>
 298:../../libDaisy/src/util/FIFO.h **** class FIFO : public FIFOBase<T>
 131              		.loc 9 298 7 view .LVU21
 132              	.LBB307:
 133              	.LBI307:
  42:../../libDaisy/src/util/FIFO.h **** 
 134              		.loc 9 42 5 view .LVU22
  42:../../libDaisy/src/util/FIFO.h **** 
 135              		.loc 9 42 5 is_stmt 0 view .LVU23
 136              	.LBE307:
 137              	.LBE306:
 138              	.LBB308:
 139              	.LBI308:
 140              		.file 10 "../../libDaisy/src/hid/midi_parser.h"
   1:../../libDaisy/src/hid/midi_parser.h **** #pragma once
   2:../../libDaisy/src/hid/midi_parser.h **** #ifndef DSY_MIDI_PARSER_H
   3:../../libDaisy/src/hid/midi_parser.h **** #define DSY_MIDI_PARSER_H
   4:../../libDaisy/src/hid/midi_parser.h **** 
   5:../../libDaisy/src/hid/midi_parser.h **** #include <stdint.h>
   6:../../libDaisy/src/hid/midi_parser.h **** #include <stdlib.h>
   7:../../libDaisy/src/hid/midi_parser.h **** #include "hid/MidiEvent.h"
   8:../../libDaisy/src/hid/midi_parser.h **** 
   9:../../libDaisy/src/hid/midi_parser.h **** namespace daisy
  10:../../libDaisy/src/hid/midi_parser.h **** {
  11:../../libDaisy/src/hid/midi_parser.h **** /** @brief   Utility class for parsing raw byte streams into MIDI messages
  12:../../libDaisy/src/hid/midi_parser.h ****  *  @details Implemented as a state machine designed to parse one byte at a time
  13:../../libDaisy/src/hid/midi_parser.h ****  *  @ingroup midi
  14:../../libDaisy/src/hid/midi_parser.h ****  */
  15:../../libDaisy/src/hid/midi_parser.h **** class MidiParser
  16:../../libDaisy/src/hid/midi_parser.h **** {
  17:../../libDaisy/src/hid/midi_parser.h ****   public:
  18:../../libDaisy/src/hid/midi_parser.h ****     MidiParser(){};
  19:../../libDaisy/src/hid/midi_parser.h ****     ~MidiParser() {}
 141              		.loc 10 19 5 is_stmt 1 view .LVU24
 142              		.loc 10 19 5 is_stmt 0 view .LVU25
 143              	.LBE308:
 144              	.LBB309:
 145              	.LBI309:
 146              		.file 11 "../../libDaisy/src/hid/usb_midi.h"
ARM GAS  /var/folders/kw/h2sg8jtn02b91cpsjc1nlpg80000gn/T//ccz3jKAs.s 			page 20


   1:../../libDaisy/src/hid/usb_midi.h **** #pragma once
   2:../../libDaisy/src/hid/usb_midi.h **** #ifndef __DSY_MIDIUSBTRANSPORT_H__
   3:../../libDaisy/src/hid/usb_midi.h **** #define __DSY_MIDIUSBTRANSPORT_H__
   4:../../libDaisy/src/hid/usb_midi.h **** 
   5:../../libDaisy/src/hid/usb_midi.h **** #include "hid/usb.h"
   6:../../libDaisy/src/hid/usb_midi.h **** #include "sys/system.h"
   7:../../libDaisy/src/hid/usb_midi.h **** #include "util/ringbuffer.h"
   8:../../libDaisy/src/hid/usb_midi.h **** 
   9:../../libDaisy/src/hid/usb_midi.h **** namespace daisy
  10:../../libDaisy/src/hid/usb_midi.h **** {
  11:../../libDaisy/src/hid/usb_midi.h **** /** @brief USB Transport for MIDI
  12:../../libDaisy/src/hid/usb_midi.h ****  *  @ingroup midi
  13:../../libDaisy/src/hid/usb_midi.h ****  */
  14:../../libDaisy/src/hid/usb_midi.h **** class MidiUsbTransport
  15:../../libDaisy/src/hid/usb_midi.h **** {
  16:../../libDaisy/src/hid/usb_midi.h ****   public:
  17:../../libDaisy/src/hid/usb_midi.h ****     typedef void (*MidiRxParseCallback)(uint8_t* data,
  18:../../libDaisy/src/hid/usb_midi.h ****                                         size_t   size,
  19:../../libDaisy/src/hid/usb_midi.h ****                                         void*    context);
  20:../../libDaisy/src/hid/usb_midi.h **** 
  21:../../libDaisy/src/hid/usb_midi.h ****     struct Config
  22:../../libDaisy/src/hid/usb_midi.h ****     {
  23:../../libDaisy/src/hid/usb_midi.h ****         enum Periph
  24:../../libDaisy/src/hid/usb_midi.h ****         {
  25:../../libDaisy/src/hid/usb_midi.h ****             INTERNAL = 0,
  26:../../libDaisy/src/hid/usb_midi.h ****             EXTERNAL
  27:../../libDaisy/src/hid/usb_midi.h ****         };
  28:../../libDaisy/src/hid/usb_midi.h **** 
  29:../../libDaisy/src/hid/usb_midi.h ****         Periph periph;
  30:../../libDaisy/src/hid/usb_midi.h **** 
  31:../../libDaisy/src/hid/usb_midi.h ****         /**
  32:../../libDaisy/src/hid/usb_midi.h ****          * When sending MIDI messages immediately back-to-back in user code,
  33:../../libDaisy/src/hid/usb_midi.h ****          * sometimes the USB CDC driver is still "busy".
  34:../../libDaisy/src/hid/usb_midi.h ****          *
  35:../../libDaisy/src/hid/usb_midi.h ****          * This option configures the number of times to retry a Tx after
  36:../../libDaisy/src/hid/usb_midi.h ****          * delaying for 100 microseconds (default = 3 retries).
  37:../../libDaisy/src/hid/usb_midi.h ****          *
  38:../../libDaisy/src/hid/usb_midi.h ****          * If you set this to zero, Tx will not retry so the attempt will block
  39:../../libDaisy/src/hid/usb_midi.h ****          * for slightly less time, but transmit can fail if the Tx state is busy.
  40:../../libDaisy/src/hid/usb_midi.h ****          */
  41:../../libDaisy/src/hid/usb_midi.h ****         uint8_t tx_retry_count;
  42:../../libDaisy/src/hid/usb_midi.h **** 
  43:../../libDaisy/src/hid/usb_midi.h ****         Config() : periph(INTERNAL), tx_retry_count(3) {}
  44:../../libDaisy/src/hid/usb_midi.h ****     };
  45:../../libDaisy/src/hid/usb_midi.h **** 
  46:../../libDaisy/src/hid/usb_midi.h ****     void Init(Config config);
  47:../../libDaisy/src/hid/usb_midi.h **** 
  48:../../libDaisy/src/hid/usb_midi.h ****     void StartRx(MidiRxParseCallback callback, void* context);
  49:../../libDaisy/src/hid/usb_midi.h ****     bool RxActive();
  50:../../libDaisy/src/hid/usb_midi.h ****     void FlushRx();
  51:../../libDaisy/src/hid/usb_midi.h ****     void Tx(uint8_t* buffer, size_t size);
  52:../../libDaisy/src/hid/usb_midi.h **** 
  53:../../libDaisy/src/hid/usb_midi.h ****     class Impl;
  54:../../libDaisy/src/hid/usb_midi.h **** 
  55:../../libDaisy/src/hid/usb_midi.h ****     MidiUsbTransport() : pimpl_(nullptr) {}
  56:../../libDaisy/src/hid/usb_midi.h ****     ~MidiUsbTransport() {}
 147              		.loc 11 56 5 is_stmt 1 view .LVU26
ARM GAS  /var/folders/kw/h2sg8jtn02b91cpsjc1nlpg80000gn/T//ccz3jKAs.s 			page 21


 148              		.loc 11 56 5 is_stmt 0 view .LVU27
 149              	.LBE309:
 150              		.loc 8 156 21 view .LVU28
 151 0000 7047     		bx	lr
 152              		.cfi_endproc
 153              	.LFE5463:
 155              		.weak	_ZN5daisy11MidiHandlerINS_16MidiUsbTransportEED1Ev
 156              		.thumb_set _ZN5daisy11MidiHandlerINS_16MidiUsbTransportEED1Ev,_ZN5daisy11MidiHandlerINS_16MidiUsbT
 157 0002 00BF     		.section	.text._ZN7daisysp9DelayLineIfLj48000EED2Ev,"axG",%progbits,_ZN7daisysp9DelayLineIfLj48000
 158              		.align	1
 159              		.p2align 2,,3
 160              		.weak	_ZN7daisysp9DelayLineIfLj48000EED2Ev
 161              		.syntax unified
 162              		.thumb
 163              		.thumb_func
 165              	_ZN7daisysp9DelayLineIfLj48000EED2Ev:
 166              	.LVL3:
 167              	.LFB5466:
 168              		.file 12 "../../DaisySP/Source/Utility/delayline.h"
   1:../../DaisySP/Source/Utility/delayline.h **** /*
   2:../../DaisySP/Source/Utility/delayline.h **** Copyright (c) 2020 Electrosmith, Corp
   3:../../DaisySP/Source/Utility/delayline.h **** 
   4:../../DaisySP/Source/Utility/delayline.h **** Use of this source code is governed by an MIT-style
   5:../../DaisySP/Source/Utility/delayline.h **** license that can be found in the LICENSE file or at
   6:../../DaisySP/Source/Utility/delayline.h **** https://opensource.org/licenses/MIT.
   7:../../DaisySP/Source/Utility/delayline.h **** */
   8:../../DaisySP/Source/Utility/delayline.h **** 
   9:../../DaisySP/Source/Utility/delayline.h **** #pragma once
  10:../../DaisySP/Source/Utility/delayline.h **** #ifndef DSY_DELAY_H
  11:../../DaisySP/Source/Utility/delayline.h **** #define DSY_DELAY_H
  12:../../DaisySP/Source/Utility/delayline.h **** #include <stdlib.h>
  13:../../DaisySP/Source/Utility/delayline.h **** #include <stdint.h>
  14:../../DaisySP/Source/Utility/delayline.h **** namespace daisysp
  15:../../DaisySP/Source/Utility/delayline.h **** {
  16:../../DaisySP/Source/Utility/delayline.h **** /** Simple Delay line.
  17:../../DaisySP/Source/Utility/delayline.h **** November 2019
  18:../../DaisySP/Source/Utility/delayline.h **** 
  19:../../DaisySP/Source/Utility/delayline.h **** Converted to Template December 2019
  20:../../DaisySP/Source/Utility/delayline.h **** 
  21:../../DaisySP/Source/Utility/delayline.h **** declaration example: (1 second of floats)
  22:../../DaisySP/Source/Utility/delayline.h **** 
  23:../../DaisySP/Source/Utility/delayline.h **** DelayLine<float, SAMPLE_RATE> del;
  24:../../DaisySP/Source/Utility/delayline.h **** 
  25:../../DaisySP/Source/Utility/delayline.h **** By: shensley
  26:../../DaisySP/Source/Utility/delayline.h **** */
  27:../../DaisySP/Source/Utility/delayline.h **** template <typename T, size_t max_size>
  28:../../DaisySP/Source/Utility/delayline.h **** class DelayLine
  29:../../DaisySP/Source/Utility/delayline.h **** {
  30:../../DaisySP/Source/Utility/delayline.h ****   public:
  31:../../DaisySP/Source/Utility/delayline.h ****     DelayLine() {}
  32:../../DaisySP/Source/Utility/delayline.h ****     ~DelayLine() {}
 169              		.loc 12 32 5 is_stmt 1 view -0
 170              		.cfi_startproc
 171              		@ args = 0, pretend = 0, frame = 0
 172              		@ frame_needed = 0, uses_anonymous_args = 0
 173              		@ link register save eliminated.
 174              		.loc 12 32 19 is_stmt 0 view .LVU30
ARM GAS  /var/folders/kw/h2sg8jtn02b91cpsjc1nlpg80000gn/T//ccz3jKAs.s 			page 22


 175 0000 7047     		bx	lr
 176              		.cfi_endproc
 177              	.LFE5466:
 179              		.weak	_ZN7daisysp9DelayLineIfLj48000EED1Ev
 180              		.thumb_set _ZN7daisysp9DelayLineIfLj48000EED1Ev,_ZN7daisysp9DelayLineIfLj48000EED2Ev
 181 0002 00BF     		.section	.text._Z13AudioCallbackPKfPfj,"ax",%progbits
 182              		.align	1
 183              		.p2align 2,,3
 184              		.global	_Z13AudioCallbackPKfPfj
 185              		.syntax unified
 186              		.thumb
 187              		.thumb_func
 189              	_Z13AudioCallbackPKfPfj:
 190              	.LVL4:
 191              	.LFB4853:
 192              		.file 13 "main.cpp"
   1:main.cpp      **** 
   2:main.cpp      **** 
   3:main.cpp      **** #include "daisy_seed.h"
   4:main.cpp      **** #include "daisysp.h"
   5:main.cpp      **** 
   6:main.cpp      **** #include "main.h"
   7:main.cpp      **** #include "vasynth.h"
   8:main.cpp      **** 
   9:main.cpp      **** using namespace daisy;
  10:main.cpp      **** using namespace daisysp;
  11:main.cpp      **** 
  12:main.cpp      **** // globals
  13:main.cpp      **** DaisySeed hardware;
  14:main.cpp      **** MidiUsbHandler midi;
  15:main.cpp      **** float sysSampleRate;
  16:main.cpp      **** float sysCallbackRate;
  17:main.cpp      **** extern uint8_t preset_max;
  18:main.cpp      **** extern VASynthSetting preset_setting[PRESET_MAX];
  19:main.cpp      **** 
  20:main.cpp      **** uint8_t param_;
  21:main.cpp      **** float pitch_bend = 1.0f;
  22:main.cpp      **** float master_tune = 0.0f;
  23:main.cpp      **** 
  24:main.cpp      **** // sound
  25:main.cpp      **** VASynth vasynth;
  26:main.cpp      **** uint8_t gPlay = PLAY_ON;
  27:main.cpp      **** 
  28:main.cpp      **** // fx
  29:main.cpp      **** DelayLine<float, DELAY_MAX> DSY_SDRAM_BSS delay_;
  30:main.cpp      **** 
  31:main.cpp      **** // sequencer
  32:main.cpp      **** void SequencerPlay(uint16_t);
  33:main.cpp      **** void SequencerRecord(uint8_t, uint8_t);
  34:main.cpp      **** void SeqTimer_Config(void);
  35:main.cpp      **** void writeSram(uint32_t, uint8_t);
  36:main.cpp      **** uint8_t readSram(uint32_t);
  37:main.cpp      **** void writeSramWord(uint32_t, uint16_t);
  38:main.cpp      **** uint16_t readSramWord(uint32_t);
  39:main.cpp      **** 
  40:main.cpp      **** uint16_t seqclock = 0, seqtime = 0, seqmode = 0, seqmsg;
  41:main.cpp      **** uint16_t seqnote, seqvelocity;
ARM GAS  /var/folders/kw/h2sg8jtn02b91cpsjc1nlpg80000gn/T//ccz3jKAs.s 			page 23


  42:main.cpp      **** uint32_t seqmem = 0x00010000;
  43:main.cpp      **** 
  44:main.cpp      **** // audio callback
  45:main.cpp      **** 
  46:main.cpp      **** void AudioCallback(AudioHandle::InterleavingInputBuffer  in,
  47:main.cpp      ****                    AudioHandle::InterleavingOutputBuffer out,
  48:main.cpp      ****                    size_t                                size)
  49:main.cpp      **** {	
 193              		.loc 13 49 1 is_stmt 1 view -0
 194              		.cfi_startproc
 195              		@ args = 0, pretend = 0, frame = 8
 196              		@ frame_needed = 0, uses_anonymous_args = 0
  50:main.cpp      **** 	float voice_left, voice_right;
 197              		.loc 13 50 2 view .LVU32
  51:main.cpp      **** 	
  52:main.cpp      **** 	for (size_t n = 0; n < size; n += 2)
 198              		.loc 13 52 2 view .LVU33
 199              	.LBB310:
 200              		.loc 13 52 23 view .LVU34
 201 0000 AAB3     		cbz	r2, .L16
 202              	.LBE310:
  49:main.cpp      **** 	float voice_left, voice_right;
 203              		.loc 13 49 1 is_stmt 0 view .LVU35
 204 0002 2DE9F041 		push	{r4, r5, r6, r7, r8, lr}
 205              		.cfi_def_cfa_offset 24
 206              		.cfi_offset 4, -24
 207              		.cfi_offset 5, -20
 208              		.cfi_offset 6, -16
 209              		.cfi_offset 7, -12
 210              		.cfi_offset 8, -8
 211              		.cfi_offset 14, -4
 212 0006 1746     		mov	r7, r2
 213 0008 82B0     		sub	sp, sp, #8
 214              		.cfi_def_cfa_offset 32
 215 000a 0646     		mov	r6, r0
 216 000c 0C46     		mov	r4, r1
 217              	.LBB311:
 218              		.loc 13 52 14 view .LVU36
 219 000e 0025     		movs	r5, #0
 220 0010 DFF86080 		ldr	r8, .L20+4
 221 0014 07E0     		b	.L10
 222              	.LVL5:
 223              	.L8:
 224              		.loc 13 52 33 view .LVU37
 225 0016 0235     		adds	r5, r5, #2
 226              	.LVL6:
  53:main.cpp      **** 	{	
  54:main.cpp      **** 		if (gPlay == PLAY_ON)
  55:main.cpp      **** 		{			
  56:main.cpp      **** 			vasynth.Process(&voice_left, &voice_right);
  57:main.cpp      **** 			
  58:main.cpp      **** 			out[n] = voice_left + in[n];
  59:main.cpp      **** 			out[n + 1] = voice_right + in[n + 1];
  60:main.cpp      **** 		} 
  61:main.cpp      **** 		else 
  62:main.cpp      **** 		{
  63:main.cpp      **** 			out[n] = 0;
ARM GAS  /var/folders/kw/h2sg8jtn02b91cpsjc1nlpg80000gn/T//ccz3jKAs.s 			page 24


 227              		.loc 13 63 11 view .LVU38
 228 0018 2360     		str	r3, [r4]	@ float
  64:main.cpp      **** 			out[n + 1] = 0;		
 229              		.loc 13 64 4 is_stmt 1 view .LVU39
 230              		.loc 13 64 15 is_stmt 0 view .LVU40
 231 001a 6360     		str	r3, [r4, #4]	@ float
  52:main.cpp      **** 	{	
 232              		.loc 13 52 2 is_stmt 1 view .LVU41
 233              	.LVL7:
  52:main.cpp      **** 	{	
 234              		.loc 13 52 23 view .LVU42
 235 001c 0836     		adds	r6, r6, #8
 236 001e AF42     		cmp	r7, r5
 237 0020 04F10804 		add	r4, r4, #8
 238 0024 20D9     		bls	.L19
 239              	.LVL8:
 240              	.L10:
  54:main.cpp      **** 		{			
 241              		.loc 13 54 3 view .LVU43
  63:main.cpp      **** 			out[n + 1] = 0;		
 242              		.loc 13 63 4 view .LVU44
  54:main.cpp      **** 		{			
 243              		.loc 13 54 3 is_stmt 0 view .LVU45
 244 0026 98F80010 		ldrb	r1, [r8]	@ zero_extendqisi2
  63:main.cpp      **** 			out[n + 1] = 0;		
 245              		.loc 13 63 11 view .LVU46
 246 002a 0023     		movs	r3, #0
  54:main.cpp      **** 		{			
 247              		.loc 13 54 3 view .LVU47
 248 002c 0129     		cmp	r1, #1
 249 002e F2D1     		bne	.L8
  56:main.cpp      **** 			
 250              		.loc 13 56 4 is_stmt 1 view .LVU48
  56:main.cpp      **** 			
 251              		.loc 13 56 19 is_stmt 0 view .LVU49
 252 0030 01AA     		add	r2, sp, #4
 253 0032 6946     		mov	r1, sp
 254 0034 0E48     		ldr	r0, .L20
  52:main.cpp      **** 	{	
 255              		.loc 13 52 33 view .LVU50
 256 0036 0235     		adds	r5, r5, #2
 257              	.LVL9:
  56:main.cpp      **** 			
 258              		.loc 13 56 19 view .LVU51
 259 0038 FFF7FEFF 		bl	_ZN7VASynth7ProcessEPfS0_
 260              	.LVL10:
  58:main.cpp      **** 			out[n + 1] = voice_right + in[n + 1];
 261              		.loc 13 58 4 is_stmt 1 view .LVU52
  58:main.cpp      **** 			out[n + 1] = voice_right + in[n + 1];
 262              		.loc 13 58 24 is_stmt 0 view .LVU53
 263 003c 96ED007A 		vldr.32	s14, [r6]
 264 0040 DDED007A 		vldr.32	s15, [sp]
  52:main.cpp      **** 	{	
 265              		.loc 13 52 23 view .LVU54
 266 0044 AF42     		cmp	r7, r5
  59:main.cpp      **** 		} 
 267              		.loc 13 59 29 view .LVU55
ARM GAS  /var/folders/kw/h2sg8jtn02b91cpsjc1nlpg80000gn/T//ccz3jKAs.s 			page 25


 268 0046 DDED016A 		vldr.32	s13, [sp, #4]
  52:main.cpp      **** 	{	
 269              		.loc 13 52 23 view .LVU56
 270 004a 06F10806 		add	r6, r6, #8
  58:main.cpp      **** 			out[n + 1] = voice_right + in[n + 1];
 271              		.loc 13 58 24 view .LVU57
 272 004e 37EE277A 		vadd.f32	s14, s14, s15
  52:main.cpp      **** 	{	
 273              		.loc 13 52 23 view .LVU58
 274 0052 04F10804 		add	r4, r4, #8
  58:main.cpp      **** 			out[n + 1] = voice_right + in[n + 1];
 275              		.loc 13 58 11 view .LVU59
 276 0056 04ED027A 		vstr.32	s14, [r4, #-8]
  59:main.cpp      **** 		} 
 277              		.loc 13 59 4 is_stmt 1 view .LVU60
  59:main.cpp      **** 		} 
 278              		.loc 13 59 29 is_stmt 0 view .LVU61
 279 005a 56ED017A 		vldr.32	s15, [r6, #-4]
 280 005e 77EEA67A 		vadd.f32	s15, s15, s13
  59:main.cpp      **** 		} 
 281              		.loc 13 59 15 view .LVU62
 282 0062 44ED017A 		vstr.32	s15, [r4, #-4]
  52:main.cpp      **** 	{	
 283              		.loc 13 52 2 is_stmt 1 view .LVU63
 284              	.LVL11:
  52:main.cpp      **** 	{	
 285              		.loc 13 52 23 view .LVU64
 286 0066 DED8     		bhi	.L10
 287              	.L19:
  52:main.cpp      **** 	{	
 288              		.loc 13 52 23 is_stmt 0 view .LVU65
 289              	.LBE311:
  65:main.cpp      **** 		}		
  66:main.cpp      **** 	}
  67:main.cpp      **** }
 290              		.loc 13 67 1 view .LVU66
 291 0068 02B0     		add	sp, sp, #8
 292              		.cfi_def_cfa_offset 24
 293              		@ sp needed
 294 006a BDE8F081 		pop	{r4, r5, r6, r7, r8, pc}
 295              	.LVL12:
 296              	.L16:
 297              		.cfi_def_cfa_offset 0
 298              		.cfi_restore 4
 299              		.cfi_restore 5
 300              		.cfi_restore 6
 301              		.cfi_restore 7
 302              		.cfi_restore 8
 303              		.cfi_restore 14
 304              		.loc 13 67 1 view .LVU67
 305 006e 7047     		bx	lr
 306              	.L21:
 307              		.align	2
 308              	.L20:
 309 0070 00000000 		.word	.LANCHOR1
 310 0074 00000000 		.word	.LANCHOR0
 311              		.cfi_endproc
ARM GAS  /var/folders/kw/h2sg8jtn02b91cpsjc1nlpg80000gn/T//ccz3jKAs.s 			page 26


 312              	.LFE4853:
 314              		.section	.text._Z13SequencerPlayt.part.0,"ax",%progbits
 315              		.align	1
 316              		.p2align 2,,3
 317              		.syntax unified
 318              		.thumb
 319              		.thumb_func
 321              	_Z13SequencerPlayt.part.0:
 322              	.LVL13:
 323              	.LFB5469:
  68:main.cpp      **** 
  69:main.cpp      **** 
  70:main.cpp      **** // midi handler
  71:main.cpp      **** void HandleMidiMessage(MidiEvent m)
  72:main.cpp      **** {
  73:main.cpp      ****     switch(m.type)
  74:main.cpp      ****     {
  75:main.cpp      ****         case NoteOn:
  76:main.cpp      ****         {
  77:main.cpp      ****             NoteOnEvent p = m.AsNoteOn();
  78:main.cpp      ****             if ((vasynth.midi_channel_ == MIDI_CHANNEL_ALL) || (p.channel == vasynth.midi_channel_)
  79:main.cpp      **** 			{
  80:main.cpp      **** 				if(seqmode == 1)
  81:main.cpp      **** 				{
  82:main.cpp      **** 					SequencerRecord((p.note | 0x80), p.velocity);
  83:main.cpp      **** 				}
  84:main.cpp      **** 				vasynth.NoteOn(p.note, p.velocity);
  85:main.cpp      **** 				hardware.SetLed(true);
  86:main.cpp      **** 			}
  87:main.cpp      **** 	        break;
  88:main.cpp      ****         }
  89:main.cpp      ****         case NoteOff:
  90:main.cpp      ****         {
  91:main.cpp      ****             NoteOnEvent p = m.AsNoteOn();
  92:main.cpp      ****             if ((vasynth.midi_channel_ == MIDI_CHANNEL_ALL) || (p.channel == vasynth.midi_channel_)
  93:main.cpp      **** 			{
  94:main.cpp      **** 				if(seqmode == 1)
  95:main.cpp      **** 				{
  96:main.cpp      **** 					SequencerRecord(p.note, 0);
  97:main.cpp      **** 				}
  98:main.cpp      **** 				vasynth.NoteOff(p.note);
  99:main.cpp      **** 				hardware.SetLed(false);
 100:main.cpp      **** 			}			
 101:main.cpp      **** 	        break;
 102:main.cpp      ****         } 
 103:main.cpp      **** 		case PitchBend:
 104:main.cpp      ****         {
 105:main.cpp      ****             PitchBendEvent p = m.AsPitchBend();
 106:main.cpp      ****             if ((vasynth.midi_channel_ == MIDI_CHANNEL_ALL) || (p.channel == vasynth.midi_channel_)
 107:main.cpp      **** 			{
 108:main.cpp      **** 				vasynth.PitchBend(p.value);
 109:main.cpp      **** 			}			
 110:main.cpp      **** 	        break;
 111:main.cpp      ****         } 
 112:main.cpp      ****         case ControlChange:
 113:main.cpp      ****         {
 114:main.cpp      ****             ControlChangeEvent p = m.AsControlChange();
ARM GAS  /var/folders/kw/h2sg8jtn02b91cpsjc1nlpg80000gn/T//ccz3jKAs.s 			page 27


 115:main.cpp      ****             switch(p.control_number)
 116:main.cpp      ****             {
 117:main.cpp      **** 				case 1: // Modulation Wheel
 118:main.cpp      **** 					vasynth.filter_cutoff_ = ((float)p.value / 127.0f) * FILTER_CUTOFF_MAX;
 119:main.cpp      ****                     vasynth.SetFilter();			
 120:main.cpp      **** 						 	break;	
 121:main.cpp      ****                     break;
 122:main.cpp      **** 				{
 123:main.cpp      **** 
 124:main.cpp      **** 						case 2:
 125:main.cpp      **** 						{
 126:main.cpp      **** 							switch(p.value >> 5)
 127:main.cpp      **** 							{
 128:main.cpp      **** 								case 0:
 129:main.cpp      **** 									vasynth.waveform_ = WAVE_TRI;
 130:main.cpp      **** 									break;
 131:main.cpp      **** 								case 1:
 132:main.cpp      **** 									vasynth.waveform_ = WAVE_SAW;
 133:main.cpp      **** 									break;
 134:main.cpp      **** 								case 2:
 135:main.cpp      **** 									vasynth.waveform_ = WAVE_SQUARE;
 136:main.cpp      **** 									break;
 137:main.cpp      **** 								case 3:
 138:main.cpp      **** 									vasynth.waveform_ = WAVE_POLYBLEP_SAW;
 139:main.cpp      **** 									break;
 140:main.cpp      **** 							}
 141:main.cpp      **** 							vasynth.SetWaveform();
 142:main.cpp      **** 							break;
 143:main.cpp      **** 						}
 144:main.cpp      **** 						case 3:
 145:main.cpp      **** 						{
 146:main.cpp      **** 							switch(p.value >> 5)
 147:main.cpp      **** 							{
 148:main.cpp      **** 								case 0:
 149:main.cpp      **** 									vasynth.osc2_waveform_ = WAVE_TRI;
 150:main.cpp      **** 									break;
 151:main.cpp      **** 								case 1:
 152:main.cpp      **** 									vasynth.osc2_waveform_ = WAVE_SAW;
 153:main.cpp      **** 									break;
 154:main.cpp      **** 								case 2:
 155:main.cpp      **** 									vasynth.osc2_waveform_ = WAVE_SQUARE;
 156:main.cpp      **** 									break;
 157:main.cpp      **** 								case 3:
 158:main.cpp      **** 									vasynth.osc2_waveform_ = WAVE_POLYBLEP_SAW;
 159:main.cpp      **** 									break;
 160:main.cpp      **** 							}
 161:main.cpp      **** 							vasynth.SetWaveform();
 162:main.cpp      **** 							break;
 163:main.cpp      **** 						}
 164:main.cpp      **** 
 165:main.cpp      **** 						case 4:
 166:main.cpp      **** 						{
 167:main.cpp      **** 							vasynth.osc_mix_ = ((float)p.value / 127.0f);
 168:main.cpp      **** 							break;
 169:main.cpp      **** 						}
 170:main.cpp      **** 						case 5:
 171:main.cpp      **** 						{
ARM GAS  /var/folders/kw/h2sg8jtn02b91cpsjc1nlpg80000gn/T//ccz3jKAs.s 			page 28


 172:main.cpp      **** 							vasynth.osc2_detune_ = ((float)p.value / 255.0f);
 173:main.cpp      **** 							break;
 174:main.cpp      **** 						}
 175:main.cpp      **** 						case 6:
 176:main.cpp      **** 						{
 177:main.cpp      **** 							vasynth.osc2_transpose_ = (1.0f + ((float)p.value / 127.0f));
 178:main.cpp      **** 							break;
 179:main.cpp      **** 						}
 180:main.cpp      **** 						case 7:
 181:main.cpp      **** 						{
 182:main.cpp      **** 							vasynth.eg_f_attack_ = ((float)p.value / 127.0f);
 183:main.cpp      **** 							vasynth.SetEG();
 184:main.cpp      **** 							break;
 185:main.cpp      **** 						}						
 186:main.cpp      **** 
 187:main.cpp      **** 						case 8:
 188:main.cpp      **** 						{
 189:main.cpp      **** 							vasynth.eg_f_decay_ = ((float)p.value / 127.0f);
 190:main.cpp      **** 							vasynth.SetEG();
 191:main.cpp      **** 							break;
 192:main.cpp      **** 						}
 193:main.cpp      **** 						case 9:	
 194:main.cpp      **** 							{
 195:main.cpp      **** 							vasynth.eg_f_sustain_ = ((float)p.value / 127.0f);
 196:main.cpp      **** 							vasynth.SetEG();
 197:main.cpp      **** 							break;
 198:main.cpp      **** 						}
 199:main.cpp      **** 
 200:main.cpp      **** 						case 10:
 201:main.cpp      **** 						{
 202:main.cpp      **** 							vasynth.eg_f_release_ = ((float)p.value / 127.0f);
 203:main.cpp      **** 							vasynth.SetEG();
 204:main.cpp      **** 							break;
 205:main.cpp      **** 						}
 206:main.cpp      **** 						case 11:
 207:main.cpp      **** 						{
 208:main.cpp      **** 							vasynth.eg_a_attack_ = ((float)p.value / 127.0f);
 209:main.cpp      **** 							vasynth.SetEG();
 210:main.cpp      **** 							break;
 211:main.cpp      **** 						}
 212:main.cpp      **** 
 213:main.cpp      **** 
 214:main.cpp      **** 						case 12:
 215:main.cpp      **** 						{
 216:main.cpp      **** 							vasynth.eg_a_decay_ = ((float)p.value / 127.0f);
 217:main.cpp      **** 							vasynth.SetEG();
 218:main.cpp      **** 							break;
 219:main.cpp      **** 						}
 220:main.cpp      **** 						case 13:
 221:main.cpp      **** 						{
 222:main.cpp      **** 							vasynth.eg_a_sustain_ = ((float)p.value / 127.0f);
 223:main.cpp      **** 							vasynth.SetEG();
 224:main.cpp      **** 							break;
 225:main.cpp      **** 						}
 226:main.cpp      **** 						case 14:
 227:main.cpp      **** 						{
 228:main.cpp      **** 							vasynth.eg_a_release_ = ((float)p.value / 127.0f);
ARM GAS  /var/folders/kw/h2sg8jtn02b91cpsjc1nlpg80000gn/T//ccz3jKAs.s 			page 29


 229:main.cpp      **** 							vasynth.SetEG();
 230:main.cpp      **** 							break;
 231:main.cpp      **** 						}
 232:main.cpp      **** 					
 233:main.cpp      **** 						case 15:
 234:main.cpp      **** 						{
 235:main.cpp      **** 							vasynth.vcf_kbd_follow_= ((float)p.value / 127.0f);
 236:main.cpp      **** 							break;
 237:main.cpp      **** 						}
 238:main.cpp      **** 						case 16:
 239:main.cpp      **** 						{
 240:main.cpp      **** 							vasynth.env_kbd_follow_ = ((float)p.value / 127.0f);
 241:main.cpp      **** 							break;
 242:main.cpp      **** 						}
 243:main.cpp      **** 					case 17:
 244:main.cpp      **** 						{
 245:main.cpp      **** 							vasynth.filter_res_ = ((float)p.value / 127.0f);
 246:main.cpp      ****                     		vasynth.SetFilter();
 247:main.cpp      **** 							break;
 248:main.cpp      **** 						}
 249:main.cpp      **** 						case 18:
 250:main.cpp      **** 						{			
 251:main.cpp      **** 							vasynth.filter_cutoff_ = ((float)p.value / 127.0f) * FILTER_CUTOFF_MAX;
 252:main.cpp      ****                		  	   vasynth.SetFilter();			
 253:main.cpp      **** 					 	break;
 254:main.cpp      **** 						}
 255:main.cpp      **** 
 256:main.cpp      **** 						case 19:
 257:main.cpp      **** 						{
 258:main.cpp      **** 							vasynth.vcavcflfo_freq_ = ((float)p.value / 127.0f);
 259:main.cpp      **** 							vasynth.SetVCAVCFLFO();
 260:main.cpp      **** 							break;
 261:main.cpp      **** 						}
 262:main.cpp      **** 						case 20:
 263:main.cpp      **** 						{
 264:main.cpp      **** 							vasynth.vcavcflfo_amp_ = ((float)p.value / 127.0f);
 265:main.cpp      **** 							vasynth.SetVCAVCFLFO();
 266:main.cpp      **** 							break;
 267:main.cpp      **** 						}
 268:main.cpp      **** 						case 21:
 269:main.cpp      **** 						{
 270:main.cpp      **** 							switch(p.value >> 5)
 271:main.cpp      **** 							{
 272:main.cpp      **** 								case 0:
 273:main.cpp      **** 									vasynth.vcavcflfo_waveform_ = WAVE_TRI;
 274:main.cpp      **** 									break;
 275:main.cpp      **** 								case 1:
 276:main.cpp      **** 									vasynth.vcavcflfo_waveform_ = WAVE_SAW;
 277:main.cpp      **** 									break;
 278:main.cpp      **** 								case 2:
 279:main.cpp      **** 									vasynth.vcavcflfo_waveform_ = WAVE_SQUARE;
 280:main.cpp      **** 									break;
 281:main.cpp      **** 								case 3:
 282:main.cpp      **** 									vasynth.vcavcflfo_waveform_ = WAVE_POLYBLEP_SAW;
 283:main.cpp      **** 									break;
 284:main.cpp      **** 							}
 285:main.cpp      **** 								vasynth.SetVCAVCFLFO();
ARM GAS  /var/folders/kw/h2sg8jtn02b91cpsjc1nlpg80000gn/T//ccz3jKAs.s 			page 30


 286:main.cpp      **** 								break;
 287:main.cpp      **** 						}
 288:main.cpp      **** 						case 22:
 289:main.cpp      **** 						{
 290:main.cpp      **** 							// Sequencer Mode Record
 291:main.cpp      **** 							seqmode = 1;
 292:main.cpp      **** 							seqclock = 0;
 293:main.cpp      **** 							break;
 294:main.cpp      **** 						}
 295:main.cpp      **** 						case 23:
 296:main.cpp      **** 						{
 297:main.cpp      **** 							// Sequencer Mode Record End
 298:main.cpp      **** 							seqmode = 2;
 299:main.cpp      **** 							// Place a time-stamp and stop marker at the current position and stop the sequencer
 300:main.cpp      **** 							writeSramWord(seqmem, seqclock);
 301:main.cpp      **** 							seqmem++;
 302:main.cpp      **** 							seqmem++;
 303:main.cpp      **** 							writeSramWord(seqmem, 0xFFFF);
 304:main.cpp      **** 							seqmode = 0;
 305:main.cpp      **** 							seqclock = 0;
 306:main.cpp      **** 							seqmem = 0x00010000;
 307:main.cpp      **** 							break;
 308:main.cpp      **** 						}
 309:main.cpp      **** 						case 24:
 310:main.cpp      **** 						{
 311:main.cpp      **** 							// Sequencer Mode Stop
 312:main.cpp      **** 							seqmode = 0;
 313:main.cpp      **** 							seqclock = 0;
 314:main.cpp      **** 							seqmem = 0x00010000;
 315:main.cpp      **** 							break;
 316:main.cpp      **** 						}
 317:main.cpp      **** 						case 25:
 318:main.cpp      **** 						{
 319:main.cpp      **** 							// Sequencer Mode Play
 320:main.cpp      **** 							seqmode = 3;
 321:main.cpp      **** 							seqclock = 0;
 322:main.cpp      **** 							seqmem = 0x00010000;
 323:main.cpp      **** 							break;
 324:main.cpp      **** 						}
 325:main.cpp      **** 				
 326:main.cpp      **** 					}
 327:main.cpp      **** 				}	
 328:main.cpp      **** 
 329:main.cpp      **** 
 330:main.cpp      **** 		}
 331:main.cpp      **** 		default: break;
 332:main.cpp      **** 	}
 333:main.cpp      **** }
 334:main.cpp      **** 
 335:main.cpp      **** void SequencerPlay(uint16_t modenum)
 324              		.loc 13 335 6 is_stmt 1 view -0
 325              		.cfi_startproc
 326              		@ args = 0, pretend = 0, frame = 0
 327              		@ frame_needed = 0, uses_anonymous_args = 0
 336:main.cpp      **** {
 337:main.cpp      **** 	if(modenum == 0)
 338:main.cpp      **** 	{
ARM GAS  /var/folders/kw/h2sg8jtn02b91cpsjc1nlpg80000gn/T//ccz3jKAs.s 			page 31


 339:main.cpp      **** 		seqclock = 0;
 340:main.cpp      **** 		seqmem = 0x00010000;
 341:main.cpp      **** 		return;
 342:main.cpp      **** 	}
 343:main.cpp      **** 	
 344:main.cpp      **** 	if(modenum == 3)
 328              		.loc 13 344 2 view .LVU69
 329 0000 0328     		cmp	r0, #3
 335:main.cpp      **** {
 330              		.loc 13 335 6 is_stmt 0 view .LVU70
 331 0002 2DE9F84F 		push	{r3, r4, r5, r6, r7, r8, r9, r10, fp, lr}
 332              		.cfi_def_cfa_offset 40
 333              		.cfi_offset 3, -40
 334              		.cfi_offset 4, -36
 335              		.cfi_offset 5, -32
 336              		.cfi_offset 6, -28
 337              		.cfi_offset 7, -24
 338              		.cfi_offset 8, -20
 339              		.cfi_offset 9, -16
 340              		.cfi_offset 10, -12
 341              		.cfi_offset 11, -8
 342              		.cfi_offset 14, -4
 343              		.loc 13 344 2 view .LVU71
 344 0006 08D0     		beq	.L31
 345:main.cpp      **** 	{
 346:main.cpp      **** 		/* Read the time-stamp from SRAM and compare to seqclock*/
 347:main.cpp      **** 		seqtime = readSramWord(seqmem);
 348:main.cpp      **** 		
 349:main.cpp      **** 		while(seqtime == seqclock)
 350:main.cpp      **** 		{
 351:main.cpp      **** 			/* Move pointer to note data */
 352:main.cpp      **** 			seqmem++;
 353:main.cpp      **** 			seqmem++;
 354:main.cpp      **** 			
 355:main.cpp      **** 			/* Read the note from SRAM */
 356:main.cpp      **** 			seqnote = readSram(seqmem);
 357:main.cpp      **** 			seqmsg = seqnote & 0x80;
 358:main.cpp      **** 			seqnote = seqnote & 0x7F;
 359:main.cpp      **** 			seqmem++;
 360:main.cpp      **** 		
 361:main.cpp      **** 			/* Read the velocity from SRAM */
 362:main.cpp      **** 			seqvelocity = readSram(seqmem);
 363:main.cpp      **** 			seqmem++;
 364:main.cpp      **** 			
 365:main.cpp      **** 			if(seqvelocity == 0xFF)
 366:main.cpp      **** 			{
 367:main.cpp      **** 				/* End of sequence reached, reset the position to the beginning and restart */
 368:main.cpp      **** 				seqclock = 0;
 369:main.cpp      **** 				seqmem = 0x00010000;
 370:main.cpp      **** 				return;
 371:main.cpp      **** 			}
 372:main.cpp      **** 			
 373:main.cpp      **** 			if(seqmsg)
 374:main.cpp      **** 			{
 375:main.cpp      **** 				/* Play the note */
 376:main.cpp      **** 				vasynth.NoteOn(seqnote, seqvelocity);
 377:main.cpp      **** 			}
ARM GAS  /var/folders/kw/h2sg8jtn02b91cpsjc1nlpg80000gn/T//ccz3jKAs.s 			page 32


 378:main.cpp      **** 			else
 379:main.cpp      **** 			{
 380:main.cpp      **** 				/* Stop the note */
 381:main.cpp      **** 				vasynth.NoteOff(seqnote);
 382:main.cpp      **** 			}
 383:main.cpp      **** 			
 384:main.cpp      **** 			/* Check to see if there are other events at the current sequencer clock */
 385:main.cpp      **** 			seqtime = readSramWord(seqmem);
 386:main.cpp      **** 		}
 387:main.cpp      **** 	}
 388:main.cpp      **** 	
 389:main.cpp      **** 	/* All events processed so increment the sequencer clock */
 390:main.cpp      **** 	seqclock++;
 345              		.loc 13 390 10 view .LVU72
 346 0008 DFF8BC90 		ldr	r9, .L34+24
 347 000c B9F80010 		ldrh	r1, [r9]
 348              	.LVL14:
 349              	.L24:
 350              		.loc 13 390 2 is_stmt 1 view .LVU73
 351              		.loc 13 390 10 is_stmt 0 view .LVU74
 352 0010 0131     		adds	r1, r1, #1
 353 0012 A9F80010 		strh	r1, [r9]	@ movhi
 391:main.cpp      **** }
 354              		.loc 13 391 1 view .LVU75
 355 0016 BDE8F88F 		pop	{r3, r4, r5, r6, r7, r8, r9, r10, fp, pc}
 356              	.LVL15:
 357              	.L31:
 347:main.cpp      **** 		
 358              		.loc 13 347 3 is_stmt 1 view .LVU76
 347:main.cpp      **** 		
 359              		.loc 13 347 25 is_stmt 0 view .LVU77
 360 001a 254C     		ldr	r4, .L34
 349:main.cpp      **** 		{
 361              		.loc 13 349 17 view .LVU78
 362 001c DFF8A890 		ldr	r9, .L34+24
 347:main.cpp      **** 		
 363              		.loc 13 347 25 view .LVU79
 364 0020 2368     		ldr	r3, [r4]
 365              	.LVL16:
 366              	.LBB312:
 367              	.LBI312:
 392:main.cpp      **** 
 393:main.cpp      **** void SequencerRecord(uint8_t recnote, uint8_t recvelocity)
 394:main.cpp      **** {
 395:main.cpp      **** 	/* Write the timestamp to SRAM */
 396:main.cpp      **** 	writeSramWord(seqmem, seqclock);
 397:main.cpp      **** 	seqmem++;
 398:main.cpp      **** 	seqmem++;
 399:main.cpp      **** 		
 400:main.cpp      **** 	/* Write the note to SRAM */
 401:main.cpp      **** 	writeSram(seqmem, recnote);
 402:main.cpp      **** 	seqmem++;
 403:main.cpp      **** 		
 404:main.cpp      **** 	/* Write the velocity to SRAM */
 405:main.cpp      **** 	writeSram(seqmem, recvelocity);
 406:main.cpp      **** 	seqmem++;
 407:main.cpp      **** 	
ARM GAS  /var/folders/kw/h2sg8jtn02b91cpsjc1nlpg80000gn/T//ccz3jKAs.s 			page 33


 408:main.cpp      **** 	if(seqmem > 0x7FFF8)
 409:main.cpp      **** 	{
 410:main.cpp      **** 		/* There is no more memory left for the sequencer to use */
 411:main.cpp      **** 		/* Place a timestamp and stop marker at the current position and select stop mode */
 412:main.cpp      **** 		writeSramWord(seqmem, seqclock);
 413:main.cpp      **** 		seqmem++;
 414:main.cpp      **** 		seqmem++;
 415:main.cpp      **** 		writeSramWord(seqmem, 0xFFFF);
 416:main.cpp      **** 		seqmode = 0;
 417:main.cpp      **** 		seqclock = 0;
 418:main.cpp      **** 		seqmem = 0x00010000;
 419:main.cpp      **** 	}
 420:main.cpp      **** 	}
 421:main.cpp      **** 
 422:main.cpp      **** /* SRAM memory handling routines */
 423:main.cpp      **** void writeSram(uint32_t l_addr, uint8_t l_data)
 424:main.cpp      **** {
 425:main.cpp      ****   /* Pointer write on specific location of backup SRAM */
 426:main.cpp      ****   *(volatile uint8_t *) (WRITE_READ_SRAM_ADDR + l_addr) = l_data;
 427:main.cpp      **** }
 428:main.cpp      **** 
 429:main.cpp      **** uint8_t readSram(uint32_t l_addr)
 430:main.cpp      **** {
 431:main.cpp      ****   uint8_t i_retval;
 432:main.cpp      **** 	
 433:main.cpp      ****   /* Pointer write from specific location of backup SRAM */
 434:main.cpp      ****   i_retval =  *(volatile uint8_t *) (WRITE_READ_SRAM_ADDR + l_addr);
 435:main.cpp      **** 	
 436:main.cpp      ****   return i_retval;
 437:main.cpp      **** }
 438:main.cpp      **** 
 439:main.cpp      **** void writeSramWord(uint32_t l_addr_w, uint16_t l_data_w)
 440:main.cpp      **** {
 441:main.cpp      ****   /* Pointer write on specific location of backup SRAM */
 442:main.cpp      ****   *(volatile uint16_t *) (WRITE_READ_SRAM_ADDR + l_addr_w) = l_data_w;
 443:main.cpp      **** }
 444:main.cpp      **** 
 445:main.cpp      **** uint16_t readSramWord(uint32_t l_addr_w)
 368              		.loc 13 445 10 is_stmt 1 view .LVU80
 369              	.LBB313:
 446:main.cpp      **** {
 447:main.cpp      ****   uint16_t i_retval_w;
 370              		.loc 13 447 3 view .LVU81
 448:main.cpp      **** 	
 449:main.cpp      ****   /* Pointer write from specific location of backup SRAM */
 450:main.cpp      ****   i_retval_w =  *(volatile uint16_t *) (WRITE_READ_SRAM_ADDR + l_addr_w);
 371              		.loc 13 450 3 view .LVU82
 372              	.LBE313:
 373              	.LBE312:
 349:main.cpp      **** 		{
 374              		.loc 13 349 17 is_stmt 0 view .LVU83
 375 0022 B9F80010 		ldrh	r1, [r9]
 376              	.LBB316:
 377              	.LBB314:
 378              		.loc 13 450 62 view .LVU84
 379 0026 03F10052 		add	r2, r3, #536870912
 380              	.LBE314:
ARM GAS  /var/folders/kw/h2sg8jtn02b91cpsjc1nlpg80000gn/T//ccz3jKAs.s 			page 34


 381              	.LBE316:
 347:main.cpp      **** 		
 382              		.loc 13 347 11 view .LVU85
 383 002a 224D     		ldr	r5, .L34+4
 384              	.LBB317:
 385              	.LBB315:
 386              		.loc 13 450 14 view .LVU86
 387 002c 1288     		ldrh	r2, [r2]
 388 002e 92B2     		uxth	r2, r2
 389              	.LVL17:
 451:main.cpp      **** 	
 452:main.cpp      ****   return i_retval_w;
 390              		.loc 13 452 3 is_stmt 1 view .LVU87
 391              		.loc 13 452 3 is_stmt 0 view .LVU88
 392              	.LBE315:
 393              	.LBE317:
 349:main.cpp      **** 		{
 394              		.loc 13 349 17 view .LVU89
 395 0030 8A42     		cmp	r2, r1
 347:main.cpp      **** 		
 396              		.loc 13 347 11 view .LVU90
 397 0032 2A80     		strh	r2, [r5]	@ movhi
 349:main.cpp      **** 		{
 398              		.loc 13 349 3 is_stmt 1 view .LVU91
 349:main.cpp      **** 		{
 399              		.loc 13 349 17 view .LVU92
 400 0034 ECD1     		bne	.L24
 401 0036 DFF89480 		ldr	r8, .L34+28
 402 003a 1F4F     		ldr	r7, .L34+8
 403 003c 1F4E     		ldr	r6, .L34+12
 404 003e 0BE0     		b	.L29
 405              	.LVL18:
 406              	.L33:
 376:main.cpp      **** 			}
 407              		.loc 13 376 19 is_stmt 0 view .LVU93
 408 0040 FFF7FEFF 		bl	_ZN7VASynth6NoteOnEhh
 409              	.LVL19:
 410              	.L28:
 385:main.cpp      **** 		}
 411              		.loc 13 385 4 is_stmt 1 view .LVU94
 385:main.cpp      **** 		}
 412              		.loc 13 385 26 is_stmt 0 view .LVU95
 413 0044 2368     		ldr	r3, [r4]
 414              	.LVL20:
 415              	.LBB318:
 416              	.LBI318:
 445:main.cpp      **** {
 417              		.loc 13 445 10 is_stmt 1 view .LVU96
 418              	.LBB319:
 447:main.cpp      **** 	
 419              		.loc 13 447 3 view .LVU97
 450:main.cpp      **** 	
 420              		.loc 13 450 3 view .LVU98
 421              	.LBE319:
 422              	.LBE318:
 349:main.cpp      **** 		{
 423              		.loc 13 349 17 is_stmt 0 view .LVU99
ARM GAS  /var/folders/kw/h2sg8jtn02b91cpsjc1nlpg80000gn/T//ccz3jKAs.s 			page 35


 424 0046 B9F80010 		ldrh	r1, [r9]
 425              	.LBB321:
 426              	.LBB320:
 450:main.cpp      **** 	
 427              		.loc 13 450 62 view .LVU100
 428 004a 03F10052 		add	r2, r3, #536870912
 450:main.cpp      **** 	
 429              		.loc 13 450 14 view .LVU101
 430 004e 1288     		ldrh	r2, [r2]
 431 0050 92B2     		uxth	r2, r2
 432              	.LVL21:
 433              		.loc 13 452 3 is_stmt 1 view .LVU102
 434              		.loc 13 452 3 is_stmt 0 view .LVU103
 435              	.LBE320:
 436              	.LBE321:
 349:main.cpp      **** 		{
 437              		.loc 13 349 17 view .LVU104
 438 0052 9142     		cmp	r1, r2
 385:main.cpp      **** 		}
 439              		.loc 13 385 12 view .LVU105
 440 0054 2A80     		strh	r2, [r5]	@ movhi
 349:main.cpp      **** 		{
 441              		.loc 13 349 3 is_stmt 1 view .LVU106
 349:main.cpp      **** 		{
 442              		.loc 13 349 17 view .LVU107
 443 0056 DBD1     		bne	.L24
 444              	.L29:
 352:main.cpp      **** 			seqmem++;
 445              		.loc 13 352 4 view .LVU108
 353:main.cpp      **** 			
 446              		.loc 13 353 4 view .LVU109
 373:main.cpp      **** 			{
 447              		.loc 13 373 4 view .LVU110
 376:main.cpp      **** 			}
 448              		.loc 13 376 5 view .LVU111
 381:main.cpp      **** 			}
 449              		.loc 13 381 5 view .LVU112
 353:main.cpp      **** 			
 450              		.loc 13 353 10 is_stmt 0 view .LVU113
 451 0058 981C     		adds	r0, r3, #2
 452              	.LBB322:
 453              	.LBB323:
 434:main.cpp      **** 	
 454              		.loc 13 434 59 view .LVU114
 455 005a 194A     		ldr	r2, .L34+16
 456              	.LBE323:
 457              	.LBE322:
 359:main.cpp      **** 		
 458              		.loc 13 359 10 view .LVU115
 459 005c D91C     		adds	r1, r3, #3
 460              	.LBB326:
 461              	.LBB327:
 434:main.cpp      **** 	
 462              		.loc 13 434 59 view .LVU116
 463 005e DFF870A0 		ldr	r10, .L34+32
 464              	.LBE327:
 465              	.LBE326:
ARM GAS  /var/folders/kw/h2sg8jtn02b91cpsjc1nlpg80000gn/T//ccz3jKAs.s 			page 36


 353:main.cpp      **** 			
 466              		.loc 13 353 10 view .LVU117
 467 0062 2060     		str	r0, [r4]
 356:main.cpp      **** 			seqmsg = seqnote & 0x80;
 468              		.loc 13 356 4 is_stmt 1 view .LVU118
 469              	.LVL22:
 470              	.LBB330:
 471              	.LBI322:
 429:main.cpp      **** {
 472              		.loc 13 429 9 view .LVU119
 473              	.LBB324:
 431:main.cpp      **** 	
 474              		.loc 13 431 3 view .LVU120
 434:main.cpp      **** 	
 475              		.loc 13 434 3 view .LVU121
 434:main.cpp      **** 	
 476              		.loc 13 434 12 is_stmt 0 view .LVU122
 477 0064 9A5C     		ldrb	r2, [r3, r2]	@ zero_extendqisi2
 478              	.LBE324:
 479              	.LBE330:
 359:main.cpp      **** 		
 480              		.loc 13 359 10 view .LVU123
 481 0066 2160     		str	r1, [r4]
 363:main.cpp      **** 			
 482              		.loc 13 363 10 view .LVU124
 483 0068 191D     		adds	r1, r3, #4
 484 006a 02F07F0C 		and	ip, r2, #127
 357:main.cpp      **** 			seqnote = seqnote & 0x7F;
 485              		.loc 13 357 21 view .LVU125
 486 006e 02F0800B 		and	fp, r2, #128
 487              	.LBB331:
 488              	.LBB325:
 434:main.cpp      **** 	
 489              		.loc 13 434 12 view .LVU126
 490 0072 5FFA82FE 		uxtb	lr, r2
 491              	.LVL23:
 436:main.cpp      **** }
 492              		.loc 13 436 3 is_stmt 1 view .LVU127
 436:main.cpp      **** }
 493              		.loc 13 436 3 is_stmt 0 view .LVU128
 494              	.LBE325:
 495              	.LBE331:
 357:main.cpp      **** 			seqnote = seqnote & 0x7F;
 496              		.loc 13 357 4 is_stmt 1 view .LVU129
 376:main.cpp      **** 			}
 497              		.loc 13 376 19 is_stmt 0 view .LVU130
 498 0076 1348     		ldr	r0, .L34+20
 357:main.cpp      **** 			seqnote = seqnote & 0x7F;
 499              		.loc 13 357 21 view .LVU131
 500 0078 A8F800B0 		strh	fp, [r8]	@ movhi
 358:main.cpp      **** 			seqmem++;
 501              		.loc 13 358 4 is_stmt 1 view .LVU132
 358:main.cpp      **** 			seqmem++;
 502              		.loc 13 358 22 is_stmt 0 view .LVU133
 503 007c A7F800C0 		strh	ip, [r7]	@ movhi
 359:main.cpp      **** 		
 504              		.loc 13 359 4 is_stmt 1 view .LVU134
ARM GAS  /var/folders/kw/h2sg8jtn02b91cpsjc1nlpg80000gn/T//ccz3jKAs.s 			page 37


 362:main.cpp      **** 			seqmem++;
 505              		.loc 13 362 4 view .LVU135
 506              	.LVL24:
 507              	.LBB332:
 508              	.LBI326:
 429:main.cpp      **** {
 509              		.loc 13 429 9 view .LVU136
 510              	.LBB328:
 431:main.cpp      **** 	
 511              		.loc 13 431 3 view .LVU137
 434:main.cpp      **** 	
 512              		.loc 13 434 3 view .LVU138
 434:main.cpp      **** 	
 513              		.loc 13 434 12 is_stmt 0 view .LVU139
 514 0080 13F80A20 		ldrb	r2, [r3, r10]	@ zero_extendqisi2
 515              	.LBE328:
 516              	.LBE332:
 363:main.cpp      **** 			
 517              		.loc 13 363 10 view .LVU140
 518 0084 2160     		str	r1, [r4]
 519              	.LVL25:
 376:main.cpp      **** 			}
 520              		.loc 13 376 19 view .LVU141
 521 0086 6146     		mov	r1, ip
 362:main.cpp      **** 			seqmem++;
 522              		.loc 13 362 26 view .LVU142
 523 0088 1346     		mov	r3, r2
 524              	.LVL26:
 525              	.LBB333:
 526              	.LBB329:
 434:main.cpp      **** 	
 527              		.loc 13 434 12 view .LVU143
 528 008a D2B2     		uxtb	r2, r2
 529              	.LVL27:
 436:main.cpp      **** }
 530              		.loc 13 436 3 is_stmt 1 view .LVU144
 436:main.cpp      **** }
 531              		.loc 13 436 3 is_stmt 0 view .LVU145
 532              	.LBE329:
 533              	.LBE333:
 365:main.cpp      **** 			{
 534              		.loc 13 365 4 view .LVU146
 535 008c FF2B     		cmp	r3, #255
 362:main.cpp      **** 			seqmem++;
 536              		.loc 13 362 16 view .LVU147
 537 008e 3380     		strh	r3, [r6]	@ movhi
 363:main.cpp      **** 			
 538              		.loc 13 363 4 is_stmt 1 view .LVU148
 365:main.cpp      **** 			{
 539              		.loc 13 365 4 view .LVU149
 540 0090 06D0     		beq	.L32
 373:main.cpp      **** 			{
 541              		.loc 13 373 4 is_stmt 0 view .LVU150
 542 0092 1EF0800F 		tst	lr, #128
 543 0096 D3D1     		bne	.L33
 381:main.cpp      **** 			}
 544              		.loc 13 381 20 view .LVU151
ARM GAS  /var/folders/kw/h2sg8jtn02b91cpsjc1nlpg80000gn/T//ccz3jKAs.s 			page 38


 545 0098 0A48     		ldr	r0, .L34+20
 546 009a FFF7FEFF 		bl	_ZN7VASynth7NoteOffEh
 547              	.LVL28:
 548 009e D1E7     		b	.L28
 549              	.L32:
 368:main.cpp      **** 				seqmem = 0x00010000;
 550              		.loc 13 368 5 is_stmt 1 view .LVU152
 368:main.cpp      **** 				seqmem = 0x00010000;
 551              		.loc 13 368 14 is_stmt 0 view .LVU153
 552 00a0 0022     		movs	r2, #0
 369:main.cpp      **** 				return;
 553              		.loc 13 369 12 view .LVU154
 554 00a2 4FF48033 		mov	r3, #65536
 368:main.cpp      **** 				seqmem = 0x00010000;
 555              		.loc 13 368 14 view .LVU155
 556 00a6 A9F80020 		strh	r2, [r9]	@ movhi
 369:main.cpp      **** 				return;
 557              		.loc 13 369 5 is_stmt 1 view .LVU156
 369:main.cpp      **** 				return;
 558              		.loc 13 369 12 is_stmt 0 view .LVU157
 559 00aa 2360     		str	r3, [r4]
 370:main.cpp      **** 			}
 560              		.loc 13 370 5 is_stmt 1 view .LVU158
 391:main.cpp      **** 
 561              		.loc 13 391 1 is_stmt 0 view .LVU159
 562 00ac BDE8F88F 		pop	{r3, r4, r5, r6, r7, r8, r9, r10, fp, pc}
 563              	.L35:
 564              		.align	2
 565              	.L34:
 566 00b0 00000000 		.word	.LANCHOR2
 567 00b4 00000000 		.word	.LANCHOR3
 568 00b8 00000000 		.word	.LANCHOR6
 569 00bc 00000000 		.word	.LANCHOR7
 570 00c0 02000020 		.word	536870914
 571 00c4 00000000 		.word	.LANCHOR1
 572 00c8 00000000 		.word	.LANCHOR4
 573 00cc 00000000 		.word	.LANCHOR5
 574 00d0 03000020 		.word	536870915
 575              		.cfi_endproc
 576              	.LFE5469:
 578              		.section	.text._ZN5daisy11MidiHandlerINS_16MidiUsbTransportEE13ParseCallbackEPhjPv,"axG",%progbits
 579              		.align	1
 580              		.p2align 2,,3
 581              		.weak	_ZN5daisy11MidiHandlerINS_16MidiUsbTransportEE13ParseCallbackEPhjPv
 582              		.syntax unified
 583              		.thumb
 584              		.thumb_func
 586              	_ZN5daisy11MidiHandlerINS_16MidiUsbTransportEE13ParseCallbackEPhjPv:
 587              	.LVL29:
 588              	.LFB5362:
 157:../../libDaisy/src/hid/midi.h **** 
 158:../../libDaisy/src/hid/midi.h ****     struct Config
 159:../../libDaisy/src/hid/midi.h ****     {
 160:../../libDaisy/src/hid/midi.h ****         typename Transport::Config transport_config;
 161:../../libDaisy/src/hid/midi.h ****     };
 162:../../libDaisy/src/hid/midi.h **** 
 163:../../libDaisy/src/hid/midi.h ****     /** Initializes the MidiHandler
ARM GAS  /var/folders/kw/h2sg8jtn02b91cpsjc1nlpg80000gn/T//ccz3jKAs.s 			page 39


 164:../../libDaisy/src/hid/midi.h ****      *  \param config Configuration structure used to define specifics to the MIDI Handler.
 165:../../libDaisy/src/hid/midi.h ****      */
 166:../../libDaisy/src/hid/midi.h ****     void Init(Config config)
 167:../../libDaisy/src/hid/midi.h ****     {
 168:../../libDaisy/src/hid/midi.h ****         config_ = config;
 169:../../libDaisy/src/hid/midi.h ****         transport_.Init(config_.transport_config);
 170:../../libDaisy/src/hid/midi.h ****         parser_.Init();
 171:../../libDaisy/src/hid/midi.h ****     }
 172:../../libDaisy/src/hid/midi.h **** 
 173:../../libDaisy/src/hid/midi.h ****     /** Starts listening on the selected input mode(s).
 174:../../libDaisy/src/hid/midi.h ****      * MidiEvent Queue will begin to fill, and can be checked with HasEvents() */
 175:../../libDaisy/src/hid/midi.h ****     void StartReceive()
 176:../../libDaisy/src/hid/midi.h ****     {
 177:../../libDaisy/src/hid/midi.h ****         transport_.StartRx(MidiHandler::ParseCallback, this);
 178:../../libDaisy/src/hid/midi.h ****     }
 179:../../libDaisy/src/hid/midi.h **** 
 180:../../libDaisy/src/hid/midi.h ****     /** Start listening */
 181:../../libDaisy/src/hid/midi.h ****     void Listen()
 182:../../libDaisy/src/hid/midi.h ****     {
 183:../../libDaisy/src/hid/midi.h ****         // In case of UART Error, (particularly
 184:../../libDaisy/src/hid/midi.h ****         //  overrun error), UART disables itself.
 185:../../libDaisy/src/hid/midi.h ****         // Flush the buff, and restart.
 186:../../libDaisy/src/hid/midi.h ****         if(!transport_.RxActive())
 187:../../libDaisy/src/hid/midi.h ****         {
 188:../../libDaisy/src/hid/midi.h ****             parser_.Reset();
 189:../../libDaisy/src/hid/midi.h ****             transport_.FlushRx();
 190:../../libDaisy/src/hid/midi.h ****             StartReceive();
 191:../../libDaisy/src/hid/midi.h ****         }
 192:../../libDaisy/src/hid/midi.h ****     }
 193:../../libDaisy/src/hid/midi.h **** 
 194:../../libDaisy/src/hid/midi.h ****     /** Checks if there are unhandled messages in the queue
 195:../../libDaisy/src/hid/midi.h ****     \return True if there are events to be handled, else false.
 196:../../libDaisy/src/hid/midi.h ****      */
 197:../../libDaisy/src/hid/midi.h ****     bool HasEvents() const { return event_q_.GetNumElements() > 0; }
 198:../../libDaisy/src/hid/midi.h **** 
 199:../../libDaisy/src/hid/midi.h **** 
 200:../../libDaisy/src/hid/midi.h ****     /** Pops the oldest unhandled MidiEvent from the internal queue
 201:../../libDaisy/src/hid/midi.h ****     \return The event to be handled
 202:../../libDaisy/src/hid/midi.h ****      */
 203:../../libDaisy/src/hid/midi.h ****     MidiEvent PopEvent() { return event_q_.PopFront(); }
 204:../../libDaisy/src/hid/midi.h **** 
 205:../../libDaisy/src/hid/midi.h ****     /** SendMessage
 206:../../libDaisy/src/hid/midi.h ****     Send raw bytes as message
 207:../../libDaisy/src/hid/midi.h ****     */
 208:../../libDaisy/src/hid/midi.h ****     void SendMessage(uint8_t* bytes, size_t size)
 209:../../libDaisy/src/hid/midi.h ****     {
 210:../../libDaisy/src/hid/midi.h ****         transport_.Tx(bytes, size);
 211:../../libDaisy/src/hid/midi.h ****     }
 212:../../libDaisy/src/hid/midi.h **** 
 213:../../libDaisy/src/hid/midi.h ****     /** Feed in bytes to parser state machine from an external source.
 214:../../libDaisy/src/hid/midi.h ****         Populates internal FIFO queue with MIDI Messages.
 215:../../libDaisy/src/hid/midi.h **** 
 216:../../libDaisy/src/hid/midi.h ****         \note  Normally application code won't need to use this method directly.
 217:../../libDaisy/src/hid/midi.h ****         \param byte MIDI byte to be parsed
 218:../../libDaisy/src/hid/midi.h ****     */
 219:../../libDaisy/src/hid/midi.h ****     void Parse(uint8_t byte)
 220:../../libDaisy/src/hid/midi.h ****     {
ARM GAS  /var/folders/kw/h2sg8jtn02b91cpsjc1nlpg80000gn/T//ccz3jKAs.s 			page 40


 221:../../libDaisy/src/hid/midi.h ****         MidiEvent event;
 222:../../libDaisy/src/hid/midi.h ****         if(parser_.Parse(byte, &event))
 223:../../libDaisy/src/hid/midi.h ****         {
 224:../../libDaisy/src/hid/midi.h ****             event_q_.PushBack(event);
 225:../../libDaisy/src/hid/midi.h ****         }
 226:../../libDaisy/src/hid/midi.h ****     }
 227:../../libDaisy/src/hid/midi.h **** 
 228:../../libDaisy/src/hid/midi.h ****   private:
 229:../../libDaisy/src/hid/midi.h ****     Config               config_;
 230:../../libDaisy/src/hid/midi.h ****     Transport            transport_;
 231:../../libDaisy/src/hid/midi.h ****     MidiParser           parser_;
 232:../../libDaisy/src/hid/midi.h ****     FIFO<MidiEvent, 256> event_q_;
 233:../../libDaisy/src/hid/midi.h **** 
 234:../../libDaisy/src/hid/midi.h ****     static void ParseCallback(uint8_t* data, size_t size, void* context)
 589              		.loc 8 234 17 is_stmt 1 view -0
 590              		.cfi_startproc
 591              		@ args = 0, pretend = 0, frame = 144
 592              		@ frame_needed = 0, uses_anonymous_args = 0
 593              	.LBB343:
 235:../../libDaisy/src/hid/midi.h ****     {
 236:../../libDaisy/src/hid/midi.h ****         MidiHandler* handler = reinterpret_cast<MidiHandler*>(context);
 237:../../libDaisy/src/hid/midi.h ****         for(size_t i = 0; i < size; i++)
 594              		.loc 8 237 29 view .LVU161
 595 0000 B9B3     		cbz	r1, .L46
 596 0002 0144     		add	r1, r1, r0
 597              	.LVL30:
 598              		.loc 8 237 29 is_stmt 0 view .LVU162
 599              	.LBE343:
 234:../../libDaisy/src/hid/midi.h ****     {
 600              		.loc 8 234 17 view .LVU163
 601 0004 F0B5     		push	{r4, r5, r6, r7, lr}
 602              		.cfi_def_cfa_offset 20
 603              		.cfi_offset 4, -20
 604              		.cfi_offset 5, -16
 605              		.cfi_offset 6, -12
 606              		.cfi_offset 7, -8
 607              		.cfi_offset 14, -4
 608 0006 1546     		mov	r5, r2
 609 0008 A5B0     		sub	sp, sp, #148
 610              		.cfi_def_cfa_offset 168
 611              	.LBB362:
 612              	.LBB344:
 613              	.LBB345:
 222:../../libDaisy/src/hid/midi.h ****         {
 614              		.loc 8 222 25 view .LVU164
 615 000a 02F10807 		add	r7, r2, #8
 616 000e 441E     		subs	r4, r0, #1
 617 0010 4E1E     		subs	r6, r1, #1
 618 0012 01E0     		b	.L44
 619              	.LVL31:
 620              	.L39:
 222:../../libDaisy/src/hid/midi.h ****         {
 621              		.loc 8 222 25 view .LVU165
 622              	.LBE345:
 623              	.LBE344:
 624              		.loc 8 237 9 is_stmt 1 view .LVU166
 625              		.loc 8 237 29 view .LVU167
ARM GAS  /var/folders/kw/h2sg8jtn02b91cpsjc1nlpg80000gn/T//ccz3jKAs.s 			page 41


 626 0014 A642     		cmp	r6, r4
 627 0016 2AD0     		beq	.L49
 628              	.LVL32:
 629              	.L44:
 630              	.LBB361:
 631              	.LBI344:
 219:../../libDaisy/src/hid/midi.h ****     {
 632              		.loc 8 219 10 discriminator 2 view .LVU168
 633              	.LBB360:
 222:../../libDaisy/src/hid/midi.h ****         {
 634              		.loc 8 222 25 is_stmt 0 discriminator 2 view .LVU169
 635 0018 14F8011F 		ldrb	r1, [r4, #1]!	@ zero_extendqisi2
 636              	.LVL33:
 222:../../libDaisy/src/hid/midi.h ****         {
 637              		.loc 8 222 25 discriminator 2 view .LVU170
 638 001c 6A46     		mov	r2, sp
 639 001e 3846     		mov	r0, r7
 640 0020 FFF7FEFF 		bl	_ZN5daisy10MidiParser5ParseEhPNS_9MidiEventE
 641              	.LVL34:
 222:../../libDaisy/src/hid/midi.h ****         {
 642              		.loc 8 222 9 discriminator 2 view .LVU171
 643 0024 0028     		cmp	r0, #0
 644 0026 F5D0     		beq	.L39
 645              	.LVL35:
 646              	.LBB346:
 647              	.LBI346:
  49:../../libDaisy/src/util/FIFO.h ****     {
 648              		.loc 9 49 10 is_stmt 1 view .LVU172
 649              	.LBB347:
 650              	.LBB348:
 651              	.LBI348:
 168:../../libDaisy/src/util/FIFO.h **** 
 652              		.loc 9 168 10 view .LVU173
 653              	.LBB349:
 654              	.LBB350:
 655              	.LBI350:
 171:../../libDaisy/src/util/FIFO.h ****     {
 656              		.loc 9 171 12 view .LVU174
 657              	.LBB351:
 175:../../libDaisy/src/util/FIFO.h ****         return size_t(numElements);
 658              		.loc 9 175 28 is_stmt 0 view .LVU175
 659 0028 D5F8A8C0 		ldr	ip, [r5, #168]
 660              	.LBE351:
 661              	.LBE350:
 662              	.LBE349:
 663              	.LBE348:
  53:../../libDaisy/src/util/FIFO.h ****             if(bufferIn_ >= bufferSize_)
 664              		.loc 9 53 13 view .LVU176
 665 002c 9022     		movs	r2, #144
 666 002e 6946     		mov	r1, sp
 667              	.LBB358:
 668              	.LBB356:
 669              	.LBB354:
 670              	.LBB352:
 173:../../libDaisy/src/util/FIFO.h ****         if(numElements < 0)
 671              		.loc 9 173 41 view .LVU177
 672 0030 D5E92B03 		ldrd	r0, r3, [r5, #172]
ARM GAS  /var/folders/kw/h2sg8jtn02b91cpsjc1nlpg80000gn/T//ccz3jKAs.s 			page 42


 673              	.LVL36:
 174:../../libDaisy/src/util/FIFO.h ****             numElements += bufferSize_;
 674              		.loc 9 174 9 view .LVU178
 675 0034 C31A     		subs	r3, r0, r3
 676              	.LVL37:
 174:../../libDaisy/src/util/FIFO.h ****             numElements += bufferSize_;
 677              		.loc 9 174 9 view .LVU179
 678              	.LBE352:
 679              	.LBE354:
 680              	.LBE356:
 681              	.LBE358:
  53:../../libDaisy/src/util/FIFO.h ****             if(bufferIn_ >= bufferSize_)
 682              		.loc 9 53 13 view .LVU180
 683 0036 00F1010E 		add	lr, r0, #1
 684 003a 00EBC000 		add	r0, r0, r0, lsl #3
 685              	.LBB359:
 686              	.LBB357:
 687              	.LBB355:
 688              	.LBB353:
 175:../../libDaisy/src/util/FIFO.h ****         return size_t(numElements);
 689              		.loc 9 175 25 view .LVU181
 690 003e 48BF     		it	mi
 691 0040 6344     		addmi	r3, r3, ip
 692              	.LVL38:
 175:../../libDaisy/src/util/FIFO.h ****         return size_t(numElements);
 693              		.loc 9 175 25 view .LVU182
 694              	.LBE353:
 695              	.LBE355:
 168:../../libDaisy/src/util/FIFO.h **** 
 696              		.loc 9 168 66 view .LVU183
 697 0042 0CF1FF3C 		add	ip, ip, #-1
 698              	.LBE357:
 699              	.LBE359:
  51:../../libDaisy/src/util/FIFO.h ****         {
 700              		.loc 9 51 9 view .LVU184
 701 0046 9C45     		cmp	ip, r3
 702 0048 E4D0     		beq	.L39
  53:../../libDaisy/src/util/FIFO.h ****             if(bufferIn_ >= bufferSize_)
 703              		.loc 9 53 13 view .LVU185
 704 004a D5F8A430 		ldr	r3, [r5, #164]
 705 004e C5F8ACE0 		str	lr, [r5, #172]
 706 0052 03EB0010 		add	r0, r3, r0, lsl #4
 707 0056 FFF7FEFF 		bl	memcpy
 708              	.LVL39:
  54:../../libDaisy/src/util/FIFO.h ****                 bufferIn_ -= bufferSize_;
 709              		.loc 9 54 29 view .LVU186
 710 005a D5E92A23 		ldrd	r2, r3, [r5, #168]
  54:../../libDaisy/src/util/FIFO.h ****                 bufferIn_ -= bufferSize_;
 711              		.loc 9 54 13 view .LVU187
 712 005e 9342     		cmp	r3, r2
  55:../../libDaisy/src/util/FIFO.h ****             return true;
 713              		.loc 9 55 27 view .LVU188
 714 0060 A3EB0203 		sub	r3, r3, r2
 715 0064 28BF     		it	cs
 716 0066 C5F8AC30 		strcs	r3, [r5, #172]
 717              	.LVL40:
  55:../../libDaisy/src/util/FIFO.h ****             return true;
ARM GAS  /var/folders/kw/h2sg8jtn02b91cpsjc1nlpg80000gn/T//ccz3jKAs.s 			page 43


 718              		.loc 9 55 27 view .LVU189
 719              	.LBE347:
 720              	.LBE346:
 721              	.LBE360:
 722              	.LBE361:
 723              		.loc 8 237 9 is_stmt 1 view .LVU190
 724              		.loc 8 237 29 view .LVU191
 725 006a A642     		cmp	r6, r4
 726 006c D4D1     		bne	.L44
 727              	.LVL41:
 728              	.L49:
 729              		.loc 8 237 29 is_stmt 0 view .LVU192
 730              	.LBE362:
 238:../../libDaisy/src/hid/midi.h ****         {
 239:../../libDaisy/src/hid/midi.h ****             handler->Parse(data[i]);
 240:../../libDaisy/src/hid/midi.h ****         }
 241:../../libDaisy/src/hid/midi.h ****     }
 731              		.loc 8 241 5 view .LVU193
 732 006e 25B0     		add	sp, sp, #148
 733              		.cfi_def_cfa_offset 20
 734              		@ sp needed
 735 0070 F0BD     		pop	{r4, r5, r6, r7, pc}
 736              	.LVL42:
 737              	.L46:
 738              		.cfi_def_cfa_offset 0
 739              		.cfi_restore 4
 740              		.cfi_restore 5
 741              		.cfi_restore 6
 742              		.cfi_restore 7
 743              		.cfi_restore 14
 744              		.loc 8 241 5 view .LVU194
 745 0072 7047     		bx	lr
 746              		.cfi_endproc
 747              	.LFE5362:
 749              		.section	.text._Z8CallbackPv,"ax",%progbits
 750              		.align	1
 751              		.p2align 2,,3
 752              		.global	_Z8CallbackPv
 753              		.syntax unified
 754              		.thumb
 755              		.thumb_func
 757              	_Z8CallbackPv:
 758              	.LVL43:
 759              	.LFB4861:
 453:main.cpp      **** }
 454:main.cpp      **** 
 455:main.cpp      **** /* Process sequencer requests */
 456:main.cpp      **** void Callback(void* data)
 457:main.cpp      **** {
 760              		.loc 13 457 1 is_stmt 1 view -0
 761              		.cfi_startproc
 762              		@ args = 0, pretend = 0, frame = 0
 763              		@ frame_needed = 0, uses_anonymous_args = 0
 764              		@ link register save eliminated.
 458:main.cpp      **** 	SequencerPlay(seqmode);
 765              		.loc 13 458 2 view .LVU196
 766              		.loc 13 458 15 is_stmt 0 view .LVU197
ARM GAS  /var/folders/kw/h2sg8jtn02b91cpsjc1nlpg80000gn/T//ccz3jKAs.s 			page 44


 767 0000 054B     		ldr	r3, .L55
 768 0002 1888     		ldrh	r0, [r3]
 769              	.LVL44:
 770              	.LBB365:
 771              	.LBI365:
 335:main.cpp      **** {
 772              		.loc 13 335 6 is_stmt 1 view .LVU198
 773              	.LBB366:
 337:main.cpp      **** 	{
 774              		.loc 13 337 2 view .LVU199
 775 0004 08B1     		cbz	r0, .L54
 776 0006 FFF7FEBF 		b	_Z13SequencerPlayt.part.0
 777              	.LVL45:
 778              	.L54:
 339:main.cpp      **** 		seqmem = 0x00010000;
 779              		.loc 13 339 3 view .LVU200
 339:main.cpp      **** 		seqmem = 0x00010000;
 780              		.loc 13 339 12 is_stmt 0 view .LVU201
 781 000a 0449     		ldr	r1, .L55+4
 340:main.cpp      **** 		return;
 782              		.loc 13 340 10 view .LVU202
 783 000c 4FF48032 		mov	r2, #65536
 784 0010 034B     		ldr	r3, .L55+8
 339:main.cpp      **** 		seqmem = 0x00010000;
 785              		.loc 13 339 12 view .LVU203
 786 0012 0880     		strh	r0, [r1]	@ movhi
 340:main.cpp      **** 		return;
 787              		.loc 13 340 3 is_stmt 1 view .LVU204
 340:main.cpp      **** 		return;
 788              		.loc 13 340 10 is_stmt 0 view .LVU205
 789 0014 1A60     		str	r2, [r3]
 341:main.cpp      **** 	}
 790              		.loc 13 341 3 is_stmt 1 view .LVU206
 791              	.LBE366:
 792              	.LBE365:
 459:main.cpp      **** }
 793              		.loc 13 459 1 is_stmt 0 view .LVU207
 794 0016 7047     		bx	lr
 795              	.L56:
 796              		.align	2
 797              	.L55:
 798 0018 00000000 		.word	.LANCHOR8
 799 001c 00000000 		.word	.LANCHOR4
 800 0020 00000000 		.word	.LANCHOR2
 801              		.cfi_endproc
 802              	.LFE4861:
 804              		.section	.text._ZN7VASynthC2Ev,"axG",%progbits,_ZN7VASynthC5Ev,comdat
 805              		.align	1
 806              		.p2align 2,,3
 807              		.weak	_ZN7VASynthC2Ev
 808              		.syntax unified
 809              		.thumb
 810              		.thumb_func
 812              	_ZN7VASynthC2Ev:
 813              	.LVL46:
 814              	.LFB4848:
  75:vasynth.h     ****     ~VASynth() {}
ARM GAS  /var/folders/kw/h2sg8jtn02b91cpsjc1nlpg80000gn/T//ccz3jKAs.s 			page 45


 815              		.loc 6 75 5 is_stmt 1 view -0
 816              		.cfi_startproc
 817              		@ args = 0, pretend = 0, frame = 0
 818              		@ frame_needed = 0, uses_anonymous_args = 0
 819              	.LBB367:
  75:vasynth.h     ****     ~VASynth() {}
 820              		.loc 6 75 15 view .LVU209
  75:vasynth.h     ****     ~VASynth() {}
 821              		.loc 6 75 15 view .LVU210
 822              	.LBB368:
 823              	.LBI368:
  23:../../DaisySP/Source/Synthesis/oscillator.h ****     ~Oscillator() {}
 824              		.loc 7 23 5 view .LVU211
  23:../../DaisySP/Source/Synthesis/oscillator.h ****     ~Oscillator() {}
 825              		.loc 7 23 5 is_stmt 0 view .LVU212
 826              	.LBE368:
 827              	.LBB369:
 828              	.LBI369:
  23:../../DaisySP/Source/Synthesis/oscillator.h ****     ~Oscillator() {}
 829              		.loc 7 23 5 is_stmt 1 view .LVU213
  23:../../DaisySP/Source/Synthesis/oscillator.h ****     ~Oscillator() {}
 830              		.loc 7 23 5 is_stmt 0 view .LVU214
 831              	.LBE369:
 832              	.LBB370:
 833              	.LBI370:
  23:../../DaisySP/Source/Synthesis/oscillator.h ****     ~Oscillator() {}
 834              		.loc 7 23 5 is_stmt 1 view .LVU215
  23:../../DaisySP/Source/Synthesis/oscillator.h ****     ~Oscillator() {}
 835              		.loc 7 23 5 is_stmt 0 view .LVU216
 836              	.LBE370:
 837              	.LBB371:
 838              	.LBI371:
  23:../../DaisySP/Source/Synthesis/oscillator.h ****     ~Oscillator() {}
 839              		.loc 7 23 5 is_stmt 1 view .LVU217
  23:../../DaisySP/Source/Synthesis/oscillator.h ****     ~Oscillator() {}
 840              		.loc 7 23 5 is_stmt 0 view .LVU218
 841              	.LBE371:
  75:vasynth.h     ****     ~VASynth() {}
 842              		.loc 6 75 15 is_stmt 1 view .LVU219
 843              	.LBE367:
  75:vasynth.h     ****     ~VASynth() {}
 844              		.loc 6 75 5 is_stmt 0 view .LVU220
 845 0000 00B5     		push	{lr}
 846              		.cfi_def_cfa_offset 4
 847              		.cfi_offset 14, -4
 848 0002 00F28443 		addw	r3, r0, #1156
 849 0006 00F2046E 		addw	lr, r0, #1540
 850              	.L58:
 851              	.LVL47:
 852              	.LBB382:
 853              	.LBB372:
 854              	.LBI372:
 855              		.file 14 "../../DaisySP/Source/Control/adsr.h"
   1:../../DaisySP/Source/Control/adsr.h **** /*
   2:../../DaisySP/Source/Control/adsr.h **** Copyright (c) 2020 Electrosmith, Corp, Paul Batchelor
   3:../../DaisySP/Source/Control/adsr.h **** 
   4:../../DaisySP/Source/Control/adsr.h **** Use of this source code is governed by an MIT-style
ARM GAS  /var/folders/kw/h2sg8jtn02b91cpsjc1nlpg80000gn/T//ccz3jKAs.s 			page 46


   5:../../DaisySP/Source/Control/adsr.h **** license that can be found in the LICENSE file or at
   6:../../DaisySP/Source/Control/adsr.h **** https://opensource.org/licenses/MIT.
   7:../../DaisySP/Source/Control/adsr.h **** */
   8:../../DaisySP/Source/Control/adsr.h **** 
   9:../../DaisySP/Source/Control/adsr.h **** #pragma once
  10:../../DaisySP/Source/Control/adsr.h **** #ifndef DSY_ADSR_H
  11:../../DaisySP/Source/Control/adsr.h **** #define DSY_ADSR_H
  12:../../DaisySP/Source/Control/adsr.h **** 
  13:../../DaisySP/Source/Control/adsr.h **** #include <stdint.h>
  14:../../DaisySP/Source/Control/adsr.h **** #ifdef __cplusplus
  15:../../DaisySP/Source/Control/adsr.h **** 
  16:../../DaisySP/Source/Control/adsr.h **** namespace daisysp
  17:../../DaisySP/Source/Control/adsr.h **** {
  18:../../DaisySP/Source/Control/adsr.h **** /** Distinct stages that the phase of the envelope can be located in.
  19:../../DaisySP/Source/Control/adsr.h **** - IDLE   = located at phase location 0, and not currently running
  20:../../DaisySP/Source/Control/adsr.h **** - ATTACK  = First segment of envelope where phase moves from 0 to 1
  21:../../DaisySP/Source/Control/adsr.h **** - DECAY   = Second segment of envelope where phase moves from 1 to SUSTAIN value
  22:../../DaisySP/Source/Control/adsr.h **** - RELEASE =     Fourth segment of envelop where phase moves from SUSTAIN to 0
  23:../../DaisySP/Source/Control/adsr.h **** */
  24:../../DaisySP/Source/Control/adsr.h **** enum
  25:../../DaisySP/Source/Control/adsr.h **** {
  26:../../DaisySP/Source/Control/adsr.h ****     ADSR_SEG_IDLE    = 0,
  27:../../DaisySP/Source/Control/adsr.h ****     ADSR_SEG_ATTACK  = 1,
  28:../../DaisySP/Source/Control/adsr.h ****     ADSR_SEG_DECAY   = 2,
  29:../../DaisySP/Source/Control/adsr.h ****     ADSR_SEG_RELEASE = 4
  30:../../DaisySP/Source/Control/adsr.h **** };
  31:../../DaisySP/Source/Control/adsr.h **** 
  32:../../DaisySP/Source/Control/adsr.h **** 
  33:../../DaisySP/Source/Control/adsr.h **** /** adsr envelope module
  34:../../DaisySP/Source/Control/adsr.h **** 
  35:../../DaisySP/Source/Control/adsr.h **** Original author(s) : Paul Batchelor
  36:../../DaisySP/Source/Control/adsr.h **** 
  37:../../DaisySP/Source/Control/adsr.h **** Ported from Soundpipe by Ben Sergentanis, May 2020
  38:../../DaisySP/Source/Control/adsr.h ****  
  39:../../DaisySP/Source/Control/adsr.h **** Remake by Steffan DIedrichsen, May 2021
  40:../../DaisySP/Source/Control/adsr.h **** */
  41:../../DaisySP/Source/Control/adsr.h **** class Adsr
  42:../../DaisySP/Source/Control/adsr.h **** {
  43:../../DaisySP/Source/Control/adsr.h ****   public:
  44:../../DaisySP/Source/Control/adsr.h ****     Adsr() {}
 856              		.loc 14 44 5 is_stmt 1 view .LVU221
 857              	.LBE372:
  75:vasynth.h     ****     ~VASynth() {}
 858              		.loc 6 75 15 is_stmt 0 view .LVU222
 859 000a 3033     		adds	r3, r3, #48
 860              	.LVL48:
 861              	.LBB375:
 862              	.LBB373:
 863              		.loc 14 44 12 view .LVU223
 864 000c 0022     		movs	r2, #0
 865 000e 2049     		ldr	r1, .L63
 866 0010 4FF0000C 		mov	ip, #0
 867              	.LBE373:
 868              	.LBE375:
  75:vasynth.h     ****     ~VASynth() {}
 869              		.loc 6 75 15 view .LVU224
 870 0014 7345     		cmp	r3, lr
ARM GAS  /var/folders/kw/h2sg8jtn02b91cpsjc1nlpg80000gn/T//ccz3jKAs.s 			page 47


 871              	.LBB376:
 872              	.LBB374:
 873              		.loc 14 44 12 view .LVU225
 874 0016 43F8302C 		str	r2, [r3, #-48]	@ float
 875 001a 43F82C2C 		str	r2, [r3, #-44]	@ float
 876 001e 43F8281C 		str	r1, [r3, #-40]	@ float
 877 0022 43F8242C 		str	r2, [r3, #-36]	@ float
 878 0026 43F8201C 		str	r1, [r3, #-32]	@ float
 879 002a 43F81C1C 		str	r1, [r3, #-28]	@ float
 880 002e 43F8181C 		str	r1, [r3, #-24]	@ float
 881 0032 43F8142C 		str	r2, [r3, #-20]	@ float
 882 0036 43F8102C 		str	r2, [r3, #-16]	@ float
 883 003a 43F80C2C 		str	r2, [r3, #-12]	@ float
 884 003e 03F804CC 		strb	ip, [r3, #-4]
 885 0042 03F803CC 		strb	ip, [r3, #-3]
 886              	.LVL49:
 887              		.loc 14 44 12 view .LVU226
 888              	.LBE374:
 889              	.LBE376:
  75:vasynth.h     ****     ~VASynth() {}
 890              		.loc 6 75 15 is_stmt 1 view .LVU227
  75:vasynth.h     ****     ~VASynth() {}
 891              		.loc 6 75 15 view .LVU228
 892 0046 E0D1     		bne	.L58
  75:vasynth.h     ****     ~VASynth() {}
 893              		.loc 6 75 15 discriminator 10 view .LVU229
 894 0048 00F2847E 		addw	lr, r0, #1924
 895              	.L59:
 896              	.LVL50:
 897              	.LBB377:
 898              	.LBI377:
 899              		.loc 14 44 5 view .LVU230
 900              	.LBE377:
  75:vasynth.h     ****     ~VASynth() {}
 901              		.loc 6 75 15 is_stmt 0 view .LVU231
 902 004c 3033     		adds	r3, r3, #48
 903              	.LVL51:
 904              	.LBB380:
 905              	.LBB378:
 906              		.loc 14 44 12 view .LVU232
 907 004e 0022     		movs	r2, #0
 908 0050 0F49     		ldr	r1, .L63
 909 0052 4FF0000C 		mov	ip, #0
 910              	.LBE378:
 911              	.LBE380:
  75:vasynth.h     ****     ~VASynth() {}
 912              		.loc 6 75 15 view .LVU233
 913 0056 7345     		cmp	r3, lr
 914              	.LBB381:
 915              	.LBB379:
 916              		.loc 14 44 12 view .LVU234
 917 0058 43F8302C 		str	r2, [r3, #-48]	@ float
 918 005c 43F82C2C 		str	r2, [r3, #-44]	@ float
 919 0060 43F8281C 		str	r1, [r3, #-40]	@ float
 920 0064 43F8242C 		str	r2, [r3, #-36]	@ float
 921 0068 43F8201C 		str	r1, [r3, #-32]	@ float
 922 006c 43F81C1C 		str	r1, [r3, #-28]	@ float
ARM GAS  /var/folders/kw/h2sg8jtn02b91cpsjc1nlpg80000gn/T//ccz3jKAs.s 			page 48


 923 0070 43F8181C 		str	r1, [r3, #-24]	@ float
 924 0074 43F8142C 		str	r2, [r3, #-20]	@ float
 925 0078 43F8102C 		str	r2, [r3, #-16]	@ float
 926 007c 43F80C2C 		str	r2, [r3, #-12]	@ float
 927 0080 03F804CC 		strb	ip, [r3, #-4]
 928 0084 03F803CC 		strb	ip, [r3, #-3]
 929              	.LVL52:
 930              		.loc 14 44 12 view .LVU235
 931              	.LBE379:
 932              	.LBE381:
  75:vasynth.h     ****     ~VASynth() {}
 933              		.loc 6 75 15 is_stmt 1 view .LVU236
  75:vasynth.h     ****     ~VASynth() {}
 934              		.loc 6 75 15 view .LVU237
 935 0088 E0D1     		bne	.L59
  75:vasynth.h     ****     ~VASynth() {}
 936              		.loc 6 75 15 discriminator 20 view .LVU238
 937              	.LBE382:
  75:vasynth.h     ****     ~VASynth() {}
 938              		.loc 6 75 16 is_stmt 0 discriminator 20 view .LVU239
 939 008a 5DF804FB 		ldr	pc, [sp], #4
 940              	.L64:
 941 008e 00BF     		.align	2
 942              	.L63:
 943 0090 000080BF 		.word	-1082130432
 944              		.cfi_endproc
 945              	.LFE4848:
 947              		.weak	_ZN7VASynthC1Ev
 948              		.thumb_set _ZN7VASynthC1Ev,_ZN7VASynthC2Ev
 949              		.section	.text._Z13SequencerPlayt,"ax",%progbits
 950              		.align	1
 951              		.p2align 2,,3
 952              		.global	_Z13SequencerPlayt
 953              		.syntax unified
 954              		.thumb
 955              		.thumb_func
 957              	_Z13SequencerPlayt:
 958              	.LVL53:
 959              	.LFB4855:
 336:main.cpp      **** 	if(modenum == 0)
 960              		.loc 13 336 1 is_stmt 1 view -0
 961              		.cfi_startproc
 962              		@ args = 0, pretend = 0, frame = 0
 963              		@ frame_needed = 0, uses_anonymous_args = 0
 964              		@ link register save eliminated.
 337:main.cpp      **** 	{
 965              		.loc 13 337 2 view .LVU241
 966 0000 0346     		mov	r3, r0
 967 0002 08B1     		cbz	r0, .L69
 968 0004 FFF7FEBF 		b	_Z13SequencerPlayt.part.0
 969              	.LVL54:
 970              	.L69:
 339:main.cpp      **** 		seqmem = 0x00010000;
 971              		.loc 13 339 3 view .LVU242
 339:main.cpp      **** 		seqmem = 0x00010000;
 972              		.loc 13 339 12 is_stmt 0 view .LVU243
 973 0008 0348     		ldr	r0, .L70
ARM GAS  /var/folders/kw/h2sg8jtn02b91cpsjc1nlpg80000gn/T//ccz3jKAs.s 			page 49


 974              	.LVL55:
 340:main.cpp      **** 		return;
 975              		.loc 13 340 10 view .LVU244
 976 000a 4FF48031 		mov	r1, #65536
 977 000e 034A     		ldr	r2, .L70+4
 339:main.cpp      **** 		seqmem = 0x00010000;
 978              		.loc 13 339 12 view .LVU245
 979 0010 0380     		strh	r3, [r0]	@ movhi
 340:main.cpp      **** 		return;
 980              		.loc 13 340 3 is_stmt 1 view .LVU246
 340:main.cpp      **** 		return;
 981              		.loc 13 340 10 is_stmt 0 view .LVU247
 982 0012 1160     		str	r1, [r2]
 341:main.cpp      **** 	}
 983              		.loc 13 341 3 is_stmt 1 view .LVU248
 391:main.cpp      **** 
 984              		.loc 13 391 1 is_stmt 0 view .LVU249
 985 0014 7047     		bx	lr
 986              	.L71:
 987 0016 00BF     		.align	2
 988              	.L70:
 989 0018 00000000 		.word	.LANCHOR4
 990 001c 00000000 		.word	.LANCHOR2
 991              		.cfi_endproc
 992              	.LFE4855:
 994              		.section	.text._Z15SequencerRecordhh,"ax",%progbits
 995              		.align	1
 996              		.p2align 2,,3
 997              		.global	_Z15SequencerRecordhh
 998              		.syntax unified
 999              		.thumb
 1000              		.thumb_func
 1002              	_Z15SequencerRecordhh:
 1003              	.LVL56:
 1004              	.LFB4856:
 394:main.cpp      **** 	/* Write the timestamp to SRAM */
 1005              		.loc 13 394 1 is_stmt 1 view -0
 1006              		.cfi_startproc
 1007              		@ args = 0, pretend = 0, frame = 0
 1008              		@ frame_needed = 0, uses_anonymous_args = 0
 1009              		@ link register save eliminated.
 396:main.cpp      **** 	seqmem++;
 1010              		.loc 13 396 2 view .LVU251
 396:main.cpp      **** 	seqmem++;
 1011              		.loc 13 396 15 is_stmt 0 view .LVU252
 1012 0000 134B     		ldr	r3, .L75
 394:main.cpp      **** 	/* Write the timestamp to SRAM */
 1013              		.loc 13 394 1 view .LVU253
 1014 0002 30B4     		push	{r4, r5}
 1015              		.cfi_def_cfa_offset 8
 1016              		.cfi_offset 4, -8
 1017              		.cfi_offset 5, -4
 396:main.cpp      **** 	seqmem++;
 1018              		.loc 13 396 15 view .LVU254
 1019 0004 1A68     		ldr	r2, [r3]
 1020 0006 134C     		ldr	r4, .L75+4
 1021              	.LBB383:
ARM GAS  /var/folders/kw/h2sg8jtn02b91cpsjc1nlpg80000gn/T//ccz3jKAs.s 			page 50


 1022              	.LBB384:
 442:main.cpp      **** }
 1023              		.loc 13 442 48 view .LVU255
 1024 0008 02F10055 		add	r5, r2, #536870912
 1025              	.LBE384:
 1026              	.LBE383:
 396:main.cpp      **** 	seqmem++;
 1027              		.loc 13 396 15 view .LVU256
 1028 000c B4F800C0 		ldrh	ip, [r4]
 1029              	.LVL57:
 1030              	.LBB386:
 1031              	.LBI383:
 439:main.cpp      **** {
 1032              		.loc 13 439 6 is_stmt 1 view .LVU257
 1033              	.LBB385:
 442:main.cpp      **** }
 1034              		.loc 13 442 3 view .LVU258
 442:main.cpp      **** }
 1035              		.loc 13 442 60 is_stmt 0 view .LVU259
 1036 0010 A5F800C0 		strh	ip, [r5]	@ movhi
 1037              	.LVL58:
 442:main.cpp      **** }
 1038              		.loc 13 442 60 view .LVU260
 1039              	.LBE385:
 1040              	.LBE386:
 397:main.cpp      **** 	seqmem++;
 1041              		.loc 13 397 2 is_stmt 1 view .LVU261
 398:main.cpp      **** 		
 1042              		.loc 13 398 2 view .LVU262
 398:main.cpp      **** 		
 1043              		.loc 13 398 8 is_stmt 0 view .LVU263
 1044 0014 951C     		adds	r5, r2, #2
 1045 0016 1D60     		str	r5, [r3]
 401:main.cpp      **** 	seqmem++;
 1046              		.loc 13 401 2 is_stmt 1 view .LVU264
 1047              	.LVL59:
 1048              	.LBB387:
 1049              	.LBI387:
 423:main.cpp      **** {
 1050              		.loc 13 423 6 view .LVU265
 1051              	.LBB388:
 426:main.cpp      **** }
 1052              		.loc 13 426 3 view .LVU266
 426:main.cpp      **** }
 1053              		.loc 13 426 47 is_stmt 0 view .LVU267
 1054 0018 0F4D     		ldr	r5, .L75+8
 1055              	.LVL60:
 426:main.cpp      **** }
 1056              		.loc 13 426 57 view .LVU268
 1057 001a 5055     		strb	r0, [r2, r5]
 1058              	.LVL61:
 426:main.cpp      **** }
 1059              		.loc 13 426 57 view .LVU269
 1060              	.LBE388:
 1061              	.LBE387:
 402:main.cpp      **** 		
 1062              		.loc 13 402 2 is_stmt 1 view .LVU270
ARM GAS  /var/folders/kw/h2sg8jtn02b91cpsjc1nlpg80000gn/T//ccz3jKAs.s 			page 51


 402:main.cpp      **** 		
 1063              		.loc 13 402 8 is_stmt 0 view .LVU271
 1064 001c 1A68     		ldr	r2, [r3]
 408:main.cpp      **** 	{
 1065              		.loc 13 408 2 view .LVU272
 1066 001e 0F4D     		ldr	r5, .L75+12
 402:main.cpp      **** 		
 1067              		.loc 13 402 8 view .LVU273
 1068 0020 501C     		adds	r0, r2, #1
 1069              	.LVL62:
 402:main.cpp      **** 		
 1070              		.loc 13 402 8 view .LVU274
 1071 0022 1860     		str	r0, [r3]
 405:main.cpp      **** 	seqmem++;
 1072              		.loc 13 405 2 is_stmt 1 view .LVU275
 1073              	.LVL63:
 1074              	.LBB389:
 1075              	.LBI389:
 423:main.cpp      **** {
 1076              		.loc 13 423 6 view .LVU276
 1077              	.LBB390:
 426:main.cpp      **** }
 1078              		.loc 13 426 3 view .LVU277
 426:main.cpp      **** }
 1079              		.loc 13 426 47 is_stmt 0 view .LVU278
 1080 0024 0E48     		ldr	r0, .L75+16
 1081              	.LVL64:
 426:main.cpp      **** }
 1082              		.loc 13 426 57 view .LVU279
 1083 0026 1154     		strb	r1, [r2, r0]
 1084              	.LVL65:
 426:main.cpp      **** }
 1085              		.loc 13 426 57 view .LVU280
 1086              	.LBE390:
 1087              	.LBE389:
 406:main.cpp      **** 	
 1088              		.loc 13 406 2 is_stmt 1 view .LVU281
 406:main.cpp      **** 	
 1089              		.loc 13 406 8 is_stmt 0 view .LVU282
 1090 0028 1A68     		ldr	r2, [r3]
 1091 002a 511C     		adds	r1, r2, #1
 1092              	.LVL66:
 408:main.cpp      **** 	{
 1093              		.loc 13 408 2 view .LVU283
 1094 002c A942     		cmp	r1, r5
 406:main.cpp      **** 	
 1095              		.loc 13 406 8 view .LVU284
 1096 002e 1960     		str	r1, [r3]
 408:main.cpp      **** 	{
 1097              		.loc 13 408 2 is_stmt 1 view .LVU285
 1098 0030 0CD9     		bls	.L72
 412:main.cpp      **** 		seqmem++;
 1099              		.loc 13 412 3 view .LVU286
 412:main.cpp      **** 		seqmem++;
 1100              		.loc 13 412 16 is_stmt 0 view .LVU287
 1101 0032 2188     		ldrh	r1, [r4]
 1102              	.LVL67:
ARM GAS  /var/folders/kw/h2sg8jtn02b91cpsjc1nlpg80000gn/T//ccz3jKAs.s 			page 52


 1103              	.LBB391:
 1104              	.LBI391:
 439:main.cpp      **** {
 1105              		.loc 13 439 6 is_stmt 1 view .LVU288
 1106              	.LBB392:
 442:main.cpp      **** }
 1107              		.loc 13 442 3 view .LVU289
 442:main.cpp      **** }
 1108              		.loc 13 442 60 is_stmt 0 view .LVU290
 1109 0034 1152     		strh	r1, [r2, r0]	@ movhi
 1110              	.LVL68:
 442:main.cpp      **** }
 1111              		.loc 13 442 60 view .LVU291
 1112              	.LBE392:
 1113              	.LBE391:
 413:main.cpp      **** 		seqmem++;
 1114              		.loc 13 413 3 is_stmt 1 view .LVU292
 414:main.cpp      **** 		writeSramWord(seqmem, 0xFFFF);
 1115              		.loc 13 414 3 view .LVU293
 415:main.cpp      **** 		seqmode = 0;
 1116              		.loc 13 415 3 view .LVU294
 1117              	.LBB393:
 1118              	.LBI393:
 439:main.cpp      **** {
 1119              		.loc 13 439 6 view .LVU295
 1120              	.LBB394:
 442:main.cpp      **** }
 1121              		.loc 13 442 3 view .LVU296
 442:main.cpp      **** }
 1122              		.loc 13 442 60 is_stmt 0 view .LVU297
 1123 0036 4FF6FF70 		movw	r0, #65535
 442:main.cpp      **** }
 1124              		.loc 13 442 48 view .LVU298
 1125 003a 0A49     		ldr	r1, .L75+20
 442:main.cpp      **** }
 1126              		.loc 13 442 60 view .LVU299
 1127 003c 5052     		strh	r0, [r2, r1]	@ movhi
 1128              	.LVL69:
 442:main.cpp      **** }
 1129              		.loc 13 442 60 view .LVU300
 1130              	.LBE394:
 1131              	.LBE393:
 416:main.cpp      **** 		seqclock = 0;
 1132              		.loc 13 416 3 is_stmt 1 view .LVU301
 416:main.cpp      **** 		seqclock = 0;
 1133              		.loc 13 416 11 is_stmt 0 view .LVU302
 1134 003e 0022     		movs	r2, #0
 1135 0040 0948     		ldr	r0, .L75+24
 418:main.cpp      **** 	}
 1136              		.loc 13 418 10 view .LVU303
 1137 0042 4FF48031 		mov	r1, #65536
 417:main.cpp      **** 		seqmem = 0x00010000;
 1138              		.loc 13 417 12 view .LVU304
 1139 0046 2280     		strh	r2, [r4]	@ movhi
 416:main.cpp      **** 		seqclock = 0;
 1140              		.loc 13 416 11 view .LVU305
 1141 0048 0280     		strh	r2, [r0]	@ movhi
ARM GAS  /var/folders/kw/h2sg8jtn02b91cpsjc1nlpg80000gn/T//ccz3jKAs.s 			page 53


 417:main.cpp      **** 		seqmem = 0x00010000;
 1142              		.loc 13 417 3 is_stmt 1 view .LVU306
 418:main.cpp      **** 	}
 1143              		.loc 13 418 3 view .LVU307
 418:main.cpp      **** 	}
 1144              		.loc 13 418 10 is_stmt 0 view .LVU308
 1145 004a 1960     		str	r1, [r3]
 1146              	.L72:
 420:main.cpp      **** 
 1147              		.loc 13 420 2 view .LVU309
 1148 004c 30BC     		pop	{r4, r5}
 1149              		.cfi_restore 5
 1150              		.cfi_restore 4
 1151              		.cfi_def_cfa_offset 0
 1152 004e 7047     		bx	lr
 1153              	.L76:
 1154              		.align	2
 1155              	.L75:
 1156 0050 00000000 		.word	.LANCHOR2
 1157 0054 00000000 		.word	.LANCHOR4
 1158 0058 02000020 		.word	536870914
 1159 005c F8FF0700 		.word	524280
 1160 0060 01000020 		.word	536870913
 1161 0064 03000020 		.word	536870915
 1162 0068 00000000 		.word	.LANCHOR8
 1163              		.cfi_endproc
 1164              	.LFE4856:
 1166              		.section	.text._Z17HandleMidiMessageN5daisy9MidiEventE,"ax",%progbits
 1167              		.align	1
 1168              		.p2align 2,,3
 1169              		.global	_Z17HandleMidiMessageN5daisy9MidiEventE
 1170              		.syntax unified
 1171              		.thumb
 1172              		.thumb_func
 1174              	_Z17HandleMidiMessageN5daisy9MidiEventE:
 1175              	.LFB4854:
  72:main.cpp      ****     switch(m.type)
 1176              		.loc 13 72 1 is_stmt 1 view -0
 1177              		.cfi_startproc
 1178              		@ args = 144, pretend = 16, frame = 8
 1179              		@ frame_needed = 0, uses_anonymous_args = 0
 1180 0000 84B0     		sub	sp, sp, #16
 1181              		.cfi_def_cfa_offset 16
 1182 0002 F0B5     		push	{r4, r5, r6, r7, lr}
 1183              		.cfi_def_cfa_offset 36
 1184              		.cfi_offset 4, -36
 1185              		.cfi_offset 5, -32
 1186              		.cfi_offset 6, -28
 1187              		.cfi_offset 7, -24
 1188              		.cfi_offset 14, -20
 1189 0004 83B0     		sub	sp, sp, #12
 1190              		.cfi_def_cfa_offset 48
  72:main.cpp      ****     switch(m.type)
 1191              		.loc 13 72 1 is_stmt 0 view .LVU311
 1192 0006 08AC     		add	r4, sp, #32
 1193 0008 84E80F00 		stm	r4, {r0, r1, r2, r3}
 1194              	.LBB395:
ARM GAS  /var/folders/kw/h2sg8jtn02b91cpsjc1nlpg80000gn/T//ccz3jKAs.s 			page 54


  73:main.cpp      ****     {
 1195              		.loc 13 73 5 view .LVU312
 1196 000c 9DF82030 		ldrb	r3, [sp, #32]	@ zero_extendqisi2
 1197              	.LVL70:
  73:main.cpp      ****     {
 1198              		.loc 13 73 5 view .LVU313
 1199 0010 9DF82840 		ldrb	r4, [sp, #40]	@ zero_extendqisi2
 1200              	.LVL71:
  73:main.cpp      ****     {
 1201              		.loc 13 73 5 view .LVU314
 1202 0014 9DF82920 		ldrb	r2, [sp, #41]	@ zero_extendqisi2
 1203              	.LVL72:
  73:main.cpp      ****     {
 1204              		.loc 13 73 5 view .LVU315
 1205              	.LBE395:
  73:main.cpp      ****     {
 1206              		.loc 13 73 5 is_stmt 1 view .LVU316
 1207              	.LBB433:
 1208 0018 062B     		cmp	r3, #6
 1209 001a 0CD8     		bhi	.L77
 1210 001c DFE803F0 		tbb	[pc, r3]
 1211              	.L80:
 1212 0020 41       		.byte	(.L83-.L80)/2
 1213 0021 04       		.byte	(.L82-.L80)/2
 1214 0022 0B       		.byte	(.L77-.L80)/2
 1215 0023 23       		.byte	(.L81-.L80)/2
 1216 0024 0B       		.byte	(.L77-.L80)/2
 1217 0025 0B       		.byte	(.L77-.L80)/2
 1218 0026 10       		.byte	(.L79-.L80)/2
 1219 0027 00       		.p2align 1
 1220              	.L82:
 1221              	.LBE433:
  75:main.cpp      ****         {
 1222              		.loc 13 75 9 view .LVU317
  76:main.cpp      ****             NoteOnEvent p = m.AsNoteOn();
 1223              		.loc 13 76 9 view .LVU318
 1224              	.LBB434:
 1225              	.LBB396:
  77:main.cpp      ****             if ((vasynth.midi_channel_ == MIDI_CHANNEL_ALL) || (p.channel == vasynth.midi_channel_)
 1226              		.loc 13 77 13 view .LVU319
 1227              	.LVL73:
 1228              	.LBB397:
 1229              	.LBI397:
 1230              		.file 15 "../../libDaisy/src/hid/MidiEvent.h"
   1:../../libDaisy/src/hid/MidiEvent.h **** // TODO: make this adjustable
   2:../../libDaisy/src/hid/MidiEvent.h **** #define SYSEX_BUFFER_LEN 128
   3:../../libDaisy/src/hid/MidiEvent.h **** 
   4:../../libDaisy/src/hid/MidiEvent.h **** namespace daisy
   5:../../libDaisy/src/hid/MidiEvent.h **** {
   6:../../libDaisy/src/hid/MidiEvent.h **** /** @addtogroup midi MIDI
   7:../../libDaisy/src/hid/MidiEvent.h ****  *  @ingroup human_interface
   8:../../libDaisy/src/hid/MidiEvent.h ****  *  @ingroup libdaisy
   9:../../libDaisy/src/hid/MidiEvent.h ****  *  @brief MIDI handlers, transports, and message types
  10:../../libDaisy/src/hid/MidiEvent.h ****  *  @{
  11:../../libDaisy/src/hid/MidiEvent.h ****  */
  12:../../libDaisy/src/hid/MidiEvent.h **** 
  13:../../libDaisy/src/hid/MidiEvent.h **** /** @defgroup midi_events MIDI_EVENTS
ARM GAS  /var/folders/kw/h2sg8jtn02b91cpsjc1nlpg80000gn/T//ccz3jKAs.s 			page 55


  14:../../libDaisy/src/hid/MidiEvent.h ****  *  @{
  15:../../libDaisy/src/hid/MidiEvent.h **** */
  16:../../libDaisy/src/hid/MidiEvent.h **** 
  17:../../libDaisy/src/hid/MidiEvent.h **** /** Parsed from the Status Byte, these are the common Midi Messages that can be handled. \n
  18:../../libDaisy/src/hid/MidiEvent.h **** At this time only 3-byte messages are correctly parsed into MidiEvents.
  19:../../libDaisy/src/hid/MidiEvent.h **** */
  20:../../libDaisy/src/hid/MidiEvent.h **** enum MidiMessageType
  21:../../libDaisy/src/hid/MidiEvent.h **** {
  22:../../libDaisy/src/hid/MidiEvent.h ****     NoteOff,               /**< & */
  23:../../libDaisy/src/hid/MidiEvent.h ****     NoteOn,                /**< & */
  24:../../libDaisy/src/hid/MidiEvent.h ****     PolyphonicKeyPressure, /**< & */
  25:../../libDaisy/src/hid/MidiEvent.h ****     ControlChange,         /**< & */
  26:../../libDaisy/src/hid/MidiEvent.h ****     ProgramChange,         /**< & */
  27:../../libDaisy/src/hid/MidiEvent.h ****     ChannelPressure,       /**< & */
  28:../../libDaisy/src/hid/MidiEvent.h ****     PitchBend,             /**< & */
  29:../../libDaisy/src/hid/MidiEvent.h ****     SystemCommon,          /**< & */
  30:../../libDaisy/src/hid/MidiEvent.h ****     SystemRealTime,        /**< & */
  31:../../libDaisy/src/hid/MidiEvent.h ****     ChannelMode,           /**< & */
  32:../../libDaisy/src/hid/MidiEvent.h ****     MessageLast,           /**< & */
  33:../../libDaisy/src/hid/MidiEvent.h **** };
  34:../../libDaisy/src/hid/MidiEvent.h **** 
  35:../../libDaisy/src/hid/MidiEvent.h **** enum SystemCommonType
  36:../../libDaisy/src/hid/MidiEvent.h **** {
  37:../../libDaisy/src/hid/MidiEvent.h ****     SystemExclusive,     /**< & */
  38:../../libDaisy/src/hid/MidiEvent.h ****     MTCQuarterFrame,     /**< & */
  39:../../libDaisy/src/hid/MidiEvent.h ****     SongPositionPointer, /**< & */
  40:../../libDaisy/src/hid/MidiEvent.h ****     SongSelect,          /**< & */
  41:../../libDaisy/src/hid/MidiEvent.h ****     SCUndefined0,        /**< & */
  42:../../libDaisy/src/hid/MidiEvent.h ****     SCUndefined1,        /**< & */
  43:../../libDaisy/src/hid/MidiEvent.h ****     TuneRequest,         /**< & */
  44:../../libDaisy/src/hid/MidiEvent.h ****     SysExEnd,            /**< & */
  45:../../libDaisy/src/hid/MidiEvent.h ****     SystemCommonLast,    /**< & */
  46:../../libDaisy/src/hid/MidiEvent.h **** };
  47:../../libDaisy/src/hid/MidiEvent.h **** 
  48:../../libDaisy/src/hid/MidiEvent.h **** enum SystemRealTimeType
  49:../../libDaisy/src/hid/MidiEvent.h **** {
  50:../../libDaisy/src/hid/MidiEvent.h ****     TimingClock,        /**< & */
  51:../../libDaisy/src/hid/MidiEvent.h ****     SRTUndefined0,      /**< & */
  52:../../libDaisy/src/hid/MidiEvent.h ****     Start,              /**< & */
  53:../../libDaisy/src/hid/MidiEvent.h ****     Continue,           /**< & */
  54:../../libDaisy/src/hid/MidiEvent.h ****     Stop,               /**< & */
  55:../../libDaisy/src/hid/MidiEvent.h ****     SRTUndefined1,      /**< & */
  56:../../libDaisy/src/hid/MidiEvent.h ****     ActiveSensing,      /**< & */
  57:../../libDaisy/src/hid/MidiEvent.h ****     Reset,              /**< & */
  58:../../libDaisy/src/hid/MidiEvent.h ****     SystemRealTimeLast, /**< & */
  59:../../libDaisy/src/hid/MidiEvent.h **** };
  60:../../libDaisy/src/hid/MidiEvent.h **** 
  61:../../libDaisy/src/hid/MidiEvent.h **** enum ChannelModeType
  62:../../libDaisy/src/hid/MidiEvent.h **** {
  63:../../libDaisy/src/hid/MidiEvent.h ****     AllSoundOff,         /**< & */
  64:../../libDaisy/src/hid/MidiEvent.h ****     ResetAllControllers, /**< & */
  65:../../libDaisy/src/hid/MidiEvent.h ****     LocalControl,        /**< & */
  66:../../libDaisy/src/hid/MidiEvent.h ****     AllNotesOff,         /**< & */
  67:../../libDaisy/src/hid/MidiEvent.h ****     OmniModeOff,         /**< & */
  68:../../libDaisy/src/hid/MidiEvent.h ****     OmniModeOn,          /**< & */
  69:../../libDaisy/src/hid/MidiEvent.h ****     MonoModeOn,          /**< & */
  70:../../libDaisy/src/hid/MidiEvent.h ****     PolyModeOn,          /**< & */
ARM GAS  /var/folders/kw/h2sg8jtn02b91cpsjc1nlpg80000gn/T//ccz3jKAs.s 			page 56


  71:../../libDaisy/src/hid/MidiEvent.h ****     ChannelModeLast,     /**< & */
  72:../../libDaisy/src/hid/MidiEvent.h **** };
  73:../../libDaisy/src/hid/MidiEvent.h **** 
  74:../../libDaisy/src/hid/MidiEvent.h **** /** Struct containing note, and velocity data for a given channel.
  75:../../libDaisy/src/hid/MidiEvent.h **** Can be made from MidiEvent
  76:../../libDaisy/src/hid/MidiEvent.h **** */
  77:../../libDaisy/src/hid/MidiEvent.h **** struct NoteOffEvent
  78:../../libDaisy/src/hid/MidiEvent.h **** {
  79:../../libDaisy/src/hid/MidiEvent.h ****     int     channel;  /**< & */
  80:../../libDaisy/src/hid/MidiEvent.h ****     uint8_t note;     /**< & */
  81:../../libDaisy/src/hid/MidiEvent.h ****     uint8_t velocity; /**< & */
  82:../../libDaisy/src/hid/MidiEvent.h **** };
  83:../../libDaisy/src/hid/MidiEvent.h **** 
  84:../../libDaisy/src/hid/MidiEvent.h **** 
  85:../../libDaisy/src/hid/MidiEvent.h **** /** Struct containing note, and velocity data for a given channel.
  86:../../libDaisy/src/hid/MidiEvent.h **** Can be made from MidiEvent
  87:../../libDaisy/src/hid/MidiEvent.h **** */
  88:../../libDaisy/src/hid/MidiEvent.h **** struct NoteOnEvent
  89:../../libDaisy/src/hid/MidiEvent.h **** {
  90:../../libDaisy/src/hid/MidiEvent.h ****     int     channel;  /**< & */
  91:../../libDaisy/src/hid/MidiEvent.h ****     uint8_t note;     /**< & */
  92:../../libDaisy/src/hid/MidiEvent.h ****     uint8_t velocity; /**< & */
  93:../../libDaisy/src/hid/MidiEvent.h **** };
  94:../../libDaisy/src/hid/MidiEvent.h **** /** Struct containing note, and pressure data for a given channel.
  95:../../libDaisy/src/hid/MidiEvent.h **** Can be made from MidiEvent
  96:../../libDaisy/src/hid/MidiEvent.h **** */
  97:../../libDaisy/src/hid/MidiEvent.h **** struct PolyphonicKeyPressureEvent
  98:../../libDaisy/src/hid/MidiEvent.h **** {
  99:../../libDaisy/src/hid/MidiEvent.h ****     int     channel;
 100:../../libDaisy/src/hid/MidiEvent.h ****     uint8_t note;
 101:../../libDaisy/src/hid/MidiEvent.h ****     uint8_t pressure;
 102:../../libDaisy/src/hid/MidiEvent.h **** };
 103:../../libDaisy/src/hid/MidiEvent.h **** /** Struct containing control number, and value for a given channel.
 104:../../libDaisy/src/hid/MidiEvent.h **** Can be made from MidiEvent
 105:../../libDaisy/src/hid/MidiEvent.h **** */
 106:../../libDaisy/src/hid/MidiEvent.h **** struct ControlChangeEvent
 107:../../libDaisy/src/hid/MidiEvent.h **** {
 108:../../libDaisy/src/hid/MidiEvent.h ****     int     channel;        /**< & */
 109:../../libDaisy/src/hid/MidiEvent.h ****     uint8_t control_number; /**< & */
 110:../../libDaisy/src/hid/MidiEvent.h ****     uint8_t value;          /**< & */
 111:../../libDaisy/src/hid/MidiEvent.h **** };
 112:../../libDaisy/src/hid/MidiEvent.h **** /** Struct containing new program number, for a given channel.
 113:../../libDaisy/src/hid/MidiEvent.h **** Can be made from MidiEvent
 114:../../libDaisy/src/hid/MidiEvent.h **** */
 115:../../libDaisy/src/hid/MidiEvent.h **** struct ProgramChangeEvent
 116:../../libDaisy/src/hid/MidiEvent.h **** {
 117:../../libDaisy/src/hid/MidiEvent.h ****     int     channel; /**< & */
 118:../../libDaisy/src/hid/MidiEvent.h ****     uint8_t program; /**< & */
 119:../../libDaisy/src/hid/MidiEvent.h **** };
 120:../../libDaisy/src/hid/MidiEvent.h **** /** Struct containing pressure (aftertouch), for a given channel.
 121:../../libDaisy/src/hid/MidiEvent.h **** Can be made from MidiEvent
 122:../../libDaisy/src/hid/MidiEvent.h **** */
 123:../../libDaisy/src/hid/MidiEvent.h **** struct ChannelPressureEvent
 124:../../libDaisy/src/hid/MidiEvent.h **** {
 125:../../libDaisy/src/hid/MidiEvent.h ****     int     channel;  /**< & */
 126:../../libDaisy/src/hid/MidiEvent.h ****     uint8_t pressure; /**< & */
 127:../../libDaisy/src/hid/MidiEvent.h **** };
ARM GAS  /var/folders/kw/h2sg8jtn02b91cpsjc1nlpg80000gn/T//ccz3jKAs.s 			page 57


 128:../../libDaisy/src/hid/MidiEvent.h **** /** Struct containing pitch bend value for a given channel.
 129:../../libDaisy/src/hid/MidiEvent.h **** Can be made from MidiEvent
 130:../../libDaisy/src/hid/MidiEvent.h **** */
 131:../../libDaisy/src/hid/MidiEvent.h **** struct PitchBendEvent
 132:../../libDaisy/src/hid/MidiEvent.h **** {
 133:../../libDaisy/src/hid/MidiEvent.h ****     int     channel; /**< & */
 134:../../libDaisy/src/hid/MidiEvent.h ****     int16_t value;   /**< & */
 135:../../libDaisy/src/hid/MidiEvent.h **** };
 136:../../libDaisy/src/hid/MidiEvent.h **** /** Struct containing channel mode event for a given channel.
 137:../../libDaisy/src/hid/MidiEvent.h **** Can be made from MidiEvent
 138:../../libDaisy/src/hid/MidiEvent.h **** */
 139:../../libDaisy/src/hid/MidiEvent.h **** struct ChannelModeEvent
 140:../../libDaisy/src/hid/MidiEvent.h **** {
 141:../../libDaisy/src/hid/MidiEvent.h ****     int             channel;    /**< & */
 142:../../libDaisy/src/hid/MidiEvent.h ****     ChannelModeType event_type; /**< & */
 143:../../libDaisy/src/hid/MidiEvent.h ****     int16_t         value;      /**< & */
 144:../../libDaisy/src/hid/MidiEvent.h **** };
 145:../../libDaisy/src/hid/MidiEvent.h **** /** Struct containing sysex data.
 146:../../libDaisy/src/hid/MidiEvent.h **** Can be made from MidiEvent
 147:../../libDaisy/src/hid/MidiEvent.h **** */
 148:../../libDaisy/src/hid/MidiEvent.h **** struct SystemExclusiveEvent
 149:../../libDaisy/src/hid/MidiEvent.h **** {
 150:../../libDaisy/src/hid/MidiEvent.h ****     int     length;
 151:../../libDaisy/src/hid/MidiEvent.h ****     uint8_t data[SYSEX_BUFFER_LEN]; /**< & */
 152:../../libDaisy/src/hid/MidiEvent.h **** };
 153:../../libDaisy/src/hid/MidiEvent.h **** /** Struct containing QuarterFrame data.
 154:../../libDaisy/src/hid/MidiEvent.h **** Can be made from MidiEvent
 155:../../libDaisy/src/hid/MidiEvent.h **** */
 156:../../libDaisy/src/hid/MidiEvent.h **** struct MTCQuarterFrameEvent
 157:../../libDaisy/src/hid/MidiEvent.h **** {
 158:../../libDaisy/src/hid/MidiEvent.h ****     uint8_t message_type; /**< & */
 159:../../libDaisy/src/hid/MidiEvent.h ****     uint8_t value;        /**< & */
 160:../../libDaisy/src/hid/MidiEvent.h **** };
 161:../../libDaisy/src/hid/MidiEvent.h **** /** Struct containing song position data.
 162:../../libDaisy/src/hid/MidiEvent.h **** Can be made from MidiEvent
 163:../../libDaisy/src/hid/MidiEvent.h **** */
 164:../../libDaisy/src/hid/MidiEvent.h **** struct SongPositionPointerEvent
 165:../../libDaisy/src/hid/MidiEvent.h **** {
 166:../../libDaisy/src/hid/MidiEvent.h ****     uint16_t position; /**< & */
 167:../../libDaisy/src/hid/MidiEvent.h **** };
 168:../../libDaisy/src/hid/MidiEvent.h **** /** Struct containing song select data.
 169:../../libDaisy/src/hid/MidiEvent.h **** Can be made from MidiEvent
 170:../../libDaisy/src/hid/MidiEvent.h **** */
 171:../../libDaisy/src/hid/MidiEvent.h **** struct SongSelectEvent
 172:../../libDaisy/src/hid/MidiEvent.h **** {
 173:../../libDaisy/src/hid/MidiEvent.h ****     uint8_t song; /**< & */
 174:../../libDaisy/src/hid/MidiEvent.h **** };
 175:../../libDaisy/src/hid/MidiEvent.h **** /** Struct containing sound off data.
 176:../../libDaisy/src/hid/MidiEvent.h **** Can be made from MidiEvent
 177:../../libDaisy/src/hid/MidiEvent.h **** */
 178:../../libDaisy/src/hid/MidiEvent.h **** struct AllSoundOffEvent
 179:../../libDaisy/src/hid/MidiEvent.h **** {
 180:../../libDaisy/src/hid/MidiEvent.h ****     int channel; /**< & */
 181:../../libDaisy/src/hid/MidiEvent.h **** };
 182:../../libDaisy/src/hid/MidiEvent.h **** /** Struct containing ResetAllControllersEvent data.
 183:../../libDaisy/src/hid/MidiEvent.h **** Can be made from MidiEvent
 184:../../libDaisy/src/hid/MidiEvent.h **** */
ARM GAS  /var/folders/kw/h2sg8jtn02b91cpsjc1nlpg80000gn/T//ccz3jKAs.s 			page 58


 185:../../libDaisy/src/hid/MidiEvent.h **** struct ResetAllControllersEvent
 186:../../libDaisy/src/hid/MidiEvent.h **** {
 187:../../libDaisy/src/hid/MidiEvent.h ****     int     channel; /**< & */
 188:../../libDaisy/src/hid/MidiEvent.h ****     uint8_t value;   /**< & */
 189:../../libDaisy/src/hid/MidiEvent.h **** };
 190:../../libDaisy/src/hid/MidiEvent.h **** /** Struct containing LocalControlEvent data.
 191:../../libDaisy/src/hid/MidiEvent.h **** Can be made from MidiEvent
 192:../../libDaisy/src/hid/MidiEvent.h **** */
 193:../../libDaisy/src/hid/MidiEvent.h **** struct LocalControlEvent
 194:../../libDaisy/src/hid/MidiEvent.h **** {
 195:../../libDaisy/src/hid/MidiEvent.h ****     int  channel;           /**< & */
 196:../../libDaisy/src/hid/MidiEvent.h ****     bool local_control_off; /**< & */
 197:../../libDaisy/src/hid/MidiEvent.h ****     bool local_control_on;  /**< & */
 198:../../libDaisy/src/hid/MidiEvent.h **** };
 199:../../libDaisy/src/hid/MidiEvent.h **** /** Struct containing AllNotesOffEvent data.
 200:../../libDaisy/src/hid/MidiEvent.h **** Can be made from MidiEvent
 201:../../libDaisy/src/hid/MidiEvent.h **** */
 202:../../libDaisy/src/hid/MidiEvent.h **** struct AllNotesOffEvent
 203:../../libDaisy/src/hid/MidiEvent.h **** {
 204:../../libDaisy/src/hid/MidiEvent.h ****     int channel; /**< & */
 205:../../libDaisy/src/hid/MidiEvent.h **** };
 206:../../libDaisy/src/hid/MidiEvent.h **** /** Struct containing OmniModeOffEvent data.
 207:../../libDaisy/src/hid/MidiEvent.h ****  * Can be made from MidiEvent
 208:../../libDaisy/src/hid/MidiEvent.h **** */
 209:../../libDaisy/src/hid/MidiEvent.h **** struct OmniModeOffEvent
 210:../../libDaisy/src/hid/MidiEvent.h **** {
 211:../../libDaisy/src/hid/MidiEvent.h ****     int channel; /**< & */
 212:../../libDaisy/src/hid/MidiEvent.h **** };
 213:../../libDaisy/src/hid/MidiEvent.h **** /** Struct containing OmniModeOnEvent data.
 214:../../libDaisy/src/hid/MidiEvent.h **** Can be made from MidiEvent
 215:../../libDaisy/src/hid/MidiEvent.h **** */
 216:../../libDaisy/src/hid/MidiEvent.h **** struct OmniModeOnEvent
 217:../../libDaisy/src/hid/MidiEvent.h **** {
 218:../../libDaisy/src/hid/MidiEvent.h ****     int channel; /**< & */
 219:../../libDaisy/src/hid/MidiEvent.h **** };
 220:../../libDaisy/src/hid/MidiEvent.h **** /** Struct containing MonoModeOnEvent data.
 221:../../libDaisy/src/hid/MidiEvent.h **** Can be made from MidiEvent
 222:../../libDaisy/src/hid/MidiEvent.h **** */
 223:../../libDaisy/src/hid/MidiEvent.h **** struct MonoModeOnEvent
 224:../../libDaisy/src/hid/MidiEvent.h **** {
 225:../../libDaisy/src/hid/MidiEvent.h ****     int     channel;      /**< & */
 226:../../libDaisy/src/hid/MidiEvent.h ****     uint8_t num_channels; /**< & */
 227:../../libDaisy/src/hid/MidiEvent.h **** };
 228:../../libDaisy/src/hid/MidiEvent.h **** /** Struct containing PolyModeOnEvent data.
 229:../../libDaisy/src/hid/MidiEvent.h **** Can be made from MidiEvent
 230:../../libDaisy/src/hid/MidiEvent.h **** */
 231:../../libDaisy/src/hid/MidiEvent.h **** struct PolyModeOnEvent
 232:../../libDaisy/src/hid/MidiEvent.h **** {
 233:../../libDaisy/src/hid/MidiEvent.h ****     int channel; /**< & */
 234:../../libDaisy/src/hid/MidiEvent.h **** };
 235:../../libDaisy/src/hid/MidiEvent.h **** 
 236:../../libDaisy/src/hid/MidiEvent.h **** 
 237:../../libDaisy/src/hid/MidiEvent.h **** /** Simple MidiEvent with message type, channel, and data[2] members.
 238:../../libDaisy/src/hid/MidiEvent.h **** */
 239:../../libDaisy/src/hid/MidiEvent.h **** struct MidiEvent
 240:../../libDaisy/src/hid/MidiEvent.h **** {
 241:../../libDaisy/src/hid/MidiEvent.h ****     // Newer ish.
ARM GAS  /var/folders/kw/h2sg8jtn02b91cpsjc1nlpg80000gn/T//ccz3jKAs.s 			page 59


 242:../../libDaisy/src/hid/MidiEvent.h ****     MidiMessageType    type;                         /**< & */
 243:../../libDaisy/src/hid/MidiEvent.h ****     int                channel;                      /**< & */
 244:../../libDaisy/src/hid/MidiEvent.h ****     uint8_t            data[2];                      /**< & */
 245:../../libDaisy/src/hid/MidiEvent.h ****     uint8_t            sysex_data[SYSEX_BUFFER_LEN]; /**< & */
 246:../../libDaisy/src/hid/MidiEvent.h ****     uint8_t            sysex_message_len;
 247:../../libDaisy/src/hid/MidiEvent.h ****     SystemCommonType   sc_type;
 248:../../libDaisy/src/hid/MidiEvent.h ****     SystemRealTimeType srt_type;
 249:../../libDaisy/src/hid/MidiEvent.h ****     ChannelModeType    cm_type;
 250:../../libDaisy/src/hid/MidiEvent.h **** 
 251:../../libDaisy/src/hid/MidiEvent.h ****     /** Returns the data within the MidiEvent as a NoteOffEvent struct */
 252:../../libDaisy/src/hid/MidiEvent.h ****     NoteOffEvent AsNoteOff()
 253:../../libDaisy/src/hid/MidiEvent.h ****     {
 254:../../libDaisy/src/hid/MidiEvent.h ****         NoteOffEvent m;
 255:../../libDaisy/src/hid/MidiEvent.h ****         m.channel  = channel;
 256:../../libDaisy/src/hid/MidiEvent.h ****         m.note     = data[0];
 257:../../libDaisy/src/hid/MidiEvent.h ****         m.velocity = data[1];
 258:../../libDaisy/src/hid/MidiEvent.h ****         return m;
 259:../../libDaisy/src/hid/MidiEvent.h ****     }
 260:../../libDaisy/src/hid/MidiEvent.h **** 
 261:../../libDaisy/src/hid/MidiEvent.h ****     /** Returns the data within the MidiEvent as a NoteOnEvent struct */
 262:../../libDaisy/src/hid/MidiEvent.h ****     NoteOnEvent AsNoteOn()
 1231              		.loc 15 262 17 view .LVU320
 1232              	.LBB398:
 263:../../libDaisy/src/hid/MidiEvent.h ****     {
 264:../../libDaisy/src/hid/MidiEvent.h ****         NoteOnEvent m;
 1233              		.loc 15 264 9 view .LVU321
 265:../../libDaisy/src/hid/MidiEvent.h ****         m.channel  = channel;
 1234              		.loc 15 265 9 view .LVU322
 266:../../libDaisy/src/hid/MidiEvent.h ****         m.note     = data[0];
 1235              		.loc 15 266 9 view .LVU323
 267:../../libDaisy/src/hid/MidiEvent.h ****         m.velocity = data[1];
 1236              		.loc 15 267 9 view .LVU324
 268:../../libDaisy/src/hid/MidiEvent.h ****         return m;
 1237              		.loc 15 268 9 view .LVU325
 1238              		.loc 15 268 9 is_stmt 0 view .LVU326
 1239              	.LBE398:
 1240              	.LBE397:
  78:main.cpp      **** 			{
 1241              		.loc 13 78 13 is_stmt 1 view .LVU327
  78:main.cpp      **** 			{
 1242              		.loc 13 78 26 is_stmt 0 view .LVU328
 1243 0028 B04B     		ldr	r3, .L148
 1244 002a 93F88930 		ldrb	r3, [r3, #137]	@ zero_extendqisi2
  78:main.cpp      **** 			{
 1245              		.loc 13 78 13 view .LVU329
 1246 002e 112B     		cmp	r3, #17
 1247 0030 4FD0     		beq	.L84
  78:main.cpp      **** 			{
 1248              		.loc 13 78 61 discriminator 1 view .LVU330
 1249 0032 8B42     		cmp	r3, r1
 1250 0034 4DD0     		beq	.L84
 1251              	.LVL74:
 1252              	.L77:
  78:main.cpp      **** 			{
 1253              		.loc 13 78 61 discriminator 1 view .LVU331
 1254              	.LBE396:
 1255              	.LBE434:
ARM GAS  /var/folders/kw/h2sg8jtn02b91cpsjc1nlpg80000gn/T//ccz3jKAs.s 			page 60


 333:main.cpp      **** 
 1256              		.loc 13 333 1 view .LVU332
 1257 0036 03B0     		add	sp, sp, #12
 1258              		.cfi_remember_state
 1259              		.cfi_def_cfa_offset 36
 1260              		@ sp needed
 1261 0038 BDE8F040 		pop	{r4, r5, r6, r7, lr}
 1262              		.cfi_restore 14
 1263              		.cfi_restore 7
 1264              		.cfi_restore 6
 1265              		.cfi_restore 5
 1266              		.cfi_restore 4
 1267              		.cfi_def_cfa_offset 16
 1268 003c 04B0     		add	sp, sp, #16
 1269              		.cfi_def_cfa_offset 0
 1270 003e 7047     		bx	lr
 1271              	.LVL75:
 1272              	.L79:
 1273              		.cfi_restore_state
 103:main.cpp      ****         {
 1274              		.loc 13 103 3 is_stmt 1 view .LVU333
 104:main.cpp      ****             PitchBendEvent p = m.AsPitchBend();
 1275              		.loc 13 104 9 view .LVU334
 1276              	.LBB435:
 1277              	.LBB399:
 105:main.cpp      ****             if ((vasynth.midi_channel_ == MIDI_CHANNEL_ALL) || (p.channel == vasynth.midi_channel_)
 1278              		.loc 13 105 13 view .LVU335
 1279              	.LBB400:
 1280              	.LBI400:
 269:../../libDaisy/src/hid/MidiEvent.h ****     }
 270:../../libDaisy/src/hid/MidiEvent.h **** 
 271:../../libDaisy/src/hid/MidiEvent.h ****     /** Returns the data within the MidiEvent as a PolyphonicKeyPressureEvent struct */
 272:../../libDaisy/src/hid/MidiEvent.h ****     PolyphonicKeyPressureEvent AsPolyphonicKeyPressure()
 273:../../libDaisy/src/hid/MidiEvent.h ****     {
 274:../../libDaisy/src/hid/MidiEvent.h ****         PolyphonicKeyPressureEvent m;
 275:../../libDaisy/src/hid/MidiEvent.h ****         m.channel  = channel;
 276:../../libDaisy/src/hid/MidiEvent.h ****         m.note     = data[0];
 277:../../libDaisy/src/hid/MidiEvent.h ****         m.pressure = data[1];
 278:../../libDaisy/src/hid/MidiEvent.h ****         return m;
 279:../../libDaisy/src/hid/MidiEvent.h ****     }
 280:../../libDaisy/src/hid/MidiEvent.h **** 
 281:../../libDaisy/src/hid/MidiEvent.h ****     /** Returns the data within the MidiEvent as a ControlChangeEvent struct.*/
 282:../../libDaisy/src/hid/MidiEvent.h ****     ControlChangeEvent AsControlChange()
 283:../../libDaisy/src/hid/MidiEvent.h ****     {
 284:../../libDaisy/src/hid/MidiEvent.h ****         ControlChangeEvent m;
 285:../../libDaisy/src/hid/MidiEvent.h ****         m.channel        = channel;
 286:../../libDaisy/src/hid/MidiEvent.h ****         m.control_number = data[0];
 287:../../libDaisy/src/hid/MidiEvent.h ****         m.value          = data[1];
 288:../../libDaisy/src/hid/MidiEvent.h ****         return m;
 289:../../libDaisy/src/hid/MidiEvent.h ****     }
 290:../../libDaisy/src/hid/MidiEvent.h **** 
 291:../../libDaisy/src/hid/MidiEvent.h ****     /** Returns the data within the MidiEvent as a ProgramChangeEvent struct.*/
 292:../../libDaisy/src/hid/MidiEvent.h ****     ProgramChangeEvent AsProgramChange()
 293:../../libDaisy/src/hid/MidiEvent.h ****     {
 294:../../libDaisy/src/hid/MidiEvent.h ****         ProgramChangeEvent m;
 295:../../libDaisy/src/hid/MidiEvent.h ****         m.channel = channel;
 296:../../libDaisy/src/hid/MidiEvent.h ****         m.program = data[0];
ARM GAS  /var/folders/kw/h2sg8jtn02b91cpsjc1nlpg80000gn/T//ccz3jKAs.s 			page 61


 297:../../libDaisy/src/hid/MidiEvent.h ****         return m;
 298:../../libDaisy/src/hid/MidiEvent.h ****     }
 299:../../libDaisy/src/hid/MidiEvent.h **** 
 300:../../libDaisy/src/hid/MidiEvent.h ****     /** Returns the data within the MidiEvent as a ProgramChangeEvent struct.*/
 301:../../libDaisy/src/hid/MidiEvent.h ****     ChannelPressureEvent AsChannelPressure()
 302:../../libDaisy/src/hid/MidiEvent.h ****     {
 303:../../libDaisy/src/hid/MidiEvent.h ****         ChannelPressureEvent m;
 304:../../libDaisy/src/hid/MidiEvent.h ****         m.channel  = channel;
 305:../../libDaisy/src/hid/MidiEvent.h ****         m.pressure = data[0];
 306:../../libDaisy/src/hid/MidiEvent.h ****         return m;
 307:../../libDaisy/src/hid/MidiEvent.h ****     }
 308:../../libDaisy/src/hid/MidiEvent.h **** 
 309:../../libDaisy/src/hid/MidiEvent.h ****     /** Returns the data within the MidiEvent as a PitchBendEvent struct.*/
 310:../../libDaisy/src/hid/MidiEvent.h ****     PitchBendEvent AsPitchBend()
 1281              		.loc 15 310 20 view .LVU336
 1282              	.LBB401:
 311:../../libDaisy/src/hid/MidiEvent.h ****     {
 312:../../libDaisy/src/hid/MidiEvent.h ****         PitchBendEvent m;
 1283              		.loc 15 312 9 view .LVU337
 313:../../libDaisy/src/hid/MidiEvent.h ****         m.channel = channel;
 1284              		.loc 15 313 9 view .LVU338
 314:../../libDaisy/src/hid/MidiEvent.h ****         m.value   = ((uint16_t)data[1] << 7) + (data[0] - 8192);
 1285              		.loc 15 314 9 view .LVU339
 315:../../libDaisy/src/hid/MidiEvent.h ****         return m;
 1286              		.loc 15 315 9 view .LVU340
 1287              		.loc 15 315 9 is_stmt 0 view .LVU341
 1288              	.LBE401:
 1289              	.LBE400:
 106:main.cpp      **** 			{
 1290              		.loc 13 106 13 is_stmt 1 view .LVU342
 106:main.cpp      **** 			{
 1291              		.loc 13 106 26 is_stmt 0 view .LVU343
 1292 0040 AA4B     		ldr	r3, .L148
 1293 0042 93F88930 		ldrb	r3, [r3, #137]	@ zero_extendqisi2
 106:main.cpp      **** 			{
 1294              		.loc 13 106 13 view .LVU344
 1295 0046 112B     		cmp	r3, #17
 1296 0048 01D0     		beq	.L88
 106:main.cpp      **** 			{
 1297              		.loc 13 106 61 discriminator 1 view .LVU345
 1298 004a 8B42     		cmp	r3, r1
 1299 004c F3D1     		bne	.L77
 1300              	.L88:
 108:main.cpp      **** 			}			
 1301              		.loc 13 108 5 is_stmt 1 view .LVU346
 1302              	.LBB404:
 1303              	.LBB402:
 314:../../libDaisy/src/hid/MidiEvent.h ****         return m;
 1304              		.loc 15 314 46 is_stmt 0 view .LVU347
 1305 004e A4F50054 		sub	r4, r4, #8192
 1306              	.LVL76:
 314:../../libDaisy/src/hid/MidiEvent.h ****         return m;
 1307              		.loc 15 314 46 view .LVU348
 1308              	.LBE402:
 1309              	.LBE404:
 108:main.cpp      **** 			}			
 1310              		.loc 13 108 22 view .LVU349
ARM GAS  /var/folders/kw/h2sg8jtn02b91cpsjc1nlpg80000gn/T//ccz3jKAs.s 			page 62


 1311 0052 A648     		ldr	r0, .L148
 1312              	.LBB405:
 1313              	.LBB403:
 314:../../libDaisy/src/hid/MidiEvent.h ****         return m;
 1314              		.loc 15 314 46 view .LVU350
 1315 0054 04EBC214 		add	r4, r4, r2, lsl #7
 1316              	.LVL77:
 314:../../libDaisy/src/hid/MidiEvent.h ****         return m;
 1317              		.loc 15 314 46 view .LVU351
 1318              	.LBE403:
 1319              	.LBE405:
 108:main.cpp      **** 			}			
 1320              		.loc 13 108 22 view .LVU352
 1321 0058 21B2     		sxth	r1, r4
 1322              	.LBE399:
 1323              	.LBE435:
 333:main.cpp      **** 
 1324              		.loc 13 333 1 view .LVU353
 1325 005a 03B0     		add	sp, sp, #12
 1326              		.cfi_remember_state
 1327              		.cfi_def_cfa_offset 36
 1328              		@ sp needed
 1329 005c BDE8F040 		pop	{r4, r5, r6, r7, lr}
 1330              		.cfi_restore 14
 1331              		.cfi_restore 7
 1332              		.cfi_restore 6
 1333              		.cfi_restore 5
 1334              		.cfi_restore 4
 1335              		.cfi_def_cfa_offset 16
 1336 0060 04B0     		add	sp, sp, #16
 1337              		.cfi_def_cfa_offset 0
 1338              	.LBB436:
 1339              	.LBB406:
 108:main.cpp      **** 			}			
 1340              		.loc 13 108 22 view .LVU354
 1341 0062 FFF7FEBF 		b	_ZN7VASynth9PitchBendEs
 1342              	.LVL78:
 1343              	.L81:
 1344              		.cfi_restore_state
 108:main.cpp      **** 			}			
 1345              		.loc 13 108 22 view .LVU355
 1346              	.LBE406:
 1347              	.LBE436:
 112:main.cpp      ****         {
 1348              		.loc 13 112 9 is_stmt 1 view .LVU356
 113:main.cpp      ****             ControlChangeEvent p = m.AsControlChange();
 1349              		.loc 13 113 9 view .LVU357
 1350              	.LBB437:
 1351              	.LBB407:
 114:main.cpp      ****             switch(p.control_number)
 1352              		.loc 13 114 13 view .LVU358
 1353              	.LBB408:
 1354              	.LBI408:
 282:../../libDaisy/src/hid/MidiEvent.h ****     {
 1355              		.loc 15 282 24 view .LVU359
 1356              	.LBB409:
 284:../../libDaisy/src/hid/MidiEvent.h ****         m.channel        = channel;
ARM GAS  /var/folders/kw/h2sg8jtn02b91cpsjc1nlpg80000gn/T//ccz3jKAs.s 			page 63


 1357              		.loc 15 284 9 view .LVU360
 285:../../libDaisy/src/hid/MidiEvent.h ****         m.control_number = data[0];
 1358              		.loc 15 285 9 view .LVU361
 286:../../libDaisy/src/hid/MidiEvent.h ****         m.value          = data[1];
 1359              		.loc 15 286 9 view .LVU362
 287:../../libDaisy/src/hid/MidiEvent.h ****         return m;
 1360              		.loc 15 287 9 view .LVU363
 288:../../libDaisy/src/hid/MidiEvent.h ****     }
 1361              		.loc 15 288 9 view .LVU364
 288:../../libDaisy/src/hid/MidiEvent.h ****     }
 1362              		.loc 15 288 9 is_stmt 0 view .LVU365
 1363              	.LBE409:
 1364              	.LBE408:
 115:main.cpp      ****             {
 1365              		.loc 13 115 13 is_stmt 1 view .LVU366
 1366 0066 013C     		subs	r4, r4, #1
 1367              	.LVL79:
 115:main.cpp      ****             {
 1368              		.loc 13 115 13 is_stmt 0 view .LVU367
 1369 0068 182C     		cmp	r4, #24
 1370 006a E4D8     		bhi	.L77
 1371 006c DFE814F0 		tbh	[pc, r4, lsl #1]
 1372              	.L90:
 1373 0070 3C00     		.2byte	(.L97-.L90)/2
 1374 0072 5C00     		.2byte	(.L113-.L90)/2
 1375 0074 6600     		.2byte	(.L112-.L90)/2
 1376 0076 7000     		.2byte	(.L111-.L90)/2
 1377 0078 7C00     		.2byte	(.L110-.L90)/2
 1378 007a 8800     		.2byte	(.L109-.L90)/2
 1379 007c 9800     		.2byte	(.L108-.L90)/2
 1380 007e A900     		.2byte	(.L107-.L90)/2
 1381 0080 B500     		.2byte	(.L106-.L90)/2
 1382 0082 C100     		.2byte	(.L105-.L90)/2
 1383 0084 CD00     		.2byte	(.L104-.L90)/2
 1384 0086 D900     		.2byte	(.L103-.L90)/2
 1385 0088 E500     		.2byte	(.L102-.L90)/2
 1386 008a F100     		.2byte	(.L101-.L90)/2
 1387 008c FD00     		.2byte	(.L100-.L90)/2
 1388 008e 0901     		.2byte	(.L99-.L90)/2
 1389 0090 5A01     		.2byte	(.L98-.L90)/2
 1390 0092 3C00     		.2byte	(.L97-.L90)/2
 1391 0094 2D01     		.2byte	(.L96-.L90)/2
 1392 0096 4E01     		.2byte	(.L95-.L90)/2
 1393 0098 1501     		.2byte	(.L94-.L90)/2
 1394 009a 1C01     		.2byte	(.L93-.L90)/2
 1395 009c 6601     		.2byte	(.L92-.L90)/2
 1396 009e 2301     		.2byte	(.L91-.L90)/2
 1397 00a0 5100     		.2byte	(.L89-.L90)/2
 1398              	.LVL80:
 1399              		.p2align 1
 1400              	.L83:
 115:main.cpp      ****             {
 1401              		.loc 13 115 13 view .LVU368
 1402              	.LBE407:
 1403              	.LBE437:
  89:main.cpp      ****         {
 1404              		.loc 13 89 9 is_stmt 1 view .LVU369
ARM GAS  /var/folders/kw/h2sg8jtn02b91cpsjc1nlpg80000gn/T//ccz3jKAs.s 			page 64


  90:main.cpp      ****             NoteOnEvent p = m.AsNoteOn();
 1405              		.loc 13 90 9 view .LVU370
 1406              	.LBB438:
 1407              	.LBB420:
  91:main.cpp      ****             if ((vasynth.midi_channel_ == MIDI_CHANNEL_ALL) || (p.channel == vasynth.midi_channel_)
 1408              		.loc 13 91 13 view .LVU371
 1409              	.LBB421:
 1410              	.LBI421:
 262:../../libDaisy/src/hid/MidiEvent.h ****     {
 1411              		.loc 15 262 17 view .LVU372
 1412              	.LBB422:
 264:../../libDaisy/src/hid/MidiEvent.h ****         m.channel  = channel;
 1413              		.loc 15 264 9 view .LVU373
 265:../../libDaisy/src/hid/MidiEvent.h ****         m.note     = data[0];
 1414              		.loc 15 265 9 view .LVU374
 266:../../libDaisy/src/hid/MidiEvent.h ****         m.velocity = data[1];
 1415              		.loc 15 266 9 view .LVU375
 267:../../libDaisy/src/hid/MidiEvent.h ****         return m;
 1416              		.loc 15 267 9 view .LVU376
 268:../../libDaisy/src/hid/MidiEvent.h ****     }
 1417              		.loc 15 268 9 view .LVU377
 268:../../libDaisy/src/hid/MidiEvent.h ****     }
 1418              		.loc 15 268 9 is_stmt 0 view .LVU378
 1419              	.LBE422:
 1420              	.LBE421:
  92:main.cpp      **** 			{
 1421              		.loc 13 92 13 is_stmt 1 view .LVU379
  92:main.cpp      **** 			{
 1422              		.loc 13 92 26 is_stmt 0 view .LVU380
 1423 00a2 924B     		ldr	r3, .L148
 1424 00a4 93F88930 		ldrb	r3, [r3, #137]	@ zero_extendqisi2
  92:main.cpp      **** 			{
 1425              		.loc 13 92 13 view .LVU381
 1426 00a8 112B     		cmp	r3, #17
 1427 00aa 01D0     		beq	.L86
  92:main.cpp      **** 			{
 1428              		.loc 13 92 61 discriminator 1 view .LVU382
 1429 00ac 8B42     		cmp	r3, r1
 1430 00ae C2D1     		bne	.L77
 1431              	.L86:
  94:main.cpp      **** 				{
 1432              		.loc 13 94 5 is_stmt 1 view .LVU383
  94:main.cpp      **** 				{
 1433              		.loc 13 94 16 is_stmt 0 view .LVU384
 1434 00b0 8F4B     		ldr	r3, .L148+4
  94:main.cpp      **** 				{
 1435              		.loc 13 94 5 view .LVU385
 1436 00b2 1B88     		ldrh	r3, [r3]
 1437 00b4 012B     		cmp	r3, #1
 1438 00b6 00F09881 		beq	.L146
 1439              	.LVL81:
 1440              	.L87:
  98:main.cpp      **** 				hardware.SetLed(false);
 1441              		.loc 13 98 5 is_stmt 1 view .LVU386
  98:main.cpp      **** 				hardware.SetLed(false);
 1442              		.loc 13 98 20 is_stmt 0 view .LVU387
 1443 00ba 2146     		mov	r1, r4
ARM GAS  /var/folders/kw/h2sg8jtn02b91cpsjc1nlpg80000gn/T//ccz3jKAs.s 			page 65


 1444 00bc 8B48     		ldr	r0, .L148
 1445 00be FFF7FEFF 		bl	_ZN7VASynth7NoteOffEh
 1446              	.LVL82:
  99:main.cpp      **** 			}			
 1447              		.loc 13 99 5 is_stmt 1 view .LVU388
  99:main.cpp      **** 			}			
 1448              		.loc 13 99 20 is_stmt 0 view .LVU389
 1449 00c2 0021     		movs	r1, #0
 1450              	.LVL83:
 1451              	.L142:
  99:main.cpp      **** 			}			
 1452              		.loc 13 99 20 view .LVU390
 1453 00c4 8B48     		ldr	r0, .L148+8
 1454              	.LBE420:
 1455              	.LBE438:
 333:main.cpp      **** 
 1456              		.loc 13 333 1 view .LVU391
 1457 00c6 03B0     		add	sp, sp, #12
 1458              		.cfi_remember_state
 1459              		.cfi_def_cfa_offset 36
 1460              		@ sp needed
 1461 00c8 BDE8F040 		pop	{r4, r5, r6, r7, lr}
 1462              		.cfi_restore 14
 1463              		.cfi_restore 7
 1464              		.cfi_restore 6
 1465              		.cfi_restore 5
 1466              		.cfi_restore 4
 1467              		.cfi_def_cfa_offset 16
 1468              	.LVL84:
 333:main.cpp      **** 
 1469              		.loc 13 333 1 view .LVU392
 1470 00cc 04B0     		add	sp, sp, #16
 1471              		.cfi_def_cfa_offset 0
 1472              	.LBB439:
 1473              	.LBB423:
  99:main.cpp      **** 			}			
 1474              		.loc 13 99 20 view .LVU393
 1475 00ce FFF7FEBF 		b	_ZN5daisy9DaisySeed6SetLedEb
 1476              	.LVL85:
 1477              	.L84:
 1478              		.cfi_restore_state
  99:main.cpp      **** 			}			
 1479              		.loc 13 99 20 view .LVU394
 1480              	.LBE423:
 1481              	.LBB424:
  80:main.cpp      **** 				{
 1482              		.loc 13 80 5 is_stmt 1 view .LVU395
  80:main.cpp      **** 				{
 1483              		.loc 13 80 16 is_stmt 0 view .LVU396
 1484 00d2 874B     		ldr	r3, .L148+4
  80:main.cpp      **** 				{
 1485              		.loc 13 80 5 view .LVU397
 1486 00d4 1B88     		ldrh	r3, [r3]
 1487 00d6 012B     		cmp	r3, #1
 1488 00d8 00F07F81 		beq	.L147
 1489              	.LVL86:
 1490              	.L85:
ARM GAS  /var/folders/kw/h2sg8jtn02b91cpsjc1nlpg80000gn/T//ccz3jKAs.s 			page 66


  84:main.cpp      **** 				hardware.SetLed(true);
 1491              		.loc 13 84 5 is_stmt 1 view .LVU398
  84:main.cpp      **** 				hardware.SetLed(true);
 1492              		.loc 13 84 19 is_stmt 0 view .LVU399
 1493 00dc 2146     		mov	r1, r4
 1494 00de 8348     		ldr	r0, .L148
 1495 00e0 FFF7FEFF 		bl	_ZN7VASynth6NoteOnEhh
 1496              	.LVL87:
  85:main.cpp      **** 			}
 1497              		.loc 13 85 5 is_stmt 1 view .LVU400
  85:main.cpp      **** 			}
 1498              		.loc 13 85 20 is_stmt 0 view .LVU401
 1499 00e4 0121     		movs	r1, #1
 1500 00e6 EDE7     		b	.L142
 1501              	.LVL88:
 1502              	.L97:
  85:main.cpp      **** 			}
 1503              		.loc 13 85 20 view .LVU402
 1504              	.LBE424:
 1505              	.LBB425:
 249:main.cpp      **** 						{			
 1506              		.loc 13 249 7 is_stmt 1 view .LVU403
 250:main.cpp      **** 							vasynth.filter_cutoff_ = ((float)p.value / 127.0f) * FILTER_CUTOFF_MAX;
 1507              		.loc 13 250 7 view .LVU404
 251:main.cpp      ****                		  	   vasynth.SetFilter();			
 1508              		.loc 13 251 8 view .LVU405
 251:main.cpp      ****                		  	   vasynth.SetFilter();			
 1509              		.loc 13 251 34 is_stmt 0 view .LVU406
 1510 00e8 07EE902A 		vmov	s15, r2	@ int
 251:main.cpp      ****                		  	   vasynth.SetFilter();			
 1511              		.loc 13 251 49 view .LVU407
 1512 00ec DFED866A 		vldr.32	s13, .L148+28
 251:main.cpp      ****                		  	   vasynth.SetFilter();			
 1513              		.loc 13 251 59 view .LVU408
 1514 00f0 9FED817A 		vldr.32	s14, .L148+12
 251:main.cpp      ****                		  	   vasynth.SetFilter();			
 1515              		.loc 13 251 34 view .LVU409
 1516 00f4 B8EE676A 		vcvt.f32.u32	s12, s15
 251:main.cpp      ****                		  	   vasynth.SetFilter();			
 1517              		.loc 13 251 31 view .LVU410
 1518 00f8 7C48     		ldr	r0, .L148
 251:main.cpp      ****                		  	   vasynth.SetFilter();			
 1519              		.loc 13 251 49 view .LVU411
 1520 00fa C6EE267A 		vdiv.f32	s15, s12, s13
 251:main.cpp      ****                		  	   vasynth.SetFilter();			
 1521              		.loc 13 251 59 view .LVU412
 1522 00fe 67EE877A 		vmul.f32	s15, s15, s14
 251:main.cpp      ****                		  	   vasynth.SetFilter();			
 1523              		.loc 13 251 31 view .LVU413
 1524 0102 C0ED207A 		vstr.32	s15, [r0, #128]
 252:main.cpp      **** 					 	break;
 1525              		.loc 13 252 24 is_stmt 1 view .LVU414
 1526              	.L143:
 246:main.cpp      **** 							break;
 1527              		.loc 13 246 23 view .LVU415
 1528              	.LBE425:
 1529              	.LBE439:
ARM GAS  /var/folders/kw/h2sg8jtn02b91cpsjc1nlpg80000gn/T//ccz3jKAs.s 			page 67


 333:main.cpp      **** 
 1530              		.loc 13 333 1 is_stmt 0 view .LVU416
 1531 0106 03B0     		add	sp, sp, #12
 1532              		.cfi_remember_state
 1533              		.cfi_def_cfa_offset 36
 1534              		@ sp needed
 1535 0108 BDE8F040 		pop	{r4, r5, r6, r7, lr}
 1536              		.cfi_restore 14
 1537              		.cfi_restore 7
 1538              		.cfi_restore 6
 1539              		.cfi_restore 5
 1540              		.cfi_restore 4
 1541              		.cfi_def_cfa_offset 16
 1542              	.LVL89:
 333:main.cpp      **** 
 1543              		.loc 13 333 1 view .LVU417
 1544 010c 04B0     		add	sp, sp, #16
 1545              		.cfi_def_cfa_offset 0
 1546              	.LBB440:
 1547              	.LBB426:
 246:main.cpp      **** 							break;
 1548              		.loc 13 246 40 view .LVU418
 1549 010e FFF7FEBF 		b	_ZN7VASynth9SetFilterEv
 1550              	.LVL90:
 1551              	.L89:
 1552              		.cfi_restore_state
 317:main.cpp      **** 						{
 1553              		.loc 13 317 7 is_stmt 1 view .LVU419
 318:main.cpp      **** 							// Sequencer Mode Play
 1554              		.loc 13 318 7 view .LVU420
 320:main.cpp      **** 							seqclock = 0;
 1555              		.loc 13 320 8 view .LVU421
 321:main.cpp      **** 							seqmem = 0x00010000;
 1556              		.loc 13 321 17 is_stmt 0 view .LVU422
 1557 0112 7A4A     		ldr	r2, .L148+16
 1558              	.LVL91:
 321:main.cpp      **** 							seqmem = 0x00010000;
 1559              		.loc 13 321 17 view .LVU423
 1560 0114 0021     		movs	r1, #0
 320:main.cpp      **** 							seqclock = 0;
 1561              		.loc 13 320 16 view .LVU424
 1562 0116 7648     		ldr	r0, .L148+4
 1563 0118 0324     		movs	r4, #3
 322:main.cpp      **** 							break;
 1564              		.loc 13 322 15 view .LVU425
 1565 011a 794B     		ldr	r3, .L148+20
 321:main.cpp      **** 							seqmem = 0x00010000;
 1566              		.loc 13 321 17 view .LVU426
 1567 011c 1180     		strh	r1, [r2]	@ movhi
 322:main.cpp      **** 							break;
 1568              		.loc 13 322 15 view .LVU427
 1569 011e 4FF48032 		mov	r2, #65536
 320:main.cpp      **** 							seqclock = 0;
 1570              		.loc 13 320 16 view .LVU428
 1571 0122 0480     		strh	r4, [r0]	@ movhi
 321:main.cpp      **** 							seqmem = 0x00010000;
 1572              		.loc 13 321 8 is_stmt 1 view .LVU429
ARM GAS  /var/folders/kw/h2sg8jtn02b91cpsjc1nlpg80000gn/T//ccz3jKAs.s 			page 68


 322:main.cpp      **** 							break;
 1573              		.loc 13 322 8 view .LVU430
 322:main.cpp      **** 							break;
 1574              		.loc 13 322 15 is_stmt 0 view .LVU431
 1575 0124 1A60     		str	r2, [r3]
 323:main.cpp      **** 						}
 1576              		.loc 13 323 8 is_stmt 1 view .LVU432
 1577              	.LBE426:
 1578              	.LBE440:
 333:main.cpp      **** 
 1579              		.loc 13 333 1 is_stmt 0 view .LVU433
 1580 0126 86E7     		b	.L77
 1581              	.LVL92:
 1582              	.L113:
 1583              	.LBB441:
 1584              	.LBB427:
 122:main.cpp      **** 
 1585              		.loc 13 122 5 is_stmt 1 discriminator 5 view .LVU434
 124:main.cpp      **** 						{
 1586              		.loc 13 124 7 discriminator 5 view .LVU435
 125:main.cpp      **** 							switch(p.value >> 5)
 1587              		.loc 13 125 7 discriminator 5 view .LVU436
 126:main.cpp      **** 							{
 1588              		.loc 13 126 8 discriminator 5 view .LVU437
 1589 0128 5209     		lsrs	r2, r2, #5
 1590              	.LVL93:
 126:main.cpp      **** 							{
 1591              		.loc 13 126 8 is_stmt 0 discriminator 5 view .LVU438
 1592 012a 032A     		cmp	r2, #3
 1593 012c 00F21D81 		bhi	.L115
 1594 0130 DFE812F0 		tbh	[pc, r2, lsl #1]
 1595              	.L117:
 1596 0134 3001     		.2byte	(.L120-.L117)/2
 1597 0136 2C01     		.2byte	(.L119-.L117)/2
 1598 0138 2801     		.2byte	(.L118-.L117)/2
 1599 013a 1801     		.2byte	(.L116-.L117)/2
 1600              	.LVL94:
 1601              		.p2align 1
 1602              	.L112:
 144:main.cpp      **** 						{
 1603              		.loc 13 144 7 is_stmt 1 discriminator 6 view .LVU439
 145:main.cpp      **** 							switch(p.value >> 5)
 1604              		.loc 13 145 7 discriminator 6 view .LVU440
 146:main.cpp      **** 							{
 1605              		.loc 13 146 8 discriminator 6 view .LVU441
 1606 013c 5209     		lsrs	r2, r2, #5
 1607              	.LVL95:
 146:main.cpp      **** 							{
 1608              		.loc 13 146 8 is_stmt 0 discriminator 6 view .LVU442
 1609 013e 032A     		cmp	r2, #3
 1610 0140 00F21381 		bhi	.L115
 1611 0144 DFE812F0 		tbh	[pc, r2, lsl #1]
 1612              	.L122:
 1613 0148 4501     		.2byte	(.L125-.L122)/2
 1614 014a 4101     		.2byte	(.L124-.L122)/2
 1615 014c 3D01     		.2byte	(.L123-.L122)/2
 1616 014e 3901     		.2byte	(.L121-.L122)/2
ARM GAS  /var/folders/kw/h2sg8jtn02b91cpsjc1nlpg80000gn/T//ccz3jKAs.s 			page 69


 1617              	.LVL96:
 1618              		.p2align 1
 1619              	.L111:
 165:main.cpp      **** 						{
 1620              		.loc 13 165 7 is_stmt 1 view .LVU443
 166:main.cpp      **** 							vasynth.osc_mix_ = ((float)p.value / 127.0f);
 1621              		.loc 13 166 7 view .LVU444
 167:main.cpp      **** 							break;
 1622              		.loc 13 167 8 view .LVU445
 167:main.cpp      **** 							break;
 1623              		.loc 13 167 28 is_stmt 0 view .LVU446
 1624 0150 07EE902A 		vmov	s15, r2	@ int
 167:main.cpp      **** 							break;
 1625              		.loc 13 167 43 view .LVU447
 1626 0154 9FED6C7A 		vldr.32	s14, .L148+28
 167:main.cpp      **** 							break;
 1627              		.loc 13 167 25 view .LVU448
 1628 0158 644B     		ldr	r3, .L148
 167:main.cpp      **** 							break;
 1629              		.loc 13 167 28 view .LVU449
 1630 015a F8EE676A 		vcvt.f32.u32	s13, s15
 167:main.cpp      **** 							break;
 1631              		.loc 13 167 43 view .LVU450
 1632 015e C6EE877A 		vdiv.f32	s15, s13, s14
 167:main.cpp      **** 							break;
 1633              		.loc 13 167 25 view .LVU451
 1634 0162 C3ED027A 		vstr.32	s15, [r3, #8]
 168:main.cpp      **** 						}
 1635              		.loc 13 168 8 is_stmt 1 view .LVU452
 1636 0166 66E7     		b	.L77
 1637              	.L110:
 170:main.cpp      **** 						{
 1638              		.loc 13 170 7 view .LVU453
 171:main.cpp      **** 							vasynth.osc2_detune_ = ((float)p.value / 255.0f);
 1639              		.loc 13 171 7 view .LVU454
 172:main.cpp      **** 							break;
 1640              		.loc 13 172 8 view .LVU455
 172:main.cpp      **** 							break;
 1641              		.loc 13 172 32 is_stmt 0 view .LVU456
 1642 0168 07EE902A 		vmov	s15, r2	@ int
 172:main.cpp      **** 							break;
 1643              		.loc 13 172 47 view .LVU457
 1644 016c 9FED657A 		vldr.32	s14, .L148+24
 172:main.cpp      **** 							break;
 1645              		.loc 13 172 29 view .LVU458
 1646 0170 5E4B     		ldr	r3, .L148
 172:main.cpp      **** 							break;
 1647              		.loc 13 172 32 view .LVU459
 1648 0172 F8EE676A 		vcvt.f32.u32	s13, s15
 172:main.cpp      **** 							break;
 1649              		.loc 13 172 47 view .LVU460
 1650 0176 C6EE877A 		vdiv.f32	s15, s13, s14
 172:main.cpp      **** 							break;
 1651              		.loc 13 172 29 view .LVU461
 1652 017a C3ED067A 		vstr.32	s15, [r3, #24]
 173:main.cpp      **** 						}
 1653              		.loc 13 173 8 is_stmt 1 view .LVU462
ARM GAS  /var/folders/kw/h2sg8jtn02b91cpsjc1nlpg80000gn/T//ccz3jKAs.s 			page 70


 1654 017e 5AE7     		b	.L77
 1655              	.L109:
 175:main.cpp      **** 						{
 1656              		.loc 13 175 7 view .LVU463
 176:main.cpp      **** 							vasynth.osc2_transpose_ = (1.0f + ((float)p.value / 127.0f));
 1657              		.loc 13 176 7 view .LVU464
 177:main.cpp      **** 							break;
 1658              		.loc 13 177 8 view .LVU465
 177:main.cpp      **** 							break;
 1659              		.loc 13 177 43 is_stmt 0 view .LVU466
 1660 0180 07EE902A 		vmov	s15, r2	@ int
 177:main.cpp      **** 							break;
 1661              		.loc 13 177 58 view .LVU467
 1662 0184 DFED606A 		vldr.32	s13, .L148+28
 177:main.cpp      **** 							break;
 1663              		.loc 13 177 40 view .LVU468
 1664 0188 B7EE007A 		vmov.f32	s14, #1.0e+0
 177:main.cpp      **** 							break;
 1665              		.loc 13 177 32 view .LVU469
 1666 018c 574B     		ldr	r3, .L148
 177:main.cpp      **** 							break;
 1667              		.loc 13 177 43 view .LVU470
 1668 018e B8EE676A 		vcvt.f32.u32	s12, s15
 177:main.cpp      **** 							break;
 1669              		.loc 13 177 58 view .LVU471
 1670 0192 C6EE267A 		vdiv.f32	s15, s12, s13
 177:main.cpp      **** 							break;
 1671              		.loc 13 177 40 view .LVU472
 1672 0196 77EE877A 		vadd.f32	s15, s15, s14
 177:main.cpp      **** 							break;
 1673              		.loc 13 177 32 view .LVU473
 1674 019a C3ED077A 		vstr.32	s15, [r3, #28]
 178:main.cpp      **** 						}
 1675              		.loc 13 178 8 is_stmt 1 view .LVU474
 1676 019e 4AE7     		b	.L77
 1677              	.L108:
 180:main.cpp      **** 						{
 1678              		.loc 13 180 7 view .LVU475
 181:main.cpp      **** 							vasynth.eg_f_attack_ = ((float)p.value / 127.0f);
 1679              		.loc 13 181 7 view .LVU476
 182:main.cpp      **** 							vasynth.SetEG();
 1680              		.loc 13 182 8 view .LVU477
 182:main.cpp      **** 							vasynth.SetEG();
 1681              		.loc 13 182 32 is_stmt 0 view .LVU478
 1682 01a0 07EE902A 		vmov	s15, r2	@ int
 182:main.cpp      **** 							vasynth.SetEG();
 1683              		.loc 13 182 47 view .LVU479
 1684 01a4 9FED587A 		vldr.32	s14, .L148+28
 182:main.cpp      **** 							vasynth.SetEG();
 1685              		.loc 13 182 29 view .LVU480
 1686 01a8 5048     		ldr	r0, .L148
 182:main.cpp      **** 							vasynth.SetEG();
 1687              		.loc 13 182 32 view .LVU481
 1688 01aa F8EE676A 		vcvt.f32.u32	s13, s15
 182:main.cpp      **** 							vasynth.SetEG();
 1689              		.loc 13 182 47 view .LVU482
 1690 01ae C6EE877A 		vdiv.f32	s15, s13, s14
ARM GAS  /var/folders/kw/h2sg8jtn02b91cpsjc1nlpg80000gn/T//ccz3jKAs.s 			page 71


 182:main.cpp      **** 							vasynth.SetEG();
 1691              		.loc 13 182 29 view .LVU483
 1692 01b2 C0ED0D7A 		vstr.32	s15, [r0, #52]
 183:main.cpp      **** 							break;
 1693              		.loc 13 183 8 is_stmt 1 view .LVU484
 1694              	.L145:
 190:main.cpp      **** 							break;
 1695              		.loc 13 190 8 view .LVU485
 1696              	.LBE427:
 1697              	.LBE441:
 333:main.cpp      **** 
 1698              		.loc 13 333 1 is_stmt 0 view .LVU486
 1699 01b6 03B0     		add	sp, sp, #12
 1700              		.cfi_remember_state
 1701              		.cfi_def_cfa_offset 36
 1702              		@ sp needed
 1703 01b8 BDE8F040 		pop	{r4, r5, r6, r7, lr}
 1704              		.cfi_restore 14
 1705              		.cfi_restore 7
 1706              		.cfi_restore 6
 1707              		.cfi_restore 5
 1708              		.cfi_restore 4
 1709              		.cfi_def_cfa_offset 16
 1710 01bc 04B0     		add	sp, sp, #16
 1711              		.cfi_def_cfa_offset 0
 1712              	.LBB442:
 1713              	.LBB428:
 190:main.cpp      **** 							break;
 1714              		.loc 13 190 21 view .LVU487
 1715 01be FFF7FEBF 		b	_ZN7VASynth5SetEGEv
 1716              	.LVL97:
 1717              	.L107:
 1718              		.cfi_restore_state
 187:main.cpp      **** 						{
 1719              		.loc 13 187 7 is_stmt 1 view .LVU488
 188:main.cpp      **** 							vasynth.eg_f_decay_ = ((float)p.value / 127.0f);
 1720              		.loc 13 188 7 view .LVU489
 189:main.cpp      **** 							vasynth.SetEG();
 1721              		.loc 13 189 8 view .LVU490
 189:main.cpp      **** 							vasynth.SetEG();
 1722              		.loc 13 189 31 is_stmt 0 view .LVU491
 1723 01c2 07EE902A 		vmov	s15, r2	@ int
 189:main.cpp      **** 							vasynth.SetEG();
 1724              		.loc 13 189 46 view .LVU492
 1725 01c6 9FED507A 		vldr.32	s14, .L148+28
 189:main.cpp      **** 							vasynth.SetEG();
 1726              		.loc 13 189 28 view .LVU493
 1727 01ca 4848     		ldr	r0, .L148
 189:main.cpp      **** 							vasynth.SetEG();
 1728              		.loc 13 189 31 view .LVU494
 1729 01cc F8EE676A 		vcvt.f32.u32	s13, s15
 189:main.cpp      **** 							vasynth.SetEG();
 1730              		.loc 13 189 46 view .LVU495
 1731 01d0 C6EE877A 		vdiv.f32	s15, s13, s14
 189:main.cpp      **** 							vasynth.SetEG();
 1732              		.loc 13 189 28 view .LVU496
 1733 01d4 C0ED0E7A 		vstr.32	s15, [r0, #56]
ARM GAS  /var/folders/kw/h2sg8jtn02b91cpsjc1nlpg80000gn/T//ccz3jKAs.s 			page 72


 1734 01d8 EDE7     		b	.L145
 1735              	.L106:
 193:main.cpp      **** 							{
 1736              		.loc 13 193 7 is_stmt 1 view .LVU497
 194:main.cpp      **** 							vasynth.eg_f_sustain_ = ((float)p.value / 127.0f);
 1737              		.loc 13 194 8 view .LVU498
 195:main.cpp      **** 							vasynth.SetEG();
 1738              		.loc 13 195 8 view .LVU499
 195:main.cpp      **** 							vasynth.SetEG();
 1739              		.loc 13 195 33 is_stmt 0 view .LVU500
 1740 01da 07EE902A 		vmov	s15, r2	@ int
 195:main.cpp      **** 							vasynth.SetEG();
 1741              		.loc 13 195 48 view .LVU501
 1742 01de 9FED4A7A 		vldr.32	s14, .L148+28
 195:main.cpp      **** 							vasynth.SetEG();
 1743              		.loc 13 195 30 view .LVU502
 1744 01e2 4248     		ldr	r0, .L148
 195:main.cpp      **** 							vasynth.SetEG();
 1745              		.loc 13 195 33 view .LVU503
 1746 01e4 F8EE676A 		vcvt.f32.u32	s13, s15
 195:main.cpp      **** 							vasynth.SetEG();
 1747              		.loc 13 195 48 view .LVU504
 1748 01e8 C6EE877A 		vdiv.f32	s15, s13, s14
 195:main.cpp      **** 							vasynth.SetEG();
 1749              		.loc 13 195 30 view .LVU505
 1750 01ec C0ED0F7A 		vstr.32	s15, [r0, #60]
 196:main.cpp      **** 							break;
 1751              		.loc 13 196 8 is_stmt 1 view .LVU506
 1752 01f0 E1E7     		b	.L145
 1753              	.L105:
 200:main.cpp      **** 						{
 1754              		.loc 13 200 7 view .LVU507
 201:main.cpp      **** 							vasynth.eg_f_release_ = ((float)p.value / 127.0f);
 1755              		.loc 13 201 7 view .LVU508
 202:main.cpp      **** 							vasynth.SetEG();
 1756              		.loc 13 202 8 view .LVU509
 202:main.cpp      **** 							vasynth.SetEG();
 1757              		.loc 13 202 33 is_stmt 0 view .LVU510
 1758 01f2 07EE902A 		vmov	s15, r2	@ int
 202:main.cpp      **** 							vasynth.SetEG();
 1759              		.loc 13 202 48 view .LVU511
 1760 01f6 9FED447A 		vldr.32	s14, .L148+28
 202:main.cpp      **** 							vasynth.SetEG();
 1761              		.loc 13 202 30 view .LVU512
 1762 01fa 3C48     		ldr	r0, .L148
 202:main.cpp      **** 							vasynth.SetEG();
 1763              		.loc 13 202 33 view .LVU513
 1764 01fc F8EE676A 		vcvt.f32.u32	s13, s15
 202:main.cpp      **** 							vasynth.SetEG();
 1765              		.loc 13 202 48 view .LVU514
 1766 0200 C6EE877A 		vdiv.f32	s15, s13, s14
 202:main.cpp      **** 							vasynth.SetEG();
 1767              		.loc 13 202 30 view .LVU515
 1768 0204 C0ED107A 		vstr.32	s15, [r0, #64]
 203:main.cpp      **** 							break;
 1769              		.loc 13 203 8 is_stmt 1 view .LVU516
 1770 0208 D5E7     		b	.L145
ARM GAS  /var/folders/kw/h2sg8jtn02b91cpsjc1nlpg80000gn/T//ccz3jKAs.s 			page 73


 1771              	.L104:
 206:main.cpp      **** 						{
 1772              		.loc 13 206 7 view .LVU517
 207:main.cpp      **** 							vasynth.eg_a_attack_ = ((float)p.value / 127.0f);
 1773              		.loc 13 207 7 view .LVU518
 208:main.cpp      **** 							vasynth.SetEG();
 1774              		.loc 13 208 8 view .LVU519
 208:main.cpp      **** 							vasynth.SetEG();
 1775              		.loc 13 208 32 is_stmt 0 view .LVU520
 1776 020a 07EE902A 		vmov	s15, r2	@ int
 208:main.cpp      **** 							vasynth.SetEG();
 1777              		.loc 13 208 47 view .LVU521
 1778 020e 9FED3E7A 		vldr.32	s14, .L148+28
 208:main.cpp      **** 							vasynth.SetEG();
 1779              		.loc 13 208 29 view .LVU522
 1780 0212 3648     		ldr	r0, .L148
 208:main.cpp      **** 							vasynth.SetEG();
 1781              		.loc 13 208 32 view .LVU523
 1782 0214 F8EE676A 		vcvt.f32.u32	s13, s15
 208:main.cpp      **** 							vasynth.SetEG();
 1783              		.loc 13 208 47 view .LVU524
 1784 0218 C6EE877A 		vdiv.f32	s15, s13, s14
 208:main.cpp      **** 							vasynth.SetEG();
 1785              		.loc 13 208 29 view .LVU525
 1786 021c C0ED097A 		vstr.32	s15, [r0, #36]
 209:main.cpp      **** 							break;
 1787              		.loc 13 209 8 is_stmt 1 view .LVU526
 1788 0220 C9E7     		b	.L145
 1789              	.L103:
 214:main.cpp      **** 						{
 1790              		.loc 13 214 7 view .LVU527
 215:main.cpp      **** 							vasynth.eg_a_decay_ = ((float)p.value / 127.0f);
 1791              		.loc 13 215 7 view .LVU528
 216:main.cpp      **** 							vasynth.SetEG();
 1792              		.loc 13 216 8 view .LVU529
 216:main.cpp      **** 							vasynth.SetEG();
 1793              		.loc 13 216 31 is_stmt 0 view .LVU530
 1794 0222 07EE902A 		vmov	s15, r2	@ int
 216:main.cpp      **** 							vasynth.SetEG();
 1795              		.loc 13 216 46 view .LVU531
 1796 0226 9FED387A 		vldr.32	s14, .L148+28
 216:main.cpp      **** 							vasynth.SetEG();
 1797              		.loc 13 216 28 view .LVU532
 1798 022a 3048     		ldr	r0, .L148
 216:main.cpp      **** 							vasynth.SetEG();
 1799              		.loc 13 216 31 view .LVU533
 1800 022c F8EE676A 		vcvt.f32.u32	s13, s15
 216:main.cpp      **** 							vasynth.SetEG();
 1801              		.loc 13 216 46 view .LVU534
 1802 0230 C6EE877A 		vdiv.f32	s15, s13, s14
 216:main.cpp      **** 							vasynth.SetEG();
 1803              		.loc 13 216 28 view .LVU535
 1804 0234 C0ED0A7A 		vstr.32	s15, [r0, #40]
 217:main.cpp      **** 							break;
 1805              		.loc 13 217 8 is_stmt 1 view .LVU536
 1806 0238 BDE7     		b	.L145
 1807              	.L102:
ARM GAS  /var/folders/kw/h2sg8jtn02b91cpsjc1nlpg80000gn/T//ccz3jKAs.s 			page 74


 220:main.cpp      **** 						{
 1808              		.loc 13 220 7 view .LVU537
 221:main.cpp      **** 							vasynth.eg_a_sustain_ = ((float)p.value / 127.0f);
 1809              		.loc 13 221 7 view .LVU538
 222:main.cpp      **** 							vasynth.SetEG();
 1810              		.loc 13 222 8 view .LVU539
 222:main.cpp      **** 							vasynth.SetEG();
 1811              		.loc 13 222 33 is_stmt 0 view .LVU540
 1812 023a 07EE902A 		vmov	s15, r2	@ int
 222:main.cpp      **** 							vasynth.SetEG();
 1813              		.loc 13 222 48 view .LVU541
 1814 023e 9FED327A 		vldr.32	s14, .L148+28
 222:main.cpp      **** 							vasynth.SetEG();
 1815              		.loc 13 222 30 view .LVU542
 1816 0242 2A48     		ldr	r0, .L148
 222:main.cpp      **** 							vasynth.SetEG();
 1817              		.loc 13 222 33 view .LVU543
 1818 0244 F8EE676A 		vcvt.f32.u32	s13, s15
 222:main.cpp      **** 							vasynth.SetEG();
 1819              		.loc 13 222 48 view .LVU544
 1820 0248 C6EE877A 		vdiv.f32	s15, s13, s14
 222:main.cpp      **** 							vasynth.SetEG();
 1821              		.loc 13 222 30 view .LVU545
 1822 024c C0ED0B7A 		vstr.32	s15, [r0, #44]
 223:main.cpp      **** 							break;
 1823              		.loc 13 223 8 is_stmt 1 view .LVU546
 1824 0250 B1E7     		b	.L145
 1825              	.L101:
 226:main.cpp      **** 						{
 1826              		.loc 13 226 7 view .LVU547
 227:main.cpp      **** 							vasynth.eg_a_release_ = ((float)p.value / 127.0f);
 1827              		.loc 13 227 7 view .LVU548
 228:main.cpp      **** 							vasynth.SetEG();
 1828              		.loc 13 228 8 view .LVU549
 228:main.cpp      **** 							vasynth.SetEG();
 1829              		.loc 13 228 33 is_stmt 0 view .LVU550
 1830 0252 07EE902A 		vmov	s15, r2	@ int
 228:main.cpp      **** 							vasynth.SetEG();
 1831              		.loc 13 228 48 view .LVU551
 1832 0256 9FED2C7A 		vldr.32	s14, .L148+28
 228:main.cpp      **** 							vasynth.SetEG();
 1833              		.loc 13 228 30 view .LVU552
 1834 025a 2448     		ldr	r0, .L148
 228:main.cpp      **** 							vasynth.SetEG();
 1835              		.loc 13 228 33 view .LVU553
 1836 025c F8EE676A 		vcvt.f32.u32	s13, s15
 228:main.cpp      **** 							vasynth.SetEG();
 1837              		.loc 13 228 48 view .LVU554
 1838 0260 C6EE877A 		vdiv.f32	s15, s13, s14
 228:main.cpp      **** 							vasynth.SetEG();
 1839              		.loc 13 228 30 view .LVU555
 1840 0264 C0ED0C7A 		vstr.32	s15, [r0, #48]
 229:main.cpp      **** 							break;
 1841              		.loc 13 229 8 is_stmt 1 view .LVU556
 1842 0268 A5E7     		b	.L145
 1843              	.L100:
 233:main.cpp      **** 						{
ARM GAS  /var/folders/kw/h2sg8jtn02b91cpsjc1nlpg80000gn/T//ccz3jKAs.s 			page 75


 1844              		.loc 13 233 7 view .LVU557
 234:main.cpp      **** 							vasynth.vcf_kbd_follow_= ((float)p.value / 127.0f);
 1845              		.loc 13 234 7 view .LVU558
 235:main.cpp      **** 							break;
 1846              		.loc 13 235 8 view .LVU559
 235:main.cpp      **** 							break;
 1847              		.loc 13 235 34 is_stmt 0 view .LVU560
 1848 026a 07EE902A 		vmov	s15, r2	@ int
 235:main.cpp      **** 							break;
 1849              		.loc 13 235 49 view .LVU561
 1850 026e 9FED267A 		vldr.32	s14, .L148+28
 235:main.cpp      **** 							break;
 1851              		.loc 13 235 31 view .LVU562
 1852 0272 1E4B     		ldr	r3, .L148
 235:main.cpp      **** 							break;
 1853              		.loc 13 235 34 view .LVU563
 1854 0274 F8EE676A 		vcvt.f32.u32	s13, s15
 235:main.cpp      **** 							break;
 1855              		.loc 13 235 49 view .LVU564
 1856 0278 C6EE877A 		vdiv.f32	s15, s13, s14
 235:main.cpp      **** 							break;
 1857              		.loc 13 235 31 view .LVU565
 1858 027c C3ED1D7A 		vstr.32	s15, [r3, #116]
 236:main.cpp      **** 						}
 1859              		.loc 13 236 8 is_stmt 1 view .LVU566
 1860 0280 D9E6     		b	.L77
 1861              	.L99:
 238:main.cpp      **** 						{
 1862              		.loc 13 238 7 view .LVU567
 239:main.cpp      **** 							vasynth.env_kbd_follow_ = ((float)p.value / 127.0f);
 1863              		.loc 13 239 7 view .LVU568
 240:main.cpp      **** 							break;
 1864              		.loc 13 240 8 view .LVU569
 240:main.cpp      **** 							break;
 1865              		.loc 13 240 35 is_stmt 0 view .LVU570
 1866 0282 07EE902A 		vmov	s15, r2	@ int
 240:main.cpp      **** 							break;
 1867              		.loc 13 240 50 view .LVU571
 1868 0286 9FED207A 		vldr.32	s14, .L148+28
 240:main.cpp      **** 							break;
 1869              		.loc 13 240 32 view .LVU572
 1870 028a 184B     		ldr	r3, .L148
 240:main.cpp      **** 							break;
 1871              		.loc 13 240 35 view .LVU573
 1872 028c F8EE676A 		vcvt.f32.u32	s13, s15
 240:main.cpp      **** 							break;
 1873              		.loc 13 240 50 view .LVU574
 1874 0290 C6EE877A 		vdiv.f32	s15, s13, s14
 240:main.cpp      **** 							break;
 1875              		.loc 13 240 32 view .LVU575
 1876 0294 C3ED1E7A 		vstr.32	s15, [r3, #120]
 241:main.cpp      **** 						}
 1877              		.loc 13 241 8 is_stmt 1 view .LVU576
 1878 0298 CDE6     		b	.L77
 1879              	.L94:
 268:main.cpp      **** 						{
 1880              		.loc 13 268 7 discriminator 7 view .LVU577
ARM GAS  /var/folders/kw/h2sg8jtn02b91cpsjc1nlpg80000gn/T//ccz3jKAs.s 			page 76


 269:main.cpp      **** 							switch(p.value >> 5)
 1881              		.loc 13 269 7 discriminator 7 view .LVU578
 270:main.cpp      **** 							{
 1882              		.loc 13 270 8 discriminator 7 view .LVU579
 1883 029a 5209     		lsrs	r2, r2, #5
 1884              	.LVL98:
 270:main.cpp      **** 							{
 1885              		.loc 13 270 8 is_stmt 0 discriminator 7 view .LVU580
 1886 029c 032A     		cmp	r2, #3
 1887 029e 6FD8     		bhi	.L126
 1888 02a0 DFE802F0 		tbb	[pc, r2]
 1889              	.L128:
 1890 02a4 81       		.byte	(.L131-.L128)/2
 1891 02a5 86       		.byte	(.L130-.L128)/2
 1892 02a6 7C       		.byte	(.L129-.L128)/2
 1893 02a7 6A       		.byte	(.L127-.L128)/2
 1894              	.LVL99:
 1895              		.p2align 1
 1896              	.L93:
 288:main.cpp      **** 						{
 1897              		.loc 13 288 7 is_stmt 1 view .LVU581
 289:main.cpp      **** 							// Sequencer Mode Record
 1898              		.loc 13 289 7 view .LVU582
 291:main.cpp      **** 							seqclock = 0;
 1899              		.loc 13 291 8 view .LVU583
 291:main.cpp      **** 							seqclock = 0;
 1900              		.loc 13 291 16 is_stmt 0 view .LVU584
 1901 02a8 1149     		ldr	r1, .L148+4
 1902 02aa 0120     		movs	r0, #1
 292:main.cpp      **** 							break;
 1903              		.loc 13 292 17 view .LVU585
 1904 02ac 134B     		ldr	r3, .L148+16
 1905 02ae 0022     		movs	r2, #0
 1906              	.LVL100:
 291:main.cpp      **** 							seqclock = 0;
 1907              		.loc 13 291 16 view .LVU586
 1908 02b0 0880     		strh	r0, [r1]	@ movhi
 292:main.cpp      **** 							break;
 1909              		.loc 13 292 8 is_stmt 1 view .LVU587
 292:main.cpp      **** 							break;
 1910              		.loc 13 292 17 is_stmt 0 view .LVU588
 1911 02b2 1A80     		strh	r2, [r3]	@ movhi
 293:main.cpp      **** 						}
 1912              		.loc 13 293 8 is_stmt 1 view .LVU589
 1913 02b4 BFE6     		b	.L77
 1914              	.LVL101:
 1915              	.L91:
 309:main.cpp      **** 						{
 1916              		.loc 13 309 7 view .LVU590
 310:main.cpp      **** 							// Sequencer Mode Stop
 1917              		.loc 13 310 7 view .LVU591
 312:main.cpp      **** 							seqclock = 0;
 1918              		.loc 13 312 8 view .LVU592
 312:main.cpp      **** 							seqclock = 0;
 1919              		.loc 13 312 16 is_stmt 0 view .LVU593
 1920 02b6 0023     		movs	r3, #0
 1921 02b8 0D4C     		ldr	r4, .L148+4
ARM GAS  /var/folders/kw/h2sg8jtn02b91cpsjc1nlpg80000gn/T//ccz3jKAs.s 			page 77


 313:main.cpp      **** 							seqmem = 0x00010000;
 1922              		.loc 13 313 17 view .LVU594
 1923 02ba 1048     		ldr	r0, .L148+16
 314:main.cpp      **** 							break;
 1924              		.loc 13 314 15 view .LVU595
 1925 02bc 4FF48031 		mov	r1, #65536
 1926 02c0 0F4A     		ldr	r2, .L148+20
 1927              	.LVL102:
 312:main.cpp      **** 							seqclock = 0;
 1928              		.loc 13 312 16 view .LVU596
 1929 02c2 2380     		strh	r3, [r4]	@ movhi
 313:main.cpp      **** 							seqmem = 0x00010000;
 1930              		.loc 13 313 8 is_stmt 1 view .LVU597
 313:main.cpp      **** 							seqmem = 0x00010000;
 1931              		.loc 13 313 17 is_stmt 0 view .LVU598
 1932 02c4 0380     		strh	r3, [r0]	@ movhi
 314:main.cpp      **** 							break;
 1933              		.loc 13 314 8 is_stmt 1 view .LVU599
 314:main.cpp      **** 							break;
 1934              		.loc 13 314 15 is_stmt 0 view .LVU600
 1935 02c6 1160     		str	r1, [r2]
 315:main.cpp      **** 						}
 1936              		.loc 13 315 8 is_stmt 1 view .LVU601
 1937 02c8 B5E6     		b	.L77
 1938              	.LVL103:
 1939              	.L96:
 256:main.cpp      **** 						{
 1940              		.loc 13 256 7 view .LVU602
 257:main.cpp      **** 							vasynth.vcavcflfo_freq_ = ((float)p.value / 127.0f);
 1941              		.loc 13 257 7 view .LVU603
 258:main.cpp      **** 							vasynth.SetVCAVCFLFO();
 1942              		.loc 13 258 8 view .LVU604
 258:main.cpp      **** 							vasynth.SetVCAVCFLFO();
 1943              		.loc 13 258 35 is_stmt 0 view .LVU605
 1944 02ca 07EE902A 		vmov	s15, r2	@ int
 258:main.cpp      **** 							vasynth.SetVCAVCFLFO();
 1945              		.loc 13 258 50 view .LVU606
 1946 02ce 9FED0E7A 		vldr.32	s14, .L148+28
 258:main.cpp      **** 							vasynth.SetVCAVCFLFO();
 1947              		.loc 13 258 32 view .LVU607
 1948 02d2 0648     		ldr	r0, .L148
 258:main.cpp      **** 							vasynth.SetVCAVCFLFO();
 1949              		.loc 13 258 35 view .LVU608
 1950 02d4 F8EE676A 		vcvt.f32.u32	s13, s15
 258:main.cpp      **** 							vasynth.SetVCAVCFLFO();
 1951              		.loc 13 258 50 view .LVU609
 1952 02d8 C6EE877A 		vdiv.f32	s15, s13, s14
 258:main.cpp      **** 							vasynth.SetVCAVCFLFO();
 1953              		.loc 13 258 32 view .LVU610
 1954 02dc C0ED1B7A 		vstr.32	s15, [r0, #108]
 259:main.cpp      **** 							break;
 1955              		.loc 13 259 8 is_stmt 1 view .LVU611
 1956              	.LVL104:
 1957              	.L144:
 259:main.cpp      **** 							break;
 1958              		.loc 13 259 8 is_stmt 0 view .LVU612
 1959              	.LBE428:
ARM GAS  /var/folders/kw/h2sg8jtn02b91cpsjc1nlpg80000gn/T//ccz3jKAs.s 			page 78


 1960              	.LBE442:
 333:main.cpp      **** 
 1961              		.loc 13 333 1 view .LVU613
 1962 02e0 03B0     		add	sp, sp, #12
 1963              		.cfi_remember_state
 1964              		.cfi_def_cfa_offset 36
 1965              		@ sp needed
 1966 02e2 BDE8F040 		pop	{r4, r5, r6, r7, lr}
 1967              		.cfi_restore 14
 1968              		.cfi_restore 7
 1969              		.cfi_restore 6
 1970              		.cfi_restore 5
 1971              		.cfi_restore 4
 1972              		.cfi_def_cfa_offset 16
 1973 02e6 04B0     		add	sp, sp, #16
 1974              		.cfi_def_cfa_offset 0
 1975              	.LBB443:
 1976              	.LBB429:
 285:main.cpp      **** 								break;
 1977              		.loc 13 285 29 view .LVU614
 1978 02e8 FFF7FEBF 		b	_ZN7VASynth12SetVCAVCFLFOEv
 1979              	.LVL105:
 1980              	.L149:
 1981              		.align	2
 1982              	.L148:
 1983 02ec 00000000 		.word	.LANCHOR1
 1984 02f0 00000000 		.word	.LANCHOR8
 1985 02f4 00000000 		.word	.LANCHOR9
 1986 02f8 00A08C46 		.word	1183621120
 1987 02fc 00000000 		.word	.LANCHOR4
 1988 0300 00000000 		.word	.LANCHOR2
 1989 0304 00007F43 		.word	1132396544
 1990 0308 0000FE42 		.word	1123942400
 1991              	.LVL106:
 1992              	.L95:
 1993              		.cfi_restore_state
 262:main.cpp      **** 						{
 1994              		.loc 13 262 7 is_stmt 1 view .LVU615
 263:main.cpp      **** 							vasynth.vcavcflfo_amp_ = ((float)p.value / 127.0f);
 1995              		.loc 13 263 7 view .LVU616
 264:main.cpp      **** 							vasynth.SetVCAVCFLFO();
 1996              		.loc 13 264 8 view .LVU617
 264:main.cpp      **** 							vasynth.SetVCAVCFLFO();
 1997              		.loc 13 264 34 is_stmt 0 view .LVU618
 1998 030c 07EE902A 		vmov	s15, r2	@ int
 264:main.cpp      **** 							vasynth.SetVCAVCFLFO();
 1999              		.loc 13 264 49 view .LVU619
 2000 0310 1FED037A 		vldr.32	s14, .L148+28
 264:main.cpp      **** 							vasynth.SetVCAVCFLFO();
 2001              		.loc 13 264 31 view .LVU620
 2002 0314 3748     		ldr	r0, .L150
 264:main.cpp      **** 							vasynth.SetVCAVCFLFO();
 2003              		.loc 13 264 34 view .LVU621
 2004 0316 F8EE676A 		vcvt.f32.u32	s13, s15
 264:main.cpp      **** 							vasynth.SetVCAVCFLFO();
 2005              		.loc 13 264 49 view .LVU622
 2006 031a C6EE877A 		vdiv.f32	s15, s13, s14
ARM GAS  /var/folders/kw/h2sg8jtn02b91cpsjc1nlpg80000gn/T//ccz3jKAs.s 			page 79


 264:main.cpp      **** 							vasynth.SetVCAVCFLFO();
 2007              		.loc 13 264 31 view .LVU623
 2008 031e C0ED1C7A 		vstr.32	s15, [r0, #112]
 265:main.cpp      **** 							break;
 2009              		.loc 13 265 8 is_stmt 1 view .LVU624
 2010 0322 DDE7     		b	.L144
 2011              	.L98:
 243:main.cpp      **** 						{
 2012              		.loc 13 243 6 view .LVU625
 244:main.cpp      **** 							vasynth.filter_res_ = ((float)p.value / 127.0f);
 2013              		.loc 13 244 7 view .LVU626
 245:main.cpp      ****                     		vasynth.SetFilter();
 2014              		.loc 13 245 8 view .LVU627
 245:main.cpp      ****                     		vasynth.SetFilter();
 2015              		.loc 13 245 31 is_stmt 0 view .LVU628
 2016 0324 07EE902A 		vmov	s15, r2	@ int
 245:main.cpp      ****                     		vasynth.SetFilter();
 2017              		.loc 13 245 46 view .LVU629
 2018 0328 9FED337A 		vldr.32	s14, .L150+4
 245:main.cpp      ****                     		vasynth.SetFilter();
 2019              		.loc 13 245 28 view .LVU630
 2020 032c 3148     		ldr	r0, .L150
 245:main.cpp      ****                     		vasynth.SetFilter();
 2021              		.loc 13 245 31 view .LVU631
 2022 032e F8EE676A 		vcvt.f32.u32	s13, s15
 245:main.cpp      ****                     		vasynth.SetFilter();
 2023              		.loc 13 245 46 view .LVU632
 2024 0332 C6EE877A 		vdiv.f32	s15, s13, s14
 245:main.cpp      ****                     		vasynth.SetFilter();
 2025              		.loc 13 245 28 view .LVU633
 2026 0336 C0ED1F7A 		vstr.32	s15, [r0, #124]
 2027 033a E4E6     		b	.L143
 2028              	.L92:
 295:main.cpp      **** 						{
 2029              		.loc 13 295 7 is_stmt 1 view .LVU634
 296:main.cpp      **** 							// Sequencer Mode Record End
 2030              		.loc 13 296 7 view .LVU635
 298:main.cpp      **** 							// Place a time-stamp and stop marker at the current position and stop the sequencer
 2031              		.loc 13 298 8 view .LVU636
 300:main.cpp      **** 							seqmem++;
 2032              		.loc 13 300 8 view .LVU637
 300:main.cpp      **** 							seqmem++;
 2033              		.loc 13 300 21 is_stmt 0 view .LVU638
 2034 033c 2F4B     		ldr	r3, .L150+8
 2035              	.LBB410:
 2036              	.LBB411:
 442:main.cpp      **** }
 2037              		.loc 13 442 60 view .LVU639
 2038 033e 4FF6FF7E 		movw	lr, #65535
 2039              	.LBE411:
 2040              	.LBE410:
 300:main.cpp      **** 							seqmem++;
 2041              		.loc 13 300 21 view .LVU640
 2042 0342 2F4A     		ldr	r2, .L150+12
 2043              	.LVL107:
 304:main.cpp      **** 							seqclock = 0;
 2044              		.loc 13 304 16 view .LVU641
ARM GAS  /var/folders/kw/h2sg8jtn02b91cpsjc1nlpg80000gn/T//ccz3jKAs.s 			page 80


 2045 0344 0021     		movs	r1, #0
 300:main.cpp      **** 							seqmem++;
 2046              		.loc 13 300 21 view .LVU642
 2047 0346 1868     		ldr	r0, [r3]
 2048 0348 1688     		ldrh	r6, [r2]
 2049              	.LVL108:
 2050              	.LBB414:
 2051              	.LBI414:
 439:main.cpp      **** {
 2052              		.loc 13 439 6 is_stmt 1 view .LVU643
 2053              	.LBB415:
 442:main.cpp      **** }
 2054              		.loc 13 442 3 view .LVU644
 442:main.cpp      **** }
 2055              		.loc 13 442 48 is_stmt 0 view .LVU645
 2056 034a 00F10055 		add	r5, r0, #536870912
 2057              	.LBE415:
 2058              	.LBE414:
 2059              	.LBB417:
 2060              	.LBB412:
 2061 034e 2D4F     		ldr	r7, .L150+16
 2062              	.LBE412:
 2063              	.LBE417:
 304:main.cpp      **** 							seqclock = 0;
 2064              		.loc 13 304 16 view .LVU646
 2065 0350 2D4C     		ldr	r4, .L150+20
 2066              	.LBB418:
 2067              	.LBB416:
 442:main.cpp      **** }
 2068              		.loc 13 442 60 view .LVU647
 2069 0352 2E80     		strh	r6, [r5]	@ movhi
 2070              	.LVL109:
 442:main.cpp      **** }
 2071              		.loc 13 442 60 view .LVU648
 2072              	.LBE416:
 2073              	.LBE418:
 301:main.cpp      **** 							seqmem++;
 2074              		.loc 13 301 8 is_stmt 1 view .LVU649
 302:main.cpp      **** 							writeSramWord(seqmem, 0xFFFF);
 2075              		.loc 13 302 8 view .LVU650
 303:main.cpp      **** 							seqmode = 0;
 2076              		.loc 13 303 8 view .LVU651
 2077              	.LBB419:
 2078              	.LBI410:
 439:main.cpp      **** {
 2079              		.loc 13 439 6 view .LVU652
 2080              	.LBB413:
 442:main.cpp      **** }
 2081              		.loc 13 442 3 view .LVU653
 442:main.cpp      **** }
 2082              		.loc 13 442 60 is_stmt 0 view .LVU654
 2083 0354 20F807E0 		strh	lr, [r0, r7]	@ movhi
 2084              	.LVL110:
 442:main.cpp      **** }
 2085              		.loc 13 442 60 view .LVU655
 2086              	.LBE413:
 2087              	.LBE419:
ARM GAS  /var/folders/kw/h2sg8jtn02b91cpsjc1nlpg80000gn/T//ccz3jKAs.s 			page 81


 304:main.cpp      **** 							seqclock = 0;
 2088              		.loc 13 304 8 is_stmt 1 view .LVU656
 306:main.cpp      **** 							break;
 2089              		.loc 13 306 15 is_stmt 0 view .LVU657
 2090 0358 4FF48030 		mov	r0, #65536
 304:main.cpp      **** 							seqclock = 0;
 2091              		.loc 13 304 16 view .LVU658
 2092 035c 2180     		strh	r1, [r4]	@ movhi
 305:main.cpp      **** 							seqmem = 0x00010000;
 2093              		.loc 13 305 8 is_stmt 1 view .LVU659
 305:main.cpp      **** 							seqmem = 0x00010000;
 2094              		.loc 13 305 17 is_stmt 0 view .LVU660
 2095 035e 1180     		strh	r1, [r2]	@ movhi
 306:main.cpp      **** 							break;
 2096              		.loc 13 306 8 is_stmt 1 view .LVU661
 306:main.cpp      **** 							break;
 2097              		.loc 13 306 15 is_stmt 0 view .LVU662
 2098 0360 1860     		str	r0, [r3]
 307:main.cpp      **** 						}
 2099              		.loc 13 307 8 is_stmt 1 view .LVU663
 2100 0362 68E6     		b	.L77
 2101              	.L116:
 137:main.cpp      **** 									vasynth.waveform_ = WAVE_POLYBLEP_SAW;
 2102              		.loc 13 137 9 view .LVU664
 138:main.cpp      **** 									break;
 2103              		.loc 13 138 10 view .LVU665
 138:main.cpp      **** 									break;
 2104              		.loc 13 138 28 is_stmt 0 view .LVU666
 2105 0364 234B     		ldr	r3, .L150
 2106 0366 0322     		movs	r2, #3
 2107 0368 1A71     		strb	r2, [r3, #4]
 139:main.cpp      **** 							}
 2108              		.loc 13 139 10 is_stmt 1 view .LVU667
 2109              	.L115:
 141:main.cpp      **** 							break;
 2110              		.loc 13 141 8 view .LVU668
 141:main.cpp      **** 							break;
 2111              		.loc 13 141 27 is_stmt 0 view .LVU669
 2112 036a 2248     		ldr	r0, .L150
 2113              	.LBE429:
 2114              	.LBE443:
 333:main.cpp      **** 
 2115              		.loc 13 333 1 view .LVU670
 2116 036c 03B0     		add	sp, sp, #12
 2117              		.cfi_remember_state
 2118              		.cfi_def_cfa_offset 36
 2119              		@ sp needed
 2120 036e BDE8F040 		pop	{r4, r5, r6, r7, lr}
 2121              		.cfi_restore 14
 2122              		.cfi_restore 7
 2123              		.cfi_restore 6
 2124              		.cfi_restore 5
 2125              		.cfi_restore 4
 2126              		.cfi_def_cfa_offset 16
 2127 0372 04B0     		add	sp, sp, #16
 2128              		.cfi_def_cfa_offset 0
 2129              	.LBB444:
ARM GAS  /var/folders/kw/h2sg8jtn02b91cpsjc1nlpg80000gn/T//ccz3jKAs.s 			page 82


 2130              	.LBB430:
 141:main.cpp      **** 							break;
 2131              		.loc 13 141 27 view .LVU671
 2132 0374 FFF7FEBF 		b	_ZN7VASynth11SetWaveformEv
 2133              	.LVL111:
 2134              	.L127:
 2135              		.cfi_restore_state
 281:main.cpp      **** 									vasynth.vcavcflfo_waveform_ = WAVE_POLYBLEP_SAW;
 2136              		.loc 13 281 9 is_stmt 1 view .LVU672
 282:main.cpp      **** 									break;
 2137              		.loc 13 282 10 view .LVU673
 282:main.cpp      **** 									break;
 2138              		.loc 13 282 38 is_stmt 0 view .LVU674
 2139 0378 1E4B     		ldr	r3, .L150
 2140 037a 0322     		movs	r2, #3
 2141 037c 83F86820 		strb	r2, [r3, #104]
 283:main.cpp      **** 							}
 2142              		.loc 13 283 10 is_stmt 1 view .LVU675
 2143              	.L126:
 285:main.cpp      **** 								break;
 2144              		.loc 13 285 9 view .LVU676
 285:main.cpp      **** 								break;
 2145              		.loc 13 285 29 is_stmt 0 view .LVU677
 2146 0380 1C48     		ldr	r0, .L150
 2147 0382 ADE7     		b	.L144
 2148              	.L118:
 134:main.cpp      **** 									vasynth.waveform_ = WAVE_SQUARE;
 2149              		.loc 13 134 9 is_stmt 1 view .LVU678
 135:main.cpp      **** 									break;
 2150              		.loc 13 135 10 view .LVU679
 135:main.cpp      **** 									break;
 2151              		.loc 13 135 28 is_stmt 0 view .LVU680
 2152 0384 1B4B     		ldr	r3, .L150
 2153 0386 0222     		movs	r2, #2
 2154 0388 1A71     		strb	r2, [r3, #4]
 136:main.cpp      **** 								case 3:
 2155              		.loc 13 136 10 is_stmt 1 view .LVU681
 2156 038a EEE7     		b	.L115
 2157              	.L119:
 131:main.cpp      **** 									vasynth.waveform_ = WAVE_SAW;
 2158              		.loc 13 131 9 view .LVU682
 132:main.cpp      **** 									break;
 2159              		.loc 13 132 10 view .LVU683
 132:main.cpp      **** 									break;
 2160              		.loc 13 132 28 is_stmt 0 view .LVU684
 2161 038c 194B     		ldr	r3, .L150
 2162 038e 0122     		movs	r2, #1
 2163 0390 1A71     		strb	r2, [r3, #4]
 133:main.cpp      **** 								case 2:
 2164              		.loc 13 133 10 is_stmt 1 view .LVU685
 2165 0392 EAE7     		b	.L115
 2166              	.L120:
 128:main.cpp      **** 									vasynth.waveform_ = WAVE_TRI;
 2167              		.loc 13 128 9 view .LVU686
 129:main.cpp      **** 									break;
 2168              		.loc 13 129 10 view .LVU687
 129:main.cpp      **** 									break;
ARM GAS  /var/folders/kw/h2sg8jtn02b91cpsjc1nlpg80000gn/T//ccz3jKAs.s 			page 83


 2169              		.loc 13 129 28 is_stmt 0 view .LVU688
 2170 0394 174B     		ldr	r3, .L150
 2171 0396 0022     		movs	r2, #0
 2172 0398 1A71     		strb	r2, [r3, #4]
 130:main.cpp      **** 								case 1:
 2173              		.loc 13 130 10 is_stmt 1 view .LVU689
 2174 039a E6E7     		b	.L115
 2175              	.L129:
 278:main.cpp      **** 									vasynth.vcavcflfo_waveform_ = WAVE_SQUARE;
 2176              		.loc 13 278 9 view .LVU690
 279:main.cpp      **** 									break;
 2177              		.loc 13 279 10 view .LVU691
 279:main.cpp      **** 									break;
 2178              		.loc 13 279 38 is_stmt 0 view .LVU692
 2179 039c 154B     		ldr	r3, .L150
 2180 039e 0222     		movs	r2, #2
 2181 03a0 83F86820 		strb	r2, [r3, #104]
 280:main.cpp      **** 								case 3:
 2182              		.loc 13 280 10 is_stmt 1 view .LVU693
 2183 03a4 ECE7     		b	.L126
 2184              	.L131:
 272:main.cpp      **** 									vasynth.vcavcflfo_waveform_ = WAVE_TRI;
 2185              		.loc 13 272 9 view .LVU694
 273:main.cpp      **** 									break;
 2186              		.loc 13 273 10 view .LVU695
 273:main.cpp      **** 									break;
 2187              		.loc 13 273 38 is_stmt 0 view .LVU696
 2188 03a6 134B     		ldr	r3, .L150
 2189 03a8 0022     		movs	r2, #0
 2190 03aa 83F86820 		strb	r2, [r3, #104]
 274:main.cpp      **** 								case 1:
 2191              		.loc 13 274 10 is_stmt 1 view .LVU697
 2192 03ae E7E7     		b	.L126
 2193              	.L130:
 275:main.cpp      **** 									vasynth.vcavcflfo_waveform_ = WAVE_SAW;
 2194              		.loc 13 275 9 view .LVU698
 276:main.cpp      **** 									break;
 2195              		.loc 13 276 10 view .LVU699
 276:main.cpp      **** 									break;
 2196              		.loc 13 276 38 is_stmt 0 view .LVU700
 2197 03b0 104B     		ldr	r3, .L150
 2198 03b2 0122     		movs	r2, #1
 2199 03b4 83F86820 		strb	r2, [r3, #104]
 277:main.cpp      **** 								case 2:
 2200              		.loc 13 277 10 is_stmt 1 view .LVU701
 2201 03b8 E2E7     		b	.L126
 2202              	.L121:
 157:main.cpp      **** 									vasynth.osc2_waveform_ = WAVE_POLYBLEP_SAW;
 2203              		.loc 13 157 9 view .LVU702
 158:main.cpp      **** 									break;
 2204              		.loc 13 158 10 view .LVU703
 158:main.cpp      **** 									break;
 2205              		.loc 13 158 33 is_stmt 0 view .LVU704
 2206 03ba 0E4B     		ldr	r3, .L150
 2207 03bc 0322     		movs	r2, #3
 2208 03be 1A75     		strb	r2, [r3, #20]
 159:main.cpp      **** 							}
ARM GAS  /var/folders/kw/h2sg8jtn02b91cpsjc1nlpg80000gn/T//ccz3jKAs.s 			page 84


 2209              		.loc 13 159 10 is_stmt 1 view .LVU705
 2210 03c0 D3E7     		b	.L115
 2211              	.L123:
 154:main.cpp      **** 									vasynth.osc2_waveform_ = WAVE_SQUARE;
 2212              		.loc 13 154 9 view .LVU706
 155:main.cpp      **** 									break;
 2213              		.loc 13 155 10 view .LVU707
 155:main.cpp      **** 									break;
 2214              		.loc 13 155 33 is_stmt 0 view .LVU708
 2215 03c2 0C4B     		ldr	r3, .L150
 2216 03c4 0222     		movs	r2, #2
 2217 03c6 1A75     		strb	r2, [r3, #20]
 156:main.cpp      **** 								case 3:
 2218              		.loc 13 156 10 is_stmt 1 view .LVU709
 2219 03c8 CFE7     		b	.L115
 2220              	.L124:
 151:main.cpp      **** 									vasynth.osc2_waveform_ = WAVE_SAW;
 2221              		.loc 13 151 9 view .LVU710
 152:main.cpp      **** 									break;
 2222              		.loc 13 152 10 view .LVU711
 152:main.cpp      **** 									break;
 2223              		.loc 13 152 33 is_stmt 0 view .LVU712
 2224 03ca 0A4B     		ldr	r3, .L150
 2225 03cc 0122     		movs	r2, #1
 2226 03ce 1A75     		strb	r2, [r3, #20]
 153:main.cpp      **** 								case 2:
 2227              		.loc 13 153 10 is_stmt 1 view .LVU713
 2228 03d0 CBE7     		b	.L115
 2229              	.L125:
 148:main.cpp      **** 									vasynth.osc2_waveform_ = WAVE_TRI;
 2230              		.loc 13 148 9 view .LVU714
 149:main.cpp      **** 									break;
 2231              		.loc 13 149 10 view .LVU715
 149:main.cpp      **** 									break;
 2232              		.loc 13 149 33 is_stmt 0 view .LVU716
 2233 03d2 084B     		ldr	r3, .L150
 2234 03d4 0022     		movs	r2, #0
 2235 03d6 1A75     		strb	r2, [r3, #20]
 150:main.cpp      **** 								case 1:
 2236              		.loc 13 150 10 is_stmt 1 view .LVU717
 2237 03d8 C7E7     		b	.L115
 2238              	.LVL112:
 2239              	.L147:
 150:main.cpp      **** 								case 1:
 2240              		.loc 13 150 10 is_stmt 0 view .LVU718
 2241              	.LBE430:
 2242              	.LBB431:
  82:main.cpp      **** 				}
 2243              		.loc 13 82 6 is_stmt 1 view .LVU719
  82:main.cpp      **** 				}
 2244              		.loc 13 82 21 is_stmt 0 view .LVU720
 2245 03da 1146     		mov	r1, r2
 2246 03dc 44F08000 		orr	r0, r4, #128
 2247 03e0 0192     		str	r2, [sp, #4]
 2248 03e2 FFF7FEFF 		bl	_Z15SequencerRecordhh
 2249              	.LVL113:
  82:main.cpp      **** 				}
ARM GAS  /var/folders/kw/h2sg8jtn02b91cpsjc1nlpg80000gn/T//ccz3jKAs.s 			page 85


 2250              		.loc 13 82 21 view .LVU721
 2251 03e6 019A     		ldr	r2, [sp, #4]
 2252 03e8 78E6     		b	.L85
 2253              	.LVL114:
 2254              	.L146:
  82:main.cpp      **** 				}
 2255              		.loc 13 82 21 view .LVU722
 2256              	.LBE431:
 2257              	.LBB432:
  96:main.cpp      **** 				}
 2258              		.loc 13 96 6 is_stmt 1 view .LVU723
  96:main.cpp      **** 				}
 2259              		.loc 13 96 21 is_stmt 0 view .LVU724
 2260 03ea 0021     		movs	r1, #0
 2261 03ec 2046     		mov	r0, r4
 2262 03ee FFF7FEFF 		bl	_Z15SequencerRecordhh
 2263              	.LVL115:
  96:main.cpp      **** 				}
 2264              		.loc 13 96 21 view .LVU725
 2265 03f2 62E6     		b	.L87
 2266              	.L151:
 2267              		.align	2
 2268              	.L150:
 2269 03f4 00000000 		.word	.LANCHOR1
 2270 03f8 0000FE42 		.word	1123942400
 2271 03fc 00000000 		.word	.LANCHOR2
 2272 0400 00000000 		.word	.LANCHOR4
 2273 0404 02000020 		.word	536870914
 2274 0408 00000000 		.word	.LANCHOR8
 2275              	.LBE432:
 2276              	.LBE444:
 2277              		.cfi_endproc
 2278              	.LFE4854:
 2280              		.section	.text._Z9writeSrammh,"ax",%progbits
 2281              		.align	1
 2282              		.p2align 2,,3
 2283              		.global	_Z9writeSrammh
 2284              		.syntax unified
 2285              		.thumb
 2286              		.thumb_func
 2288              	_Z9writeSrammh:
 2289              	.LVL116:
 2290              	.LFB4857:
 424:main.cpp      ****   /* Pointer write on specific location of backup SRAM */
 2291              		.loc 13 424 1 is_stmt 1 view -0
 2292              		.cfi_startproc
 2293              		@ args = 0, pretend = 0, frame = 0
 2294              		@ frame_needed = 0, uses_anonymous_args = 0
 2295              		@ link register save eliminated.
 426:main.cpp      **** }
 2296              		.loc 13 426 3 view .LVU727
 426:main.cpp      **** }
 2297              		.loc 13 426 47 is_stmt 0 view .LVU728
 2298 0000 00F10050 		add	r0, r0, #536870912
 2299              	.LVL117:
 426:main.cpp      **** }
 2300              		.loc 13 426 57 view .LVU729
ARM GAS  /var/folders/kw/h2sg8jtn02b91cpsjc1nlpg80000gn/T//ccz3jKAs.s 			page 86


 2301 0004 0170     		strb	r1, [r0]
 427:main.cpp      **** 
 2302              		.loc 13 427 1 view .LVU730
 2303 0006 7047     		bx	lr
 2304              		.cfi_endproc
 2305              	.LFE4857:
 2307              		.section	.text._Z8readSramm,"ax",%progbits
 2308              		.align	1
 2309              		.p2align 2,,3
 2310              		.global	_Z8readSramm
 2311              		.syntax unified
 2312              		.thumb
 2313              		.thumb_func
 2315              	_Z8readSramm:
 2316              	.LVL118:
 2317              	.LFB4858:
 430:main.cpp      ****   uint8_t i_retval;
 2318              		.loc 13 430 1 is_stmt 1 view -0
 2319              		.cfi_startproc
 2320              		@ args = 0, pretend = 0, frame = 0
 2321              		@ frame_needed = 0, uses_anonymous_args = 0
 2322              		@ link register save eliminated.
 431:main.cpp      **** 	
 2323              		.loc 13 431 3 view .LVU732
 434:main.cpp      **** 	
