ARM GAS  /var/folders/kw/h2sg8jtn02b91cpsjc1nlpg80000gn/T//cc850yBR.s 			page 1


   1              		.cpu cortex-m7
   2              		.arch armv7e-m
   3              		.fpu fpv5-d16
   4              		.eabi_attribute 28, 1
   5              		.eabi_attribute 20, 1
   6              		.eabi_attribute 21, 1
   7              		.eabi_attribute 23, 3
   8              		.eabi_attribute 24, 1
   9              		.eabi_attribute 25, 1
  10              		.eabi_attribute 26, 1
  11              		.eabi_attribute 30, 2
  12              		.eabi_attribute 34, 1
  13              		.eabi_attribute 18, 4
  14              		.file	"vasynth.cpp"
  15              		.text
  16              	.Ltext0:
  17              		.cfi_sections	.debug_frame
  18              		.section	.text._ZN7VASynth4InitEv,"ax",%progbits
  19              		.align	1
  20              		.p2align 2,,3
  21              		.global	_ZN7VASynth4InitEv
  22              		.syntax unified
  23              		.thumb
  24              		.thumb_func
  26              	_ZN7VASynth4InitEv:
  27              	.LVL0:
  28              	.LFB4853:
  29              		.file 1 "vasynth.cpp"
   1:vasynth.cpp   **** #include "main.h"
   2:vasynth.cpp   **** #include "daisy_seed.h"
   3:vasynth.cpp   **** #include "daisysp.h"
   4:vasynth.cpp   **** 
   5:vasynth.cpp   **** 
   6:vasynth.cpp   **** #include "vasynth.h"
   7:vasynth.cpp   **** 
   8:vasynth.cpp   **** using namespace daisy;
   9:vasynth.cpp   **** using namespace daisysp;
  10:vasynth.cpp   **** 
  11:vasynth.cpp   **** // globals
  12:vasynth.cpp   **** extern DaisySeed hardware;
  13:vasynth.cpp   **** extern float sysSampleRate;
  14:vasynth.cpp   **** extern uint8_t gPlay;
  15:vasynth.cpp   **** 
  16:vasynth.cpp   **** extern uint8_t param_;
  17:vasynth.cpp   **** extern float pitch_bend;
  18:vasynth.cpp   **** extern float master_tune;
  19:vasynth.cpp   **** 
  20:vasynth.cpp   **** extern DelayLine<float, DELAY_MAX> DSY_SDRAM_BSS delay_;
  21:vasynth.cpp   **** 
  22:vasynth.cpp   **** // presets
  23:vasynth.cpp   **** 
  24:vasynth.cpp   **** uint8_t preset_max = PRESET_MAX;
  25:vasynth.cpp   **** uint8_t preset_number = 0;
  26:vasynth.cpp   **** 
  27:vasynth.cpp   **** VASynthSetting preset_setting[PRESET_MAX] = 
  28:vasynth.cpp   **** {
  29:vasynth.cpp   **** 	{//1
ARM GAS  /var/folders/kw/h2sg8jtn02b91cpsjc1nlpg80000gn/T//cc850yBR.s 			page 2


  30:vasynth.cpp   **** 		WAVE_POLYBLEP_SAW, 0.5f, 0.0f, 0.5f,
  31:vasynth.cpp   **** 		WAVE_POLYBLEP_SAW, 0.06f, 1.0f, 0.5f,
  32:vasynth.cpp   **** 		0.0f, 0.4f, 1.0f, 0.1f,   0.0f, 0.4f, 0.2f, 0.1f,
  33:vasynth.cpp   **** 		WAVE_TRI, 0.5f, 0.0f,
  34:vasynth.cpp   **** 		WAVE_TRI, 0.2f, 0.2f,
  35:vasynth.cpp   **** 		WAVE_TRI, 0.1f, 0.2f,
  36:vasynth.cpp   **** 		WAVE_SAW, 0.2f, 0.0f,
  37:vasynth.cpp   **** 		0.0f, 0.0f,
  38:vasynth.cpp   **** 		0.2f, FILTER_CUTOFF_MAX, 1.0f, 1, MIDI_CHANNEL_ONE
  39:vasynth.cpp   **** 	}
  40:vasynth.cpp   **** };
  41:vasynth.cpp   **** 
  42:vasynth.cpp   **** /*
  43:vasynth.cpp   **** osc_waveform, osc_mix, detune, osc_pw,
  44:vasynth.cpp   **** osc2_waveform, osc2_detune, osc2_transpose, osc2_pw,
  45:vasynth.cpp   **** eg_a_attack, d, s, r,
  46:vasynth.cpp   **** eg_f_attack, d, s, r,
  47:vasynth.cpp   **** lfo_waveform, lfo_freq, lfo_amp,
  48:vasynth.cpp   **** pwmlfo_waveform, pwmlfo_freq, pwmlfo_amp,
  49:vasynth.cpp   **** pwm2lfo_waveform, pwm2lfo_freq, pwm2lfo_amp,
  50:vasynth.cpp   **** vcavcflfo_waveform, vcavcflfo_freq, vcavcflfo_amp,
  51:vasynth.cpp   **** vcf_kbd_follow, env_kbd_follow,
  52:vasynth.cpp   **** filter_res, filter_cutoff, eg_f_amount, vel_select, midi_channel;
  53:vasynth.cpp   **** */
  54:vasynth.cpp   **** 
  55:vasynth.cpp   **** void VASynth::Init()
  56:vasynth.cpp   **** {
  30              		.loc 1 56 1 view -0
  31              		.cfi_startproc
  32              		@ args = 0, pretend = 0, frame = 8
  33              		@ frame_needed = 0, uses_anonymous_args = 0
  57:vasynth.cpp   **** 	for (uint8_t i = 0; i < VOICES_MAX; i++)
  34              		.loc 1 57 2 view .LVU1
  35              	.LBB214:
  36              		.loc 1 57 24 view .LVU2
  37              	.LBE214:
  56:vasynth.cpp   **** 	for (uint8_t i = 0; i < VOICES_MAX; i++)
  38              		.loc 1 56 1 is_stmt 0 view .LVU3
  39 0000 2DE9F047 		push	{r4, r5, r6, r7, r8, r9, r10, lr}
  40              		.cfi_def_cfa_offset 32
  41              		.cfi_offset 4, -32
  42              		.cfi_offset 5, -28
  43              		.cfi_offset 6, -24
  44              		.cfi_offset 7, -20
  45              		.cfi_offset 8, -16
  46              		.cfi_offset 9, -12
  47              		.cfi_offset 10, -8
  48              		.cfi_offset 14, -4
  49 0004 0546     		mov	r5, r0
  50 0006 00F58A74 		add	r4, r0, #276
  51 000a 00F28446 		addw	r6, r0, #1156
  52 000e 00F28478 		addw	r8, r0, #1924
  53 0012 00F51D79 		add	r9, r0, #628
  54 0016 2DED068B 		vpush.64	{d8, d9, d10}
  55              		.cfi_def_cfa_offset 56
  56              		.cfi_offset 80, -56
  57              		.cfi_offset 81, -52
ARM GAS  /var/folders/kw/h2sg8jtn02b91cpsjc1nlpg80000gn/T//cc850yBR.s 			page 3


  58              		.cfi_offset 82, -48
  59              		.cfi_offset 83, -44
  60              		.cfi_offset 84, -40
  61              		.cfi_offset 85, -36
  62 001a 82B0     		sub	sp, sp, #8
  63              		.cfi_def_cfa_offset 64
  64 001c 46E0     		b	.L6
  65              	.LVL1:
  66              	.L19:
  67              	.LBB310:
  68              	.LBB215:
  69              	.LBB216:
  70              		.file 2 "../../DaisySP/Source/Control/adsr.h"
   1:../../DaisySP/Source/Control/adsr.h **** /*
   2:../../DaisySP/Source/Control/adsr.h **** Copyright (c) 2020 Electrosmith, Corp, Paul Batchelor
   3:../../DaisySP/Source/Control/adsr.h **** 
   4:../../DaisySP/Source/Control/adsr.h **** Use of this source code is governed by an MIT-style
   5:../../DaisySP/Source/Control/adsr.h **** license that can be found in the LICENSE file or at
   6:../../DaisySP/Source/Control/adsr.h **** https://opensource.org/licenses/MIT.
   7:../../DaisySP/Source/Control/adsr.h **** */
   8:../../DaisySP/Source/Control/adsr.h **** 
   9:../../DaisySP/Source/Control/adsr.h **** #pragma once
  10:../../DaisySP/Source/Control/adsr.h **** #ifndef DSY_ADSR_H
  11:../../DaisySP/Source/Control/adsr.h **** #define DSY_ADSR_H
  12:../../DaisySP/Source/Control/adsr.h **** 
  13:../../DaisySP/Source/Control/adsr.h **** #include <stdint.h>
  14:../../DaisySP/Source/Control/adsr.h **** #ifdef __cplusplus
  15:../../DaisySP/Source/Control/adsr.h **** 
  16:../../DaisySP/Source/Control/adsr.h **** namespace daisysp
  17:../../DaisySP/Source/Control/adsr.h **** {
  18:../../DaisySP/Source/Control/adsr.h **** /** Distinct stages that the phase of the envelope can be located in.
  19:../../DaisySP/Source/Control/adsr.h **** - IDLE   = located at phase location 0, and not currently running
  20:../../DaisySP/Source/Control/adsr.h **** - ATTACK  = First segment of envelope where phase moves from 0 to 1
  21:../../DaisySP/Source/Control/adsr.h **** - DECAY   = Second segment of envelope where phase moves from 1 to SUSTAIN value
  22:../../DaisySP/Source/Control/adsr.h **** - RELEASE =     Fourth segment of envelop where phase moves from SUSTAIN to 0
  23:../../DaisySP/Source/Control/adsr.h **** */
  24:../../DaisySP/Source/Control/adsr.h **** enum
  25:../../DaisySP/Source/Control/adsr.h **** {
  26:../../DaisySP/Source/Control/adsr.h ****     ADSR_SEG_IDLE    = 0,
  27:../../DaisySP/Source/Control/adsr.h ****     ADSR_SEG_ATTACK  = 1,
  28:../../DaisySP/Source/Control/adsr.h ****     ADSR_SEG_DECAY   = 2,
  29:../../DaisySP/Source/Control/adsr.h ****     ADSR_SEG_RELEASE = 4
  30:../../DaisySP/Source/Control/adsr.h **** };
  31:../../DaisySP/Source/Control/adsr.h **** 
  32:../../DaisySP/Source/Control/adsr.h **** 
  33:../../DaisySP/Source/Control/adsr.h **** /** adsr envelope module
  34:../../DaisySP/Source/Control/adsr.h **** 
  35:../../DaisySP/Source/Control/adsr.h **** Original author(s) : Paul Batchelor
  36:../../DaisySP/Source/Control/adsr.h **** 
  37:../../DaisySP/Source/Control/adsr.h **** Ported from Soundpipe by Ben Sergentanis, May 2020
  38:../../DaisySP/Source/Control/adsr.h ****  
  39:../../DaisySP/Source/Control/adsr.h **** Remake by Steffan DIedrichsen, May 2021
  40:../../DaisySP/Source/Control/adsr.h **** */
  41:../../DaisySP/Source/Control/adsr.h **** class Adsr
  42:../../DaisySP/Source/Control/adsr.h **** {
  43:../../DaisySP/Source/Control/adsr.h ****   public:
  44:../../DaisySP/Source/Control/adsr.h ****     Adsr() {}
ARM GAS  /var/folders/kw/h2sg8jtn02b91cpsjc1nlpg80000gn/T//cc850yBR.s 			page 4


  45:../../DaisySP/Source/Control/adsr.h ****     ~Adsr() {}
  46:../../DaisySP/Source/Control/adsr.h ****     /** Initializes the Adsr module.
  47:../../DaisySP/Source/Control/adsr.h ****         \param sample_rate - The sample rate of the audio engine being run. 
  48:../../DaisySP/Source/Control/adsr.h ****     */
  49:../../DaisySP/Source/Control/adsr.h ****     void Init(float sample_rate, int blockSize = 1);
  50:../../DaisySP/Source/Control/adsr.h ****     /**
  51:../../DaisySP/Source/Control/adsr.h ****      \function Retrigger forces the envelope back to attack phase
  52:../../DaisySP/Source/Control/adsr.h ****      \param hard  resets the history to zero, results in a click.
  53:../../DaisySP/Source/Control/adsr.h ****      */
  54:../../DaisySP/Source/Control/adsr.h ****     void Retrigger(bool hard);
  55:../../DaisySP/Source/Control/adsr.h ****     /** Processes one sample through the filter and returns one sample.
  56:../../DaisySP/Source/Control/adsr.h ****         \param gate - trigger the envelope, hold it to sustain 
  57:../../DaisySP/Source/Control/adsr.h ****     */
  58:../../DaisySP/Source/Control/adsr.h ****     float Process(bool gate);
  59:../../DaisySP/Source/Control/adsr.h ****     /** Sets time
  60:../../DaisySP/Source/Control/adsr.h ****         Set time per segment in seconds
  61:../../DaisySP/Source/Control/adsr.h ****     */
  62:../../DaisySP/Source/Control/adsr.h ****     void SetTime(int seg, float time);
  63:../../DaisySP/Source/Control/adsr.h ****     void SetAttackTime(float timeInS, float shape = 0.0f);
  64:../../DaisySP/Source/Control/adsr.h ****     void SetDecayTime(float timeInS);
  65:../../DaisySP/Source/Control/adsr.h ****     void SetReleaseTime(float timeInS);
  66:../../DaisySP/Source/Control/adsr.h **** 
  67:../../DaisySP/Source/Control/adsr.h ****   private:
  68:../../DaisySP/Source/Control/adsr.h ****     void SetTimeConstant(float timeInS, float& time, float& coeff);
  69:../../DaisySP/Source/Control/adsr.h **** 
  70:../../DaisySP/Source/Control/adsr.h ****   public:
  71:../../DaisySP/Source/Control/adsr.h ****     /** Sustain level
  72:../../DaisySP/Source/Control/adsr.h ****         \param sus_level - sets sustain level, 0...1.0
  73:../../DaisySP/Source/Control/adsr.h ****     */
  74:../../DaisySP/Source/Control/adsr.h ****     inline void SetSustainLevel(float sus_level)
  75:../../DaisySP/Source/Control/adsr.h ****     {
  76:../../DaisySP/Source/Control/adsr.h ****         sus_level = (sus_level <= 0.f) ? -0.01f // forces envelope into idle
  77:../../DaisySP/Source/Control/adsr.h ****                                        : (sus_level > 1.f) ? 1.f : sus_level;
  71              		.loc 2 77 60 view .LVU4
  72 001e F4EE487A 		vcmp.f32	s15, s16
  73 0022 F1EE10FA 		vmrs	APSR_nzcv, FPSCR
  74 0026 78FE277A 		vselgt.f32	s15, s16, s15
  75              	.LVL2:
  76              	.L4:
  78:../../DaisySP/Source/Control/adsr.h ****         sus_level_ = sus_level;
  77              		.loc 2 78 9 is_stmt 1 view .LVU5
  78 002a 06F5C070 		add	r0, r6, #384
  79              		.loc 2 78 20 is_stmt 0 view .LVU6
  80 002e C6ED007A 		vstr.32	s15, [r6]
  81              	.LVL3:
  82              		.loc 2 78 20 view .LVU7
  83              	.LBE216:
  84              	.LBE215:
  58:vasynth.cpp   **** 	{
  59:vasynth.cpp   **** 		// oscillator
  60:vasynth.cpp   **** 		osc_[i].Init(sample_rate_);
  61:vasynth.cpp   **** 		osc_[i].SetWaveform(waveform_);
  62:vasynth.cpp   **** 		osc_[i].SetAmp(1.0f); // default
  63:vasynth.cpp   **** 		osc_[i].SetFreq(440.0f); // default
  64:vasynth.cpp   **** 		osc_[i].SetPw(0.5f);
  65:vasynth.cpp   **** 
  66:vasynth.cpp   **** 		osc2_[i].Init(sample_rate_);
ARM GAS  /var/folders/kw/h2sg8jtn02b91cpsjc1nlpg80000gn/T//cc850yBR.s 			page 5


  67:vasynth.cpp   **** 		osc2_[i].SetWaveform(osc2_waveform_);
  68:vasynth.cpp   **** 		osc2_[i].SetAmp(1.0f); // default
  69:vasynth.cpp   **** 		osc2_[i].SetFreq(440.0f * osc2_detune_); // default
  70:vasynth.cpp   **** 		osc2_[i].SetPw(0.5f);
  71:vasynth.cpp   **** 		
  72:vasynth.cpp   **** 		// EG - amplitude
  73:vasynth.cpp   **** 		
  74:vasynth.cpp   **** 		
  75:vasynth.cpp   **** 		eg_a_[i].Init(sample_rate_);
  76:vasynth.cpp   **** 		eg_a_[i].SetTime(ADSR_SEG_ATTACK, eg_a_attack_);
  77:vasynth.cpp   **** 		eg_a_[i].SetTime(ADSR_SEG_DECAY, eg_a_decay_);
  78:vasynth.cpp   **** 		eg_a_[i].SetTime(ADSR_SEG_RELEASE, eg_a_release_);
  79:vasynth.cpp   **** 		eg_a_[i].SetSustainLevel(eg_a_sustain_);
  80:vasynth.cpp   **** 
  81:vasynth.cpp   **** 		// EG - filter
  82:vasynth.cpp   **** 		eg_f_[i].Init(sample_rate_);
  85              		.loc 1 82 3 is_stmt 1 view .LVU8
  86              		.loc 1 82 16 is_stmt 0 view .LVU9
  87 0032 0121     		movs	r1, #1
  88 0034 95ED000A 		vldr.32	s0, [r5]
  89 0038 0190     		str	r0, [sp, #4]
  90 003a FFF7FEFF 		bl	_ZN7daisysp4Adsr4InitEfi
  91              	.LVL4:
  83:vasynth.cpp   **** 		eg_f_[i].SetTime(ADSR_SEG_ATTACK, eg_f_attack_);
  92              		.loc 1 83 3 is_stmt 1 view .LVU10
  93              		.loc 1 83 19 is_stmt 0 view .LVU11
  94 003e 95ED0D0A 		vldr.32	s0, [r5, #52]
  95 0042 0121     		movs	r1, #1
  96 0044 0198     		ldr	r0, [sp, #4]
  97 0046 FFF7FEFF 		bl	_ZN7daisysp4Adsr7SetTimeEif
  98              	.LVL5:
  84:vasynth.cpp   **** 		eg_f_[i].SetTime(ADSR_SEG_DECAY, eg_f_decay_);
  99              		.loc 1 84 3 is_stmt 1 view .LVU12
 100              		.loc 1 84 19 is_stmt 0 view .LVU13
 101 004a 95ED0E0A 		vldr.32	s0, [r5, #56]
 102 004e 0221     		movs	r1, #2
 103 0050 0198     		ldr	r0, [sp, #4]
 104 0052 FFF7FEFF 		bl	_ZN7daisysp4Adsr7SetTimeEif
 105              	.LVL6:
  85:vasynth.cpp   **** 		eg_f_[i].SetTime(ADSR_SEG_RELEASE, eg_f_release_);
 106              		.loc 1 85 3 is_stmt 1 view .LVU14
 107              		.loc 1 85 19 is_stmt 0 view .LVU15
 108 0056 95ED100A 		vldr.32	s0, [r5, #64]
 109 005a 0421     		movs	r1, #4
 110 005c 0198     		ldr	r0, [sp, #4]
 111 005e FFF7FEFF 		bl	_ZN7daisysp4Adsr7SetTimeEif
 112              	.LVL7:
  86:vasynth.cpp   **** 		eg_f_[i].SetSustainLevel(eg_f_sustain_);
 113              		.loc 1 86 3 is_stmt 1 view .LVU16
 114              		.loc 1 86 27 is_stmt 0 view .LVU17
 115 0062 D5ED0F7A 		vldr.32	s15, [r5, #60]
 116              	.LVL8:
 117              	.LBB218:
 118              	.LBI218:
  74:../../DaisySP/Source/Control/adsr.h ****     {
 119              		.loc 2 74 17 is_stmt 1 view .LVU18
 120              	.LBB219:
ARM GAS  /var/folders/kw/h2sg8jtn02b91cpsjc1nlpg80000gn/T//cc850yBR.s 			page 6


  76:../../DaisySP/Source/Control/adsr.h ****                                        : (sus_level > 1.f) ? 1.f : sus_level;
 121              		.loc 2 76 9 view .LVU19
  76:../../DaisySP/Source/Control/adsr.h ****                                        : (sus_level > 1.f) ? 1.f : sus_level;
 122              		.loc 2 76 40 is_stmt 0 view .LVU20
 123 0066 F5EEC07A 		vcmpe.f32	s15, #0
 124 006a F1EE10FA 		vmrs	APSR_nzcv, FPSCR
 125 006e 40F2B080 		bls	.L13
  77:../../DaisySP/Source/Control/adsr.h ****         sus_level_ = sus_level;
 126              		.loc 2 77 60 view .LVU21
 127 0072 B7EE007A 		vmov.f32	s14, #1.0e+0
 128 0076 F4EE477A 		vcmp.f32	s15, s14
 129 007a F1EE10FA 		vmrs	APSR_nzcv, FPSCR
 130 007e 77FE277A 		vselgt.f32	s15, s14, s15
 131              	.LVL9:
 132              	.L5:
 133              		.loc 2 78 9 is_stmt 1 view .LVU22
 134              	.LBE219:
 135              	.LBE218:
  87:vasynth.cpp   **** 
  88:vasynth.cpp   **** 		// LP - filter
  89:vasynth.cpp   **** 		flt[i].Init(sample_rate_);
 136              		.loc 1 89 14 is_stmt 0 view .LVU23
 137 0082 4046     		mov	r0, r8
 138              	.LBB222:
 139              	.LBB220:
 140              		.loc 2 78 20 view .LVU24
 141 0084 C6ED607A 		vstr.32	s15, [r6, #384]
 142              	.LVL10:
 143              		.loc 2 78 20 view .LVU25
 144              	.LBE220:
 145              	.LBE222:
 146              		.loc 1 89 3 is_stmt 1 view .LVU26
 147              		.loc 1 89 14 is_stmt 0 view .LVU27
 148 0088 95ED000A 		vldr.32	s0, [r5]
  57:vasynth.cpp   **** 	{
 149              		.loc 1 57 24 view .LVU28
 150 008c 08F14408 		add	r8, r8, #68
 151              		.loc 1 89 14 view .LVU29
 152 0090 FFF7FEFF 		bl	_ZN7daisysp10MoogLadder4InitEf
 153              	.LVL11:
  90:vasynth.cpp   **** 		flt[i].SetFreq(filter_cutoff_);
 154              		.loc 1 90 3 is_stmt 1 view .LVU30
  57:vasynth.cpp   **** 	{
 155              		.loc 1 57 24 is_stmt 0 view .LVU31
 156 0094 2C34     		adds	r4, r4, #44
 157              	.LVL12:
 158              		.loc 1 90 17 view .LVU32
 159 0096 D5F88030 		ldr	r3, [r5, #128]	@ float
 160              	.LVL13:
 161              	.LBB223:
 162              	.LBI223:
 163              		.file 3 "../../DaisySP/DaisySP-LGPL/Source/Filters/moogladder.h"
   1:../../DaisySP/DaisySP-LGPL/Source/Filters/moogladder.h **** /*
   2:../../DaisySP/DaisySP-LGPL/Source/Filters/moogladder.h **** Copyright (c) 2023 Electrosmith, Corp, Victor Lazzarini, John ffitch (fast tanh), Bob Moog
   3:../../DaisySP/DaisySP-LGPL/Source/Filters/moogladder.h **** 
   4:../../DaisySP/DaisySP-LGPL/Source/Filters/moogladder.h **** Use of this source code is governed by the LGPL V2.1
   5:../../DaisySP/DaisySP-LGPL/Source/Filters/moogladder.h **** license that can be found in the LICENSE file or at
ARM GAS  /var/folders/kw/h2sg8jtn02b91cpsjc1nlpg80000gn/T//cc850yBR.s 			page 7


   6:../../DaisySP/DaisySP-LGPL/Source/Filters/moogladder.h **** https://opensource.org/license/lgpl-2-1/
   7:../../DaisySP/DaisySP-LGPL/Source/Filters/moogladder.h **** */
   8:../../DaisySP/DaisySP-LGPL/Source/Filters/moogladder.h **** 
   9:../../DaisySP/DaisySP-LGPL/Source/Filters/moogladder.h **** #pragma once
  10:../../DaisySP/DaisySP-LGPL/Source/Filters/moogladder.h **** #ifndef DSY_MOOGLADDER_H
  11:../../DaisySP/DaisySP-LGPL/Source/Filters/moogladder.h **** #define DSY_MOOGLADDER_H
  12:../../DaisySP/DaisySP-LGPL/Source/Filters/moogladder.h **** 
  13:../../DaisySP/DaisySP-LGPL/Source/Filters/moogladder.h **** #include <stdint.h>
  14:../../DaisySP/DaisySP-LGPL/Source/Filters/moogladder.h **** #ifdef __cplusplus
  15:../../DaisySP/DaisySP-LGPL/Source/Filters/moogladder.h **** 
  16:../../DaisySP/DaisySP-LGPL/Source/Filters/moogladder.h **** namespace daisysp
  17:../../DaisySP/DaisySP-LGPL/Source/Filters/moogladder.h **** {
  18:../../DaisySP/DaisySP-LGPL/Source/Filters/moogladder.h **** /** Moog ladder filter module*/
  19:../../DaisySP/DaisySP-LGPL/Source/Filters/moogladder.h **** class MoogLadder
  20:../../DaisySP/DaisySP-LGPL/Source/Filters/moogladder.h **** {
  21:../../DaisySP/DaisySP-LGPL/Source/Filters/moogladder.h ****   public:
  22:../../DaisySP/DaisySP-LGPL/Source/Filters/moogladder.h ****     MoogLadder() {}
  23:../../DaisySP/DaisySP-LGPL/Source/Filters/moogladder.h ****     ~MoogLadder() {}
  24:../../DaisySP/DaisySP-LGPL/Source/Filters/moogladder.h ****     /** Initializes the MoogLadder module.
  25:../../DaisySP/DaisySP-LGPL/Source/Filters/moogladder.h ****         sample_rate - The sample rate of the audio engine being run. 
  26:../../DaisySP/DaisySP-LGPL/Source/Filters/moogladder.h ****     */
  27:../../DaisySP/DaisySP-LGPL/Source/Filters/moogladder.h ****     void Init(float sample_rate);
  28:../../DaisySP/DaisySP-LGPL/Source/Filters/moogladder.h **** 
  29:../../DaisySP/DaisySP-LGPL/Source/Filters/moogladder.h **** 
  30:../../DaisySP/DaisySP-LGPL/Source/Filters/moogladder.h ****     /** Processes the lowpass filter
  31:../../DaisySP/DaisySP-LGPL/Source/Filters/moogladder.h ****     */
  32:../../DaisySP/DaisySP-LGPL/Source/Filters/moogladder.h ****     float Process(float in);
  33:../../DaisySP/DaisySP-LGPL/Source/Filters/moogladder.h **** 
  34:../../DaisySP/DaisySP-LGPL/Source/Filters/moogladder.h ****     /** 
  35:../../DaisySP/DaisySP-LGPL/Source/Filters/moogladder.h ****         Sets the cutoff frequency or half-way point of the filter.
  36:../../DaisySP/DaisySP-LGPL/Source/Filters/moogladder.h ****         Arguments
  37:../../DaisySP/DaisySP-LGPL/Source/Filters/moogladder.h ****         - freq - frequency value in Hz. Range: Any positive value.
  38:../../DaisySP/DaisySP-LGPL/Source/Filters/moogladder.h ****     */
  39:../../DaisySP/DaisySP-LGPL/Source/Filters/moogladder.h ****     inline void SetFreq(float freq) { freq_ = freq; }
 164              		.loc 3 39 17 is_stmt 1 view .LVU33
 165              	.LBB224:
 166              		.loc 3 39 39 view .LVU34
 167              	.LBE224:
 168              	.LBE223:
  57:vasynth.cpp   **** 	{
 169              		.loc 1 57 24 is_stmt 0 view .LVU35
 170 009a 3036     		adds	r6, r6, #48
 171 009c 4C45     		cmp	r4, r9
 172              	.LBB226:
 173              	.LBB225:
 174              		.loc 3 39 45 view .LVU36
 175 009e 48F83C3C 		str	r3, [r8, #-60]	@ float
 176              	.LVL14:
 177              		.loc 3 39 45 view .LVU37
 178              	.LBE225:
 179              	.LBE226:
  91:vasynth.cpp   **** 		flt[i].SetRes(filter_res_);
 180              		.loc 1 91 3 is_stmt 1 view .LVU38
 181              		.loc 1 91 16 is_stmt 0 view .LVU39
 182 00a2 EB6F     		ldr	r3, [r5, #124]	@ float
 183              	.LVL15:
 184              	.LBB227:
ARM GAS  /var/folders/kw/h2sg8jtn02b91cpsjc1nlpg80000gn/T//cc850yBR.s 			page 8


 185              	.LBI227:
  40:../../DaisySP/DaisySP-LGPL/Source/Filters/moogladder.h ****     /** 
  41:../../DaisySP/DaisySP-LGPL/Source/Filters/moogladder.h ****         Sets the resonance of the filter.
  42:../../DaisySP/DaisySP-LGPL/Source/Filters/moogladder.h ****     */
  43:../../DaisySP/DaisySP-LGPL/Source/Filters/moogladder.h ****     inline void SetRes(float res) { res_ = res; }
 186              		.loc 3 43 17 is_stmt 1 view .LVU40
 187              	.LBB228:
 188              		.loc 3 43 37 view .LVU41
 189              		.loc 3 43 42 is_stmt 0 view .LVU42
 190 00a4 48F8403C 		str	r3, [r8, #-64]	@ float
 191              	.LVL16:
 192              		.loc 3 43 42 view .LVU43
 193              	.LBE228:
 194              	.LBE227:
  57:vasynth.cpp   **** 	{
 195              		.loc 1 57 2 is_stmt 1 view .LVU44
  57:vasynth.cpp   **** 	{
 196              		.loc 1 57 24 view .LVU45
 197 00a8 00F09680 		beq	.L18
 198              	.L6:
 199              	.LVL17:
  60:vasynth.cpp   **** 		osc_[i].SetWaveform(waveform_);
 200              		.loc 1 60 3 discriminator 2 view .LVU46
 201              	.LBB229:
 202              	.LBB230:
 203              		.file 4 "../../DaisySP/Source/Synthesis/oscillator.h"
   1:../../DaisySP/Source/Synthesis/oscillator.h **** /*
   2:../../DaisySP/Source/Synthesis/oscillator.h **** Copyright (c) 2020 Electrosmith, Corp
   3:../../DaisySP/Source/Synthesis/oscillator.h **** 
   4:../../DaisySP/Source/Synthesis/oscillator.h **** Use of this source code is governed by an MIT-style
   5:../../DaisySP/Source/Synthesis/oscillator.h **** license that can be found in the LICENSE file or at
   6:../../DaisySP/Source/Synthesis/oscillator.h **** https://opensource.org/licenses/MIT.
   7:../../DaisySP/Source/Synthesis/oscillator.h **** */
   8:../../DaisySP/Source/Synthesis/oscillator.h **** 
   9:../../DaisySP/Source/Synthesis/oscillator.h **** #pragma once
  10:../../DaisySP/Source/Synthesis/oscillator.h **** #ifndef DSY_OSCILLATOR_H
  11:../../DaisySP/Source/Synthesis/oscillator.h **** #define DSY_OSCILLATOR_H
  12:../../DaisySP/Source/Synthesis/oscillator.h **** #include <stdint.h>
  13:../../DaisySP/Source/Synthesis/oscillator.h **** #include "Utility/dsp.h"
  14:../../DaisySP/Source/Synthesis/oscillator.h **** #ifdef __cplusplus
  15:../../DaisySP/Source/Synthesis/oscillator.h **** 
  16:../../DaisySP/Source/Synthesis/oscillator.h **** namespace daisysp
  17:../../DaisySP/Source/Synthesis/oscillator.h **** {
  18:../../DaisySP/Source/Synthesis/oscillator.h **** /** Synthesis of several waveforms, including polyBLEP bandlimited waveforms.
  19:../../DaisySP/Source/Synthesis/oscillator.h **** */
  20:../../DaisySP/Source/Synthesis/oscillator.h **** class Oscillator
  21:../../DaisySP/Source/Synthesis/oscillator.h **** {
  22:../../DaisySP/Source/Synthesis/oscillator.h ****   public:
  23:../../DaisySP/Source/Synthesis/oscillator.h ****     Oscillator() {}
  24:../../DaisySP/Source/Synthesis/oscillator.h ****     ~Oscillator() {}
  25:../../DaisySP/Source/Synthesis/oscillator.h ****     /** Choices for output waveforms, POLYBLEP are appropriately labeled. Others are naive forms.
  26:../../DaisySP/Source/Synthesis/oscillator.h ****     */
  27:../../DaisySP/Source/Synthesis/oscillator.h ****     enum
  28:../../DaisySP/Source/Synthesis/oscillator.h ****     {
  29:../../DaisySP/Source/Synthesis/oscillator.h ****         WAVE_SIN,
  30:../../DaisySP/Source/Synthesis/oscillator.h ****         WAVE_TRI,
  31:../../DaisySP/Source/Synthesis/oscillator.h ****         WAVE_SAW,
ARM GAS  /var/folders/kw/h2sg8jtn02b91cpsjc1nlpg80000gn/T//cc850yBR.s 			page 9


  32:../../DaisySP/Source/Synthesis/oscillator.h ****         WAVE_RAMP,
  33:../../DaisySP/Source/Synthesis/oscillator.h ****         WAVE_SQUARE,
  34:../../DaisySP/Source/Synthesis/oscillator.h ****         WAVE_POLYBLEP_TRI,
  35:../../DaisySP/Source/Synthesis/oscillator.h ****         WAVE_POLYBLEP_SAW,
  36:../../DaisySP/Source/Synthesis/oscillator.h ****         WAVE_POLYBLEP_SQUARE,
  37:../../DaisySP/Source/Synthesis/oscillator.h ****         WAVE_LAST,
  38:../../DaisySP/Source/Synthesis/oscillator.h ****     };
  39:../../DaisySP/Source/Synthesis/oscillator.h **** 
  40:../../DaisySP/Source/Synthesis/oscillator.h **** 
  41:../../DaisySP/Source/Synthesis/oscillator.h ****     /** Initializes the Oscillator
  42:../../DaisySP/Source/Synthesis/oscillator.h **** 
  43:../../DaisySP/Source/Synthesis/oscillator.h ****         \param sample_rate - sample rate of the audio engine being run, and the frequency that the 
  44:../../DaisySP/Source/Synthesis/oscillator.h **** 
  45:../../DaisySP/Source/Synthesis/oscillator.h ****         Defaults:
  46:../../DaisySP/Source/Synthesis/oscillator.h ****         - freq_ = 100 Hz
  47:../../DaisySP/Source/Synthesis/oscillator.h ****         - amp_ = 0.5
  48:../../DaisySP/Source/Synthesis/oscillator.h ****         - waveform_ = sine wave.
  49:../../DaisySP/Source/Synthesis/oscillator.h ****     */
  50:../../DaisySP/Source/Synthesis/oscillator.h ****     void Init(float sample_rate)
  51:../../DaisySP/Source/Synthesis/oscillator.h ****     {
  52:../../DaisySP/Source/Synthesis/oscillator.h ****         sr_        = sample_rate;
  53:../../DaisySP/Source/Synthesis/oscillator.h ****         sr_recip_  = 1.0f / sample_rate;
 204              		.loc 4 53 27 is_stmt 0 discriminator 2 view .LVU47
 205 00ac B7EE008A 		vmov.f32	s16, #1.0e+0
 206              	.LBE230:
 207              	.LBE229:
  60:vasynth.cpp   **** 		osc_[i].SetWaveform(waveform_);
 208              		.loc 1 60 15 discriminator 2 view .LVU48
 209 00b0 D5ED007A 		vldr.32	s15, [r5]
 210              	.LVL18:
 211              	.LBB234:
 212              	.LBI229:
  50:../../DaisySP/Source/Synthesis/oscillator.h ****     {
 213              		.loc 4 50 10 is_stmt 1 discriminator 2 view .LVU49
 214              	.LBB231:
  52:../../DaisySP/Source/Synthesis/oscillator.h ****         sr_recip_  = 1.0f / sample_rate;
 215              		.loc 4 52 9 discriminator 2 view .LVU50
  54:../../DaisySP/Source/Synthesis/oscillator.h ****         freq_      = 100.0f;
  55:../../DaisySP/Source/Synthesis/oscillator.h ****         amp_       = 0.5f;
 216              		.loc 4 55 20 is_stmt 0 discriminator 2 view .LVU51
 217 00b4 F6EE008A 		vmov.f32	s17, #5.0e-1
  54:../../DaisySP/Source/Synthesis/oscillator.h ****         freq_      = 100.0f;
 218              		.loc 4 54 20 discriminator 2 view .LVU52
 219 00b8 DFEDAA9A 		vldr.32	s19, .L20
  56:../../DaisySP/Source/Synthesis/oscillator.h ****         pw_        = 0.5f;
  57:../../DaisySP/Source/Synthesis/oscillator.h ****         phase_     = 0.0f;
 220              		.loc 4 57 20 discriminator 2 view .LVU53
 221 00bc DFEDAAAA 		vldr.32	s21, .L20+4
  58:../../DaisySP/Source/Synthesis/oscillator.h ****         phase_inc_ = CalcPhaseInc(freq_);
  59:../../DaisySP/Source/Synthesis/oscillator.h ****         waveform_  = WAVE_SIN;
  60:../../DaisySP/Source/Synthesis/oscillator.h ****         eoc_       = true;
 222              		.loc 4 60 20 discriminator 2 view .LVU54
 223 00c0 0127     		movs	r7, #1
  53:../../DaisySP/Source/Synthesis/oscillator.h ****         freq_      = 100.0f;
 224              		.loc 4 53 27 discriminator 2 view .LVU55
 225 00c2 88EE277A 		vdiv.f32	s14, s16, s15
  52:../../DaisySP/Source/Synthesis/oscillator.h ****         sr_recip_  = 1.0f / sample_rate;
ARM GAS  /var/folders/kw/h2sg8jtn02b91cpsjc1nlpg80000gn/T//cc850yBR.s 			page 10


 226              		.loc 4 52 20 discriminator 2 view .LVU56
 227 00c6 C4ED047A 		vstr.32	s15, [r4, #16]
  53:../../DaisySP/Source/Synthesis/oscillator.h ****         freq_      = 100.0f;
 228              		.loc 4 53 9 is_stmt 1 discriminator 2 view .LVU57
  58:../../DaisySP/Source/Synthesis/oscillator.h ****         phase_inc_ = CalcPhaseInc(freq_);
 229              		.loc 4 58 34 is_stmt 0 discriminator 2 view .LVU58
 230 00ca 2046     		mov	r0, r4
  54:../../DaisySP/Source/Synthesis/oscillator.h ****         amp_       = 0.5f;
 231              		.loc 4 54 20 discriminator 2 view .LVU59
 232 00cc C4ED029A 		vstr.32	s19, [r4, #8]
  55:../../DaisySP/Source/Synthesis/oscillator.h ****         pw_        = 0.5f;
 233              		.loc 4 55 20 discriminator 2 view .LVU60
 234 00d0 C4ED018A 		vstr.32	s17, [r4, #4]
 235 00d4 04F5B07A 		add	r10, r4, #352
  56:../../DaisySP/Source/Synthesis/oscillator.h ****         phase_     = 0.0f;
 236              		.loc 4 56 20 discriminator 2 view .LVU61
 237 00d8 C4ED038A 		vstr.32	s17, [r4, #12]
  57:../../DaisySP/Source/Synthesis/oscillator.h ****         phase_inc_ = CalcPhaseInc(freq_);
 238              		.loc 4 57 20 discriminator 2 view .LVU62
 239 00dc C4ED06AA 		vstr.32	s21, [r4, #24]
  58:../../DaisySP/Source/Synthesis/oscillator.h ****         waveform_  = WAVE_SIN;
 240              		.loc 4 58 34 discriminator 2 view .LVU63
 241 00e0 B0EE690A 		vmov.f32	s0, s19
 242              	.LBE231:
 243              	.LBE234:
 244              	.LBB235:
 245              	.LBB236:
  61:../../DaisySP/Source/Synthesis/oscillator.h ****         eor_       = true;
  62:../../DaisySP/Source/Synthesis/oscillator.h ****     }
  63:../../DaisySP/Source/Synthesis/oscillator.h **** 
  64:../../DaisySP/Source/Synthesis/oscillator.h **** 
  65:../../DaisySP/Source/Synthesis/oscillator.h ****     /** Changes the frequency of the Oscillator, and recalculates phase increment.
  66:../../DaisySP/Source/Synthesis/oscillator.h ****     */
  67:../../DaisySP/Source/Synthesis/oscillator.h ****     inline void SetFreq(const float f)
  68:../../DaisySP/Source/Synthesis/oscillator.h ****     {
  69:../../DaisySP/Source/Synthesis/oscillator.h ****         freq_      = f;
 246              		.loc 4 69 20 discriminator 2 view .LVU64
 247 00e4 9FEDA1AA 		vldr.32	s20, .L20+8
 248              	.LBE236:
 249              	.LBE235:
 250              	.LBB242:
 251              	.LBB243:
 252              	.LBB244:
 253              	.LBB245:
 254              	.LBB246:
 255              		.file 5 "../../DaisySP/Source/Utility/dsp.h"
   1:../../DaisySP/Source/Utility/dsp.h **** /*
   2:../../DaisySP/Source/Utility/dsp.h **** Copyright (c) 2020 Electrosmith, Corp, Emilie Gillet
   3:../../DaisySP/Source/Utility/dsp.h **** 
   4:../../DaisySP/Source/Utility/dsp.h **** Use of this source code is governed by an MIT-style
   5:../../DaisySP/Source/Utility/dsp.h **** license that can be found in the LICENSE file or at
   6:../../DaisySP/Source/Utility/dsp.h **** https://opensource.org/licenses/MIT.
   7:../../DaisySP/Source/Utility/dsp.h **** */
   8:../../DaisySP/Source/Utility/dsp.h **** 
   9:../../DaisySP/Source/Utility/dsp.h **** /** Helpful defines, functions, and other utilities for use in/with daisysp modules.
  10:../../DaisySP/Source/Utility/dsp.h **** */
  11:../../DaisySP/Source/Utility/dsp.h **** #pragma once
ARM GAS  /var/folders/kw/h2sg8jtn02b91cpsjc1nlpg80000gn/T//cc850yBR.s 			page 11


  12:../../DaisySP/Source/Utility/dsp.h **** #ifndef DSY_CORE_DSP
  13:../../DaisySP/Source/Utility/dsp.h **** #define DSY_CORE_DSP
  14:../../DaisySP/Source/Utility/dsp.h **** #include <cassert>
  15:../../DaisySP/Source/Utility/dsp.h **** #include <cstdint>
  16:../../DaisySP/Source/Utility/dsp.h **** #include <random>
  17:../../DaisySP/Source/Utility/dsp.h **** #include <cmath>
  18:../../DaisySP/Source/Utility/dsp.h **** 
  19:../../DaisySP/Source/Utility/dsp.h **** /** PIs
  20:../../DaisySP/Source/Utility/dsp.h **** */
  21:../../DaisySP/Source/Utility/dsp.h **** #define PI_F 3.1415927410125732421875f
  22:../../DaisySP/Source/Utility/dsp.h **** #define TWOPI_F (2.0f * PI_F)
  23:../../DaisySP/Source/Utility/dsp.h **** #define HALFPI_F (PI_F * 0.5f)
  24:../../DaisySP/Source/Utility/dsp.h **** #define DSY_MIN(in, mn) (in < mn ? in : mn)
  25:../../DaisySP/Source/Utility/dsp.h **** #define DSY_MAX(in, mx) (in > mx ? in : mx)
  26:../../DaisySP/Source/Utility/dsp.h **** #define DSY_CLAMP(in, mn, mx) (DSY_MIN(DSY_MAX(in, mn), mx))
  27:../../DaisySP/Source/Utility/dsp.h **** #define DSY_COUNTOF(_arr) (sizeof(_arr) / sizeof(_arr[0]))
  28:../../DaisySP/Source/Utility/dsp.h **** 
  29:../../DaisySP/Source/Utility/dsp.h **** namespace daisysp
  30:../../DaisySP/Source/Utility/dsp.h **** {
  31:../../DaisySP/Source/Utility/dsp.h **** //Avoids division for random floats. e.g. rand() * kRandFrac
  32:../../DaisySP/Source/Utility/dsp.h **** static constexpr float kRandFrac = 1.f / (float)RAND_MAX;
  33:../../DaisySP/Source/Utility/dsp.h **** 
  34:../../DaisySP/Source/Utility/dsp.h **** //Convert from semitones to other units. e.g. 2 ^ (kOneTwelfth * x)
  35:../../DaisySP/Source/Utility/dsp.h **** static constexpr float kOneTwelfth = 1.f / 12.f;
  36:../../DaisySP/Source/Utility/dsp.h **** 
  37:../../DaisySP/Source/Utility/dsp.h **** /** efficient floating point min/max
  38:../../DaisySP/Source/Utility/dsp.h **** c/o stephen mccaul
  39:../../DaisySP/Source/Utility/dsp.h **** */
  40:../../DaisySP/Source/Utility/dsp.h **** inline float fmax(float a, float b)
  41:../../DaisySP/Source/Utility/dsp.h **** {
  42:../../DaisySP/Source/Utility/dsp.h ****     float r;
  43:../../DaisySP/Source/Utility/dsp.h **** #ifdef __arm__
  44:../../DaisySP/Source/Utility/dsp.h ****     asm("vmaxnm.f32 %[d], %[n], %[m]" : [d] "=t"(r) : [n] "t"(a), [m] "t"(b) :);
 256              		.loc 5 44 5 discriminator 2 view .LVU65
 257              		.syntax unified
 258              	@ 44 "../../DaisySP/Source/Utility/dsp.h" 1
 259 00e8 88FEAA9A 		vmaxnm.f32 s18, s17, s21
 260              	@ 0 "" 2
 261              		.thumb
 262              		.syntax unified
 263              	.LBE246:
 264              	.LBE245:
 265              	.LBB248:
 266              	.LBB249:
  45:../../DaisySP/Source/Utility/dsp.h **** #else
  46:../../DaisySP/Source/Utility/dsp.h ****     r = (a > b) ? a : b;
  47:../../DaisySP/Source/Utility/dsp.h **** #endif // __arm__
  48:../../DaisySP/Source/Utility/dsp.h ****     return r;
  49:../../DaisySP/Source/Utility/dsp.h **** }
  50:../../DaisySP/Source/Utility/dsp.h **** 
  51:../../DaisySP/Source/Utility/dsp.h **** inline float fmin(float a, float b)
  52:../../DaisySP/Source/Utility/dsp.h **** {
  53:../../DaisySP/Source/Utility/dsp.h ****     float r;
  54:../../DaisySP/Source/Utility/dsp.h **** #ifdef __arm__
  55:../../DaisySP/Source/Utility/dsp.h ****     asm("vminnm.f32 %[d], %[n], %[m]" : [d] "=t"(r) : [n] "t"(a), [m] "t"(b) :);
 267              		.loc 5 55 5 discriminator 2 view .LVU66
 268              		.syntax unified
ARM GAS  /var/folders/kw/h2sg8jtn02b91cpsjc1nlpg80000gn/T//cc850yBR.s 			page 12


 269              	@ 55 "../../DaisySP/Source/Utility/dsp.h" 1
 270 00ec 89FE489A 		vminnm.f32 s18, s18, s16
 271              	@ 0 "" 2
 272              		.thumb
 273              		.syntax unified
 274              	.LBE249:
 275              	.LBE248:
 276              	.LBE244:
 277              	.LBE243:
 278              	.LBE242:
 279              	.LBB258:
 280              	.LBB232:
  53:../../DaisySP/Source/Synthesis/oscillator.h ****         freq_      = 100.0f;
 281              		.loc 4 53 20 discriminator 2 view .LVU67
 282 00f0 84ED057A 		vstr.32	s14, [r4, #20]
  54:../../DaisySP/Source/Synthesis/oscillator.h ****         amp_       = 0.5f;
 283              		.loc 4 54 9 is_stmt 1 discriminator 2 view .LVU68
  55:../../DaisySP/Source/Synthesis/oscillator.h ****         pw_        = 0.5f;
 284              		.loc 4 55 9 discriminator 2 view .LVU69
  56:../../DaisySP/Source/Synthesis/oscillator.h ****         phase_     = 0.0f;
 285              		.loc 4 56 9 discriminator 2 view .LVU70
  57:../../DaisySP/Source/Synthesis/oscillator.h ****         phase_inc_ = CalcPhaseInc(freq_);
 286              		.loc 4 57 9 discriminator 2 view .LVU71
  58:../../DaisySP/Source/Synthesis/oscillator.h ****         waveform_  = WAVE_SIN;
 287              		.loc 4 58 9 discriminator 2 view .LVU72
  58:../../DaisySP/Source/Synthesis/oscillator.h ****         waveform_  = WAVE_SIN;
 288              		.loc 4 58 34 is_stmt 0 discriminator 2 view .LVU73
 289 00f4 FFF7FEFF 		bl	_ZN7daisysp10Oscillator12CalcPhaseIncEf
 290              	.LVL19:
  60:../../DaisySP/Source/Synthesis/oscillator.h ****         eor_       = true;
 291              		.loc 4 60 20 discriminator 2 view .LVU74
 292 00f8 84F82970 		strb	r7, [r4, #41]
  58:../../DaisySP/Source/Synthesis/oscillator.h ****         waveform_  = WAVE_SIN;
 293              		.loc 4 58 20 discriminator 2 view .LVU75
 294 00fc 84ED070A 		vstr.32	s0, [r4, #28]
  59:../../DaisySP/Source/Synthesis/oscillator.h ****         eoc_       = true;
 295              		.loc 4 59 9 is_stmt 1 discriminator 2 view .LVU76
  60:../../DaisySP/Source/Synthesis/oscillator.h ****         eor_       = true;
 296              		.loc 4 60 9 discriminator 2 view .LVU77
  61:../../DaisySP/Source/Synthesis/oscillator.h ****     }
 297              		.loc 4 61 9 discriminator 2 view .LVU78
 298              	.LVL20:
  61:../../DaisySP/Source/Synthesis/oscillator.h ****     }
 299              		.loc 4 61 9 is_stmt 0 discriminator 2 view .LVU79
 300              	.LBE232:
 301              	.LBE258:
  61:vasynth.cpp   **** 		osc_[i].SetAmp(1.0f); // default
 302              		.loc 1 61 3 is_stmt 1 discriminator 2 view .LVU80
 303              	.LBB259:
 304              	.LBB237:
  70:../../DaisySP/Source/Synthesis/oscillator.h ****         phase_inc_ = CalcPhaseInc(f);
 305              		.loc 4 70 34 is_stmt 0 discriminator 2 view .LVU81
 306 0100 2046     		mov	r0, r4
 307              	.LBE237:
 308              	.LBE259:
 309              	.LBB260:
 310              	.LBB233:
ARM GAS  /var/folders/kw/h2sg8jtn02b91cpsjc1nlpg80000gn/T//cc850yBR.s 			page 13


  61:../../DaisySP/Source/Synthesis/oscillator.h ****     }
 311              		.loc 4 61 20 discriminator 2 view .LVU82
 312 0102 84F82870 		strb	r7, [r4, #40]
 313              	.LBE233:
 314              	.LBE260:
 315              	.LBB261:
 316              	.LBB238:
 317              		.loc 4 70 34 discriminator 2 view .LVU83
 318 0106 B0EE4A0A 		vmov.f32	s0, s20
 319              	.LBE238:
 320              	.LBE261:
  61:vasynth.cpp   **** 		osc_[i].SetAmp(1.0f); // default
 321              		.loc 1 61 22 discriminator 2 view .LVU84
 322 010a 2B79     		ldrb	r3, [r5, #4]	@ zero_extendqisi2
 323              	.LVL21:
 324              	.LBB262:
 325              	.LBI262:
  71:../../DaisySP/Source/Synthesis/oscillator.h ****     }
  72:../../DaisySP/Source/Synthesis/oscillator.h **** 
  73:../../DaisySP/Source/Synthesis/oscillator.h **** 
  74:../../DaisySP/Source/Synthesis/oscillator.h ****     /** Sets the amplitude of the waveform.
  75:../../DaisySP/Source/Synthesis/oscillator.h ****     */
  76:../../DaisySP/Source/Synthesis/oscillator.h ****     inline void SetAmp(const float a) { amp_ = a; }
  77:../../DaisySP/Source/Synthesis/oscillator.h ****     /** Sets the waveform to be synthesized by the Process() function.
  78:../../DaisySP/Source/Synthesis/oscillator.h ****     */
  79:../../DaisySP/Source/Synthesis/oscillator.h ****     inline void SetWaveform(const uint8_t wf)
 326              		.loc 4 79 17 is_stmt 1 discriminator 2 view .LVU85
 327              	.LBB263:
  80:../../DaisySP/Source/Synthesis/oscillator.h ****     {
  81:../../DaisySP/Source/Synthesis/oscillator.h ****         waveform_ = wf < WAVE_LAST ? wf : WAVE_SIN;
 328              		.loc 4 81 9 discriminator 2 view .LVU86
 329              	.LBE263:
 330              	.LBE262:
 331              	.LBB266:
 332              	.LBB267:
  76:../../DaisySP/Source/Synthesis/oscillator.h ****     /** Sets the waveform to be synthesized by the Process() function.
 333              		.loc 4 76 46 is_stmt 0 discriminator 2 view .LVU87
 334 010c 84ED018A 		vstr.32	s16, [r4, #4]
 335              	.LBE267:
 336              	.LBE266:
 337              	.LBB269:
 338              	.LBB264:
 339              		.loc 4 81 19 discriminator 2 view .LVU88
 340 0110 082B     		cmp	r3, #8
 341              	.LBE264:
 342              	.LBE269:
 343              	.LBB270:
 344              	.LBB239:
  69:../../DaisySP/Source/Synthesis/oscillator.h ****         phase_inc_ = CalcPhaseInc(f);
 345              		.loc 4 69 20 discriminator 2 view .LVU89
 346 0112 84ED02AA 		vstr.32	s20, [r4, #8]
 347              	.LBE239:
 348              	.LBE270:
 349              	.LBB271:
 350              	.LBB265:
 351              		.loc 4 81 19 discriminator 2 view .LVU90
 352 0116 28BF     		it	cs
ARM GAS  /var/folders/kw/h2sg8jtn02b91cpsjc1nlpg80000gn/T//cc850yBR.s 			page 14


 353 0118 0023     		movcs	r3, #0
 354              	.LVL22:
 355              		.loc 4 81 19 discriminator 2 view .LVU91
 356 011a 2370     		strb	r3, [r4]
 357              		.loc 4 81 19 discriminator 2 view .LVU92
 358              	.LBE265:
 359              	.LBE271:
  62:vasynth.cpp   **** 		osc_[i].SetFreq(440.0f); // default
 360              		.loc 1 62 3 is_stmt 1 discriminator 2 view .LVU93
 361              	.LVL23:
 362              	.LBB272:
 363              	.LBI266:
  76:../../DaisySP/Source/Synthesis/oscillator.h ****     /** Sets the waveform to be synthesized by the Process() function.
 364              		.loc 4 76 17 discriminator 2 view .LVU94
 365              	.LBB268:
  76:../../DaisySP/Source/Synthesis/oscillator.h ****     /** Sets the waveform to be synthesized by the Process() function.
 366              		.loc 4 76 41 discriminator 2 view .LVU95
  76:../../DaisySP/Source/Synthesis/oscillator.h ****     /** Sets the waveform to be synthesized by the Process() function.
 367              		.loc 4 76 41 is_stmt 0 discriminator 2 view .LVU96
 368              	.LBE268:
 369              	.LBE272:
  63:vasynth.cpp   **** 		osc_[i].SetPw(0.5f);
 370              		.loc 1 63 3 is_stmt 1 discriminator 2 view .LVU97
 371              	.LBB273:
 372              	.LBI235:
  67:../../DaisySP/Source/Synthesis/oscillator.h ****     {
 373              		.loc 4 67 17 discriminator 2 view .LVU98
 374              	.LBB240:
  69:../../DaisySP/Source/Synthesis/oscillator.h ****         phase_inc_ = CalcPhaseInc(f);
 375              		.loc 4 69 9 discriminator 2 view .LVU99
  70:../../DaisySP/Source/Synthesis/oscillator.h ****     }
 376              		.loc 4 70 9 discriminator 2 view .LVU100
  70:../../DaisySP/Source/Synthesis/oscillator.h ****     }
 377              		.loc 4 70 34 is_stmt 0 discriminator 2 view .LVU101
 378 011c FFF7FEFF 		bl	_ZN7daisysp10Oscillator12CalcPhaseIncEf
 379              	.LVL24:
 380              	.LBE240:
 381              	.LBE273:
 382              	.LBB274:
 383              	.LBB255:
  82:../../DaisySP/Source/Synthesis/oscillator.h ****     }
  83:../../DaisySP/Source/Synthesis/oscillator.h ****     /** Sets the pulse width for WAVE_SQUARE and WAVE_POLYBLEP_SQUARE (range 0 - 1)
  84:../../DaisySP/Source/Synthesis/oscillator.h ****      */
  85:../../DaisySP/Source/Synthesis/oscillator.h ****     inline void SetPw(const float pw) { pw_ = fclamp(pw, 0.0f, 1.0f); }
 384              		.loc 4 85 45 discriminator 2 view .LVU102
 385 0120 84ED039A 		vstr.32	s18, [r4, #12]
 386              	.LBE255:
 387              	.LBE274:
 388              	.LBB275:
 389              	.LBB241:
  70:../../DaisySP/Source/Synthesis/oscillator.h ****     }
 390              		.loc 4 70 20 discriminator 2 view .LVU103
 391 0124 84ED070A 		vstr.32	s0, [r4, #28]
 392              	.LVL25:
  70:../../DaisySP/Source/Synthesis/oscillator.h ****     }
 393              		.loc 4 70 20 discriminator 2 view .LVU104
 394              	.LBE241:
ARM GAS  /var/folders/kw/h2sg8jtn02b91cpsjc1nlpg80000gn/T//cc850yBR.s 			page 15


 395              	.LBE275:
  64:vasynth.cpp   **** 
 396              		.loc 1 64 3 is_stmt 1 discriminator 2 view .LVU105
 397              	.LBB276:
 398              	.LBI242:
 399              		.loc 4 85 17 discriminator 2 view .LVU106
 400              	.LBB256:
 401              		.loc 4 85 41 discriminator 2 view .LVU107
 402              	.LBB253:
 403              	.LBI244:
  56:../../DaisySP/Source/Utility/dsp.h **** #else
  57:../../DaisySP/Source/Utility/dsp.h ****     r = (a < b) ? a : b;
  58:../../DaisySP/Source/Utility/dsp.h **** #endif // __arm__
  59:../../DaisySP/Source/Utility/dsp.h ****     return r;
  60:../../DaisySP/Source/Utility/dsp.h **** }
  61:../../DaisySP/Source/Utility/dsp.h **** 
  62:../../DaisySP/Source/Utility/dsp.h **** /** quick fp clamp
  63:../../DaisySP/Source/Utility/dsp.h **** */
  64:../../DaisySP/Source/Utility/dsp.h **** inline float fclamp(float in, float min, float max)
 404              		.loc 5 64 14 discriminator 2 view .LVU108
 405              	.LBE253:
 406              	.LBE256:
 407              	.LBE276:
 408              	.LBE310:
  65:../../DaisySP/Source/Utility/dsp.h **** {
  66:../../DaisySP/Source/Utility/dsp.h ****     return fmin(fmax(in, min), max);
 409              		.loc 5 66 5 discriminator 2 view .LVU109
 410              	.LBB311:
 411              	.LBB277:
 412              	.LBB257:
 413              	.LBB254:
 414              	.LBB251:
 415              	.LBI245:
  40:../../DaisySP/Source/Utility/dsp.h **** {
 416              		.loc 5 40 14 discriminator 2 view .LVU110
 417              	.LBB247:
  42:../../DaisySP/Source/Utility/dsp.h **** #ifdef __arm__
 418              		.loc 5 42 5 discriminator 2 view .LVU111
  44:../../DaisySP/Source/Utility/dsp.h **** #else
 419              		.loc 5 44 5 discriminator 2 view .LVU112
  48:../../DaisySP/Source/Utility/dsp.h **** }
 420              		.loc 5 48 5 discriminator 2 view .LVU113
  48:../../DaisySP/Source/Utility/dsp.h **** }
 421              		.loc 5 48 5 is_stmt 0 discriminator 2 view .LVU114
 422              	.LBE247:
 423              	.LBE251:
 424              	.LBB252:
 425              	.LBI248:
  51:../../DaisySP/Source/Utility/dsp.h **** {
 426              		.loc 5 51 14 is_stmt 1 discriminator 2 view .LVU115
 427              	.LBB250:
  53:../../DaisySP/Source/Utility/dsp.h **** #ifdef __arm__
 428              		.loc 5 53 5 discriminator 2 view .LVU116
  55:../../DaisySP/Source/Utility/dsp.h **** #else
 429              		.loc 5 55 5 discriminator 2 view .LVU117
  59:../../DaisySP/Source/Utility/dsp.h **** }
 430              		.loc 5 59 5 discriminator 2 view .LVU118
ARM GAS  /var/folders/kw/h2sg8jtn02b91cpsjc1nlpg80000gn/T//cc850yBR.s 			page 16


  59:../../DaisySP/Source/Utility/dsp.h **** }
 431              		.loc 5 59 5 is_stmt 0 discriminator 2 view .LVU119
 432              	.LBE250:
 433              	.LBE252:
 434              	.LBE254:
 435              	.LBE257:
 436              	.LBE277:
  66:vasynth.cpp   **** 		osc2_[i].SetWaveform(osc2_waveform_);
 437              		.loc 1 66 3 is_stmt 1 discriminator 2 view .LVU120
 438              	.LBB278:
 439              	.LBB279:
  58:../../DaisySP/Source/Synthesis/oscillator.h ****         waveform_  = WAVE_SIN;
 440              		.loc 4 58 34 is_stmt 0 discriminator 2 view .LVU121
 441 0128 5046     		mov	r0, r10
 442              	.LBE279:
 443              	.LBE278:
  66:vasynth.cpp   **** 		osc2_[i].SetWaveform(osc2_waveform_);
 444              		.loc 1 66 16 discriminator 2 view .LVU122
 445 012a D5ED007A 		vldr.32	s15, [r5]
 446              	.LVL26:
 447              	.LBB281:
 448              	.LBI278:
  50:../../DaisySP/Source/Synthesis/oscillator.h ****     {
 449              		.loc 4 50 10 is_stmt 1 discriminator 2 view .LVU123
 450              	.LBB280:
  52:../../DaisySP/Source/Synthesis/oscillator.h ****         sr_recip_  = 1.0f / sample_rate;
 451              		.loc 4 52 9 discriminator 2 view .LVU124
  58:../../DaisySP/Source/Synthesis/oscillator.h ****         waveform_  = WAVE_SIN;
 452              		.loc 4 58 34 is_stmt 0 discriminator 2 view .LVU125
 453 012e B0EE690A 		vmov.f32	s0, s19
  54:../../DaisySP/Source/Synthesis/oscillator.h ****         amp_       = 0.5f;
 454              		.loc 4 54 20 discriminator 2 view .LVU126
 455 0132 C4ED5A9A 		vstr.32	s19, [r4, #360]
  53:../../DaisySP/Source/Synthesis/oscillator.h ****         freq_      = 100.0f;
 456              		.loc 4 53 27 discriminator 2 view .LVU127
 457 0136 88EE277A 		vdiv.f32	s14, s16, s15
  52:../../DaisySP/Source/Synthesis/oscillator.h ****         sr_recip_  = 1.0f / sample_rate;
 458              		.loc 4 52 20 discriminator 2 view .LVU128
 459 013a C4ED5C7A 		vstr.32	s15, [r4, #368]
  53:../../DaisySP/Source/Synthesis/oscillator.h ****         freq_      = 100.0f;
 460              		.loc 4 53 9 is_stmt 1 discriminator 2 view .LVU129
  55:../../DaisySP/Source/Synthesis/oscillator.h ****         pw_        = 0.5f;
 461              		.loc 4 55 20 is_stmt 0 discriminator 2 view .LVU130
 462 013e C4ED598A 		vstr.32	s17, [r4, #356]
  56:../../DaisySP/Source/Synthesis/oscillator.h ****         phase_     = 0.0f;
 463              		.loc 4 56 20 discriminator 2 view .LVU131
 464 0142 C4ED5B8A 		vstr.32	s17, [r4, #364]
  57:../../DaisySP/Source/Synthesis/oscillator.h ****         phase_inc_ = CalcPhaseInc(freq_);
 465              		.loc 4 57 20 discriminator 2 view .LVU132
 466 0146 C4ED5EAA 		vstr.32	s21, [r4, #376]
  58:../../DaisySP/Source/Synthesis/oscillator.h ****         waveform_  = WAVE_SIN;
 467              		.loc 4 58 34 discriminator 2 view .LVU133
 468 014a CDF804A0 		str	r10, [sp, #4]
 469              	.LVL27:
  53:../../DaisySP/Source/Synthesis/oscillator.h ****         freq_      = 100.0f;
 470              		.loc 4 53 20 discriminator 2 view .LVU134
 471 014e 84ED5D7A 		vstr.32	s14, [r4, #372]
ARM GAS  /var/folders/kw/h2sg8jtn02b91cpsjc1nlpg80000gn/T//cc850yBR.s 			page 17


  54:../../DaisySP/Source/Synthesis/oscillator.h ****         amp_       = 0.5f;
 472              		.loc 4 54 9 is_stmt 1 discriminator 2 view .LVU135
  55:../../DaisySP/Source/Synthesis/oscillator.h ****         pw_        = 0.5f;
 473              		.loc 4 55 9 discriminator 2 view .LVU136
  56:../../DaisySP/Source/Synthesis/oscillator.h ****         phase_     = 0.0f;
 474              		.loc 4 56 9 discriminator 2 view .LVU137
  57:../../DaisySP/Source/Synthesis/oscillator.h ****         phase_inc_ = CalcPhaseInc(freq_);
 475              		.loc 4 57 9 discriminator 2 view .LVU138
  58:../../DaisySP/Source/Synthesis/oscillator.h ****         waveform_  = WAVE_SIN;
 476              		.loc 4 58 9 discriminator 2 view .LVU139
  58:../../DaisySP/Source/Synthesis/oscillator.h ****         waveform_  = WAVE_SIN;
 477              		.loc 4 58 34 is_stmt 0 discriminator 2 view .LVU140
 478 0152 FFF7FEFF 		bl	_ZN7daisysp10Oscillator12CalcPhaseIncEf
 479              	.LVL28:
  60:../../DaisySP/Source/Synthesis/oscillator.h ****         eor_       = true;
 480              		.loc 4 60 20 discriminator 2 view .LVU141
 481 0156 84F88971 		strb	r7, [r4, #393]
  61:../../DaisySP/Source/Synthesis/oscillator.h ****     }
 482              		.loc 4 61 20 discriminator 2 view .LVU142
 483 015a 84F88871 		strb	r7, [r4, #392]
  58:../../DaisySP/Source/Synthesis/oscillator.h ****         waveform_  = WAVE_SIN;
 484              		.loc 4 58 20 discriminator 2 view .LVU143
 485 015e 84ED5F0A 		vstr.32	s0, [r4, #380]
  59:../../DaisySP/Source/Synthesis/oscillator.h ****         eoc_       = true;
 486              		.loc 4 59 9 is_stmt 1 discriminator 2 view .LVU144
  60:../../DaisySP/Source/Synthesis/oscillator.h ****         eor_       = true;
 487              		.loc 4 60 9 discriminator 2 view .LVU145
  61:../../DaisySP/Source/Synthesis/oscillator.h ****     }
 488              		.loc 4 61 9 discriminator 2 view .LVU146
  61:../../DaisySP/Source/Synthesis/oscillator.h ****     }
 489              		.loc 4 61 9 is_stmt 0 discriminator 2 view .LVU147
 490              	.LBE280:
 491              	.LBE281:
  67:vasynth.cpp   **** 		osc2_[i].SetAmp(1.0f); // default
 492              		.loc 1 67 3 is_stmt 1 discriminator 2 view .LVU148
  67:vasynth.cpp   **** 		osc2_[i].SetAmp(1.0f); // default
 493              		.loc 1 67 23 is_stmt 0 discriminator 2 view .LVU149
 494 0162 2B7D     		ldrb	r3, [r5, #20]	@ zero_extendqisi2
 495              	.LVL29:
 496              	.LBB282:
 497              	.LBI282:
  79:../../DaisySP/Source/Synthesis/oscillator.h ****     {
 498              		.loc 4 79 17 is_stmt 1 discriminator 2 view .LVU150
 499              	.LBB283:
  81:../../DaisySP/Source/Synthesis/oscillator.h ****     }
 500              		.loc 4 81 9 discriminator 2 view .LVU151
 501              	.LBE283:
 502              	.LBE282:
 503              	.LBB286:
 504              	.LBB287:
  76:../../DaisySP/Source/Synthesis/oscillator.h ****     /** Sets the waveform to be synthesized by the Process() function.
 505              		.loc 4 76 46 is_stmt 0 discriminator 2 view .LVU152
 506 0164 84ED598A 		vstr.32	s16, [r4, #356]
 507              	.LBE287:
 508              	.LBE286:
 509              	.LBB289:
 510              	.LBB284:
ARM GAS  /var/folders/kw/h2sg8jtn02b91cpsjc1nlpg80000gn/T//cc850yBR.s 			page 18


  81:../../DaisySP/Source/Synthesis/oscillator.h ****     }
 511              		.loc 4 81 19 discriminator 2 view .LVU153
 512 0168 082B     		cmp	r3, #8
 513              	.LBE284:
 514              	.LBE289:
 515              	.LBB290:
 516              	.LBB291:
  70:../../DaisySP/Source/Synthesis/oscillator.h ****     }
 517              		.loc 4 70 34 discriminator 2 view .LVU154
 518 016a 0198     		ldr	r0, [sp, #4]
 519              	.LBE291:
 520              	.LBE290:
 521              	.LBB294:
 522              	.LBB285:
  81:../../DaisySP/Source/Synthesis/oscillator.h ****     }
 523              		.loc 4 81 19 discriminator 2 view .LVU155
 524 016c 28BF     		it	cs
 525 016e 0023     		movcs	r3, #0
 526              	.LVL30:
  81:../../DaisySP/Source/Synthesis/oscillator.h ****     }
 527              		.loc 4 81 19 discriminator 2 view .LVU156
 528 0170 84F86031 		strb	r3, [r4, #352]
  81:../../DaisySP/Source/Synthesis/oscillator.h ****     }
 529              		.loc 4 81 19 discriminator 2 view .LVU157
 530              	.LBE285:
 531              	.LBE294:
  68:vasynth.cpp   **** 		osc2_[i].SetFreq(440.0f * osc2_detune_); // default
 532              		.loc 1 68 3 is_stmt 1 discriminator 2 view .LVU158
 533              	.LVL31:
 534              	.LBB295:
 535              	.LBI286:
  76:../../DaisySP/Source/Synthesis/oscillator.h ****     /** Sets the waveform to be synthesized by the Process() function.
 536              		.loc 4 76 17 discriminator 2 view .LVU159
 537              	.LBB288:
  76:../../DaisySP/Source/Synthesis/oscillator.h ****     /** Sets the waveform to be synthesized by the Process() function.
 538              		.loc 4 76 41 discriminator 2 view .LVU160
  76:../../DaisySP/Source/Synthesis/oscillator.h ****     /** Sets the waveform to be synthesized by the Process() function.
 539              		.loc 4 76 41 is_stmt 0 discriminator 2 view .LVU161
 540              	.LBE288:
 541              	.LBE295:
  69:vasynth.cpp   **** 		osc2_[i].SetPw(0.5f);
 542              		.loc 1 69 3 is_stmt 1 discriminator 2 view .LVU162
  69:vasynth.cpp   **** 		osc2_[i].SetPw(0.5f);
 543              		.loc 1 69 19 is_stmt 0 discriminator 2 view .LVU163
 544 0174 95ED060A 		vldr.32	s0, [r5, #24]
 545 0178 20EE0A0A 		vmul.f32	s0, s0, s20
 546              	.LVL32:
 547              	.LBB296:
 548              	.LBI290:
  67:../../DaisySP/Source/Synthesis/oscillator.h ****     {
 549              		.loc 4 67 17 is_stmt 1 discriminator 2 view .LVU164
 550              	.LBB292:
  69:../../DaisySP/Source/Synthesis/oscillator.h ****         phase_inc_ = CalcPhaseInc(f);
 551              		.loc 4 69 9 discriminator 2 view .LVU165
  69:../../DaisySP/Source/Synthesis/oscillator.h ****         phase_inc_ = CalcPhaseInc(f);
 552              		.loc 4 69 20 is_stmt 0 discriminator 2 view .LVU166
 553 017c 84ED5A0A 		vstr.32	s0, [r4, #360]
ARM GAS  /var/folders/kw/h2sg8jtn02b91cpsjc1nlpg80000gn/T//cc850yBR.s 			page 19


  70:../../DaisySP/Source/Synthesis/oscillator.h ****     }
 554              		.loc 4 70 9 is_stmt 1 discriminator 2 view .LVU167
  70:../../DaisySP/Source/Synthesis/oscillator.h ****     }
 555              		.loc 4 70 34 is_stmt 0 discriminator 2 view .LVU168
 556 0180 FFF7FEFF 		bl	_ZN7daisysp10Oscillator12CalcPhaseIncEf
 557              	.LVL33:
  70:../../DaisySP/Source/Synthesis/oscillator.h ****     }
 558              		.loc 4 70 34 discriminator 2 view .LVU169
 559              	.LBE292:
 560              	.LBE296:
  75:vasynth.cpp   **** 		eg_a_[i].SetTime(ADSR_SEG_ATTACK, eg_a_attack_);
 561              		.loc 1 75 16 discriminator 2 view .LVU170
 562 0184 3946     		mov	r1, r7
 563 0186 3046     		mov	r0, r6
 564              	.LBB297:
 565              	.LBB293:
  70:../../DaisySP/Source/Synthesis/oscillator.h ****     }
 566              		.loc 4 70 20 discriminator 2 view .LVU171
 567 0188 84ED5F0A 		vstr.32	s0, [r4, #380]
 568              	.LVL34:
  70:../../DaisySP/Source/Synthesis/oscillator.h ****     }
 569              		.loc 4 70 20 discriminator 2 view .LVU172
 570              	.LBE293:
 571              	.LBE297:
  70:vasynth.cpp   **** 		
 572              		.loc 1 70 3 is_stmt 1 discriminator 2 view .LVU173
 573              	.LBB298:
 574              	.LBI298:
 575              		.loc 4 85 17 discriminator 2 view .LVU174
 576              	.LBB299:
 577              		.loc 4 85 41 discriminator 2 view .LVU175
 578              	.LBB300:
 579              	.LBI300:
  64:../../DaisySP/Source/Utility/dsp.h **** {
 580              		.loc 5 64 14 discriminator 2 view .LVU176
 581              	.LBE300:
 582              	.LBE299:
 583              	.LBE298:
 584              	.LBE311:
 585              		.loc 5 66 5 discriminator 2 view .LVU177
 586              	.LBB312:
 587              	.LBB307:
 588              	.LBB306:
 589              	.LBB305:
 590              	.LBB301:
 591              	.LBI301:
  40:../../DaisySP/Source/Utility/dsp.h **** {
 592              		.loc 5 40 14 discriminator 2 view .LVU178
 593              	.LBB302:
  42:../../DaisySP/Source/Utility/dsp.h **** #ifdef __arm__
 594              		.loc 5 42 5 discriminator 2 view .LVU179
  44:../../DaisySP/Source/Utility/dsp.h **** #else
 595              		.loc 5 44 5 discriminator 2 view .LVU180
  48:../../DaisySP/Source/Utility/dsp.h **** }
 596              		.loc 5 48 5 discriminator 2 view .LVU181
  48:../../DaisySP/Source/Utility/dsp.h **** }
 597              		.loc 5 48 5 is_stmt 0 discriminator 2 view .LVU182
ARM GAS  /var/folders/kw/h2sg8jtn02b91cpsjc1nlpg80000gn/T//cc850yBR.s 			page 20


 598              	.LBE302:
 599              	.LBE301:
 600              	.LBB303:
 601              	.LBI303:
  51:../../DaisySP/Source/Utility/dsp.h **** {
 602              		.loc 5 51 14 is_stmt 1 discriminator 2 view .LVU183
 603              	.LBB304:
  53:../../DaisySP/Source/Utility/dsp.h **** #ifdef __arm__
 604              		.loc 5 53 5 discriminator 2 view .LVU184
  55:../../DaisySP/Source/Utility/dsp.h **** #else
 605              		.loc 5 55 5 discriminator 2 view .LVU185
  59:../../DaisySP/Source/Utility/dsp.h **** }
 606              		.loc 5 59 5 discriminator 2 view .LVU186
  59:../../DaisySP/Source/Utility/dsp.h **** }
 607              		.loc 5 59 5 is_stmt 0 discriminator 2 view .LVU187
 608              	.LBE304:
 609              	.LBE303:
 610              	.LBE305:
 611              		.loc 4 85 45 discriminator 2 view .LVU188
 612 018c 84ED5B9A 		vstr.32	s18, [r4, #364]
 613              	.LVL35:
 614              		.loc 4 85 45 discriminator 2 view .LVU189
 615              	.LBE306:
 616              	.LBE307:
  75:vasynth.cpp   **** 		eg_a_[i].SetTime(ADSR_SEG_ATTACK, eg_a_attack_);
 617              		.loc 1 75 3 is_stmt 1 discriminator 2 view .LVU190
  75:vasynth.cpp   **** 		eg_a_[i].SetTime(ADSR_SEG_ATTACK, eg_a_attack_);
 618              		.loc 1 75 16 is_stmt 0 discriminator 2 view .LVU191
 619 0190 95ED000A 		vldr.32	s0, [r5]
 620 0194 FFF7FEFF 		bl	_ZN7daisysp4Adsr4InitEfi
 621              	.LVL36:
  76:vasynth.cpp   **** 		eg_a_[i].SetTime(ADSR_SEG_DECAY, eg_a_decay_);
 622              		.loc 1 76 3 is_stmt 1 discriminator 2 view .LVU192
  76:vasynth.cpp   **** 		eg_a_[i].SetTime(ADSR_SEG_DECAY, eg_a_decay_);
 623              		.loc 1 76 19 is_stmt 0 discriminator 2 view .LVU193
 624 0198 95ED090A 		vldr.32	s0, [r5, #36]
 625 019c 3946     		mov	r1, r7
 626 019e 3046     		mov	r0, r6
 627 01a0 FFF7FEFF 		bl	_ZN7daisysp4Adsr7SetTimeEif
 628              	.LVL37:
  77:vasynth.cpp   **** 		eg_a_[i].SetTime(ADSR_SEG_RELEASE, eg_a_release_);
 629              		.loc 1 77 3 is_stmt 1 discriminator 2 view .LVU194
  77:vasynth.cpp   **** 		eg_a_[i].SetTime(ADSR_SEG_RELEASE, eg_a_release_);
 630              		.loc 1 77 19 is_stmt 0 discriminator 2 view .LVU195
 631 01a4 95ED0A0A 		vldr.32	s0, [r5, #40]
 632 01a8 0221     		movs	r1, #2
 633 01aa 3046     		mov	r0, r6
 634 01ac FFF7FEFF 		bl	_ZN7daisysp4Adsr7SetTimeEif
 635              	.LVL38:
  78:vasynth.cpp   **** 		eg_a_[i].SetSustainLevel(eg_a_sustain_);
 636              		.loc 1 78 3 is_stmt 1 discriminator 2 view .LVU196
  78:vasynth.cpp   **** 		eg_a_[i].SetSustainLevel(eg_a_sustain_);
 637              		.loc 1 78 19 is_stmt 0 discriminator 2 view .LVU197
 638 01b0 95ED0C0A 		vldr.32	s0, [r5, #48]
 639 01b4 0421     		movs	r1, #4
 640 01b6 3046     		mov	r0, r6
 641 01b8 FFF7FEFF 		bl	_ZN7daisysp4Adsr7SetTimeEif
ARM GAS  /var/folders/kw/h2sg8jtn02b91cpsjc1nlpg80000gn/T//cc850yBR.s 			page 21


 642              	.LVL39:
  79:vasynth.cpp   **** 
 643              		.loc 1 79 3 is_stmt 1 discriminator 2 view .LVU198
  79:vasynth.cpp   **** 
 644              		.loc 1 79 27 is_stmt 0 discriminator 2 view .LVU199
 645 01bc D5ED0B7A 		vldr.32	s15, [r5, #44]
 646              	.LVL40:
 647              	.LBB308:
 648              	.LBI215:
  74:../../DaisySP/Source/Control/adsr.h ****     {
 649              		.loc 2 74 17 is_stmt 1 discriminator 2 view .LVU200
 650              	.LBB217:
  76:../../DaisySP/Source/Control/adsr.h ****                                        : (sus_level > 1.f) ? 1.f : sus_level;
 651              		.loc 2 76 9 discriminator 2 view .LVU201
  76:../../DaisySP/Source/Control/adsr.h ****                                        : (sus_level > 1.f) ? 1.f : sus_level;
 652              		.loc 2 76 40 is_stmt 0 discriminator 2 view .LVU202
 653 01c0 F4EEEA7A 		vcmpe.f32	s15, s21
 654 01c4 F1EE10FA 		vmrs	APSR_nzcv, FPSCR
 655 01c8 3FF629AF 		bhi	.L19
  76:../../DaisySP/Source/Control/adsr.h ****                                        : (sus_level > 1.f) ? 1.f : sus_level;
 656              		.loc 2 76 40 view .LVU203
 657 01cc DFED687A 		vldr.32	s15, .L20+12
 658              	.LVL41:
  76:../../DaisySP/Source/Control/adsr.h ****                                        : (sus_level > 1.f) ? 1.f : sus_level;
 659              		.loc 2 76 40 view .LVU204
 660 01d0 2BE7     		b	.L4
 661              	.LVL42:
 662              	.L13:
  76:../../DaisySP/Source/Control/adsr.h ****                                        : (sus_level > 1.f) ? 1.f : sus_level;
 663              		.loc 2 76 40 view .LVU205
 664              	.LBE217:
 665              	.LBE308:
 666              	.LBB309:
 667              	.LBB221:
 668 01d2 DFED677A 		vldr.32	s15, .L20+12
 669              	.LVL43:
  76:../../DaisySP/Source/Control/adsr.h ****                                        : (sus_level > 1.f) ? 1.f : sus_level;
 670              		.loc 2 76 40 view .LVU206
 671 01d6 54E7     		b	.L5
 672              	.LVL44:
 673              	.L18:
  76:../../DaisySP/Source/Control/adsr.h ****                                        : (sus_level > 1.f) ? 1.f : sus_level;
 674              		.loc 2 76 40 view .LVU207
 675              	.LBE221:
 676              	.LBE309:
 677              	.LBE312:
  92:vasynth.cpp   **** 	}
  93:vasynth.cpp   **** 
  94:vasynth.cpp   **** 	// lfo
  95:vasynth.cpp   **** 	lfo_.Init(sample_rate_);
 678              		.loc 1 95 2 is_stmt 1 view .LVU208
 679              	.LBB313:
 680              	.LBB314:
  53:../../DaisySP/Source/Synthesis/oscillator.h ****         freq_      = 100.0f;
 681              		.loc 4 53 27 is_stmt 0 view .LVU209
 682 01d8 F7EE008A 		vmov.f32	s17, #1.0e+0
 683              	.LBE314:
ARM GAS  /var/folders/kw/h2sg8jtn02b91cpsjc1nlpg80000gn/T//cc850yBR.s 			page 22


 684              	.LBE313:
 685              		.loc 1 95 11 view .LVU210
 686 01dc D5ED007A 		vldr.32	s15, [r5]
 687              	.LBB320:
 688              	.LBB315:
  55:../../DaisySP/Source/Synthesis/oscillator.h ****         pw_        = 0.5f;
 689              		.loc 4 55 20 view .LVU211
 690 01e0 4FF07C56 		mov	r6, #1056964608
  54:../../DaisySP/Source/Synthesis/oscillator.h ****         amp_       = 0.5f;
 691              		.loc 4 54 20 view .LVU212
 692 01e4 9FED5F8A 		vldr.32	s16, .L20
  57:../../DaisySP/Source/Synthesis/oscillator.h ****         phase_inc_ = CalcPhaseInc(freq_);
 693              		.loc 4 57 20 view .LVU213
 694 01e8 4FF00008 		mov	r8, #0
 695              	.LBE315:
 696              	.LBE320:
 697              		.loc 1 95 11 view .LVU214
 698 01ec 05F57570 		add	r0, r5, #980
 699              	.LVL45:
 700              	.LBB321:
 701              	.LBI313:
  50:../../DaisySP/Source/Synthesis/oscillator.h ****     {
 702              		.loc 4 50 10 is_stmt 1 view .LVU215
 703              	.LBB316:
  52:../../DaisySP/Source/Synthesis/oscillator.h ****         sr_recip_  = 1.0f / sample_rate;
 704              		.loc 4 52 9 view .LVU216
  53:../../DaisySP/Source/Synthesis/oscillator.h ****         freq_      = 100.0f;
 705              		.loc 4 53 27 is_stmt 0 view .LVU217
 706 01f0 88EEA77A 		vdiv.f32	s14, s17, s15
  52:../../DaisySP/Source/Synthesis/oscillator.h ****         sr_recip_  = 1.0f / sample_rate;
 707              		.loc 4 52 20 view .LVU218
 708 01f4 C5EDF97A 		vstr.32	s15, [r5, #996]
  53:../../DaisySP/Source/Synthesis/oscillator.h ****         freq_      = 100.0f;
 709              		.loc 4 53 9 is_stmt 1 view .LVU219
  54:../../DaisySP/Source/Synthesis/oscillator.h ****         amp_       = 0.5f;
 710              		.loc 4 54 20 is_stmt 0 view .LVU220
 711 01f8 85EDF78A 		vstr.32	s16, [r5, #988]
  61:../../DaisySP/Source/Synthesis/oscillator.h ****     }
 712              		.loc 4 61 20 view .LVU221
 713 01fc 40F20117 		movw	r7, #257
  55:../../DaisySP/Source/Synthesis/oscillator.h ****         pw_        = 0.5f;
 714              		.loc 4 55 20 view .LVU222
 715 0200 C5F8D863 		str	r6, [r5, #984]	@ float
 716              	.LBE316:
 717              	.LBE321:
  96:vasynth.cpp   **** 	lfo_.SetWaveform(lfo_waveform_);
  97:vasynth.cpp   **** 	lfo_.SetFreq(lfo_freq_);
  98:vasynth.cpp   **** 	lfo_.SetAmp(lfo_amp_);
  99:vasynth.cpp   **** 	
 100:vasynth.cpp   **** 	pwmlfo_.Init(sample_rate_);
 718              		.loc 1 100 14 view .LVU223
 719 0204 05F58064 		add	r4, r5, #1024
 720              	.LBB322:
 721              	.LBB317:
  56:../../DaisySP/Source/Synthesis/oscillator.h ****         phase_     = 0.0f;
 722              		.loc 4 56 20 view .LVU224
 723 0208 C5F8E063 		str	r6, [r5, #992]	@ float
ARM GAS  /var/folders/kw/h2sg8jtn02b91cpsjc1nlpg80000gn/T//cc850yBR.s 			page 23


  57:../../DaisySP/Source/Synthesis/oscillator.h ****         phase_inc_ = CalcPhaseInc(freq_);
 724              		.loc 4 57 20 view .LVU225
 725 020c C5F8EC83 		str	r8, [r5, #1004]	@ float
  58:../../DaisySP/Source/Synthesis/oscillator.h ****         waveform_  = WAVE_SIN;
 726              		.loc 4 58 34 view .LVU226
 727 0210 B0EE480A 		vmov.f32	s0, s16
 728 0214 0190     		str	r0, [sp, #4]
  53:../../DaisySP/Source/Synthesis/oscillator.h ****         freq_      = 100.0f;
 729              		.loc 4 53 20 view .LVU227
 730 0216 85EDFA7A 		vstr.32	s14, [r5, #1000]
  54:../../DaisySP/Source/Synthesis/oscillator.h ****         amp_       = 0.5f;
 731              		.loc 4 54 9 is_stmt 1 view .LVU228
  55:../../DaisySP/Source/Synthesis/oscillator.h ****         pw_        = 0.5f;
 732              		.loc 4 55 9 view .LVU229
  56:../../DaisySP/Source/Synthesis/oscillator.h ****         phase_     = 0.0f;
 733              		.loc 4 56 9 view .LVU230
  57:../../DaisySP/Source/Synthesis/oscillator.h ****         phase_inc_ = CalcPhaseInc(freq_);
 734              		.loc 4 57 9 view .LVU231
  58:../../DaisySP/Source/Synthesis/oscillator.h ****         waveform_  = WAVE_SIN;
 735              		.loc 4 58 9 view .LVU232
  58:../../DaisySP/Source/Synthesis/oscillator.h ****         waveform_  = WAVE_SIN;
 736              		.loc 4 58 34 is_stmt 0 view .LVU233
 737 021a FFF7FEFF 		bl	_ZN7daisysp10Oscillator12CalcPhaseIncEf
 738              	.LVL46:
  58:../../DaisySP/Source/Synthesis/oscillator.h ****         waveform_  = WAVE_SIN;
 739              		.loc 4 58 34 view .LVU234
 740              	.LBE317:
 741              	.LBE322:
  96:vasynth.cpp   **** 	lfo_.SetFreq(lfo_freq_);
 742              		.loc 1 96 18 view .LVU235
 743 021e 95F84430 		ldrb	r3, [r5, #68]	@ zero_extendqisi2
  97:vasynth.cpp   **** 	lfo_.SetAmp(lfo_amp_);
 744              		.loc 1 97 14 view .LVU236
 745 0222 D5ED127A 		vldr.32	s15, [r5, #72]
 746              	.LBB323:
 747              	.LBB324:
  81:../../DaisySP/Source/Synthesis/oscillator.h ****     }
 748              		.loc 4 81 19 view .LVU237
 749 0226 082B     		cmp	r3, #8
 750              	.LBE324:
 751              	.LBE323:
 752              	.LBB327:
 753              	.LBB328:
  70:../../DaisySP/Source/Synthesis/oscillator.h ****     }
 754              		.loc 4 70 34 view .LVU238
 755 0228 0198     		ldr	r0, [sp, #4]
 756              	.LBE328:
 757              	.LBE327:
 758              	.LBB333:
 759              	.LBB318:
  58:../../DaisySP/Source/Synthesis/oscillator.h ****         waveform_  = WAVE_SIN;
 760              		.loc 4 58 20 view .LVU239
 761 022a 85EDFC0A 		vstr.32	s0, [r5, #1008]
  59:../../DaisySP/Source/Synthesis/oscillator.h ****         eoc_       = true;
 762              		.loc 4 59 9 is_stmt 1 view .LVU240
  60:../../DaisySP/Source/Synthesis/oscillator.h ****         eor_       = true;
 763              		.loc 4 60 9 view .LVU241
ARM GAS  /var/folders/kw/h2sg8jtn02b91cpsjc1nlpg80000gn/T//cc850yBR.s 			page 24


  61:../../DaisySP/Source/Synthesis/oscillator.h ****     }
 764              		.loc 4 61 9 view .LVU242
 765              	.LBE318:
 766              	.LBE333:
 767              	.LBB334:
 768              	.LBB329:
  70:../../DaisySP/Source/Synthesis/oscillator.h ****     }
 769              		.loc 4 70 34 is_stmt 0 view .LVU243
 770 022e B0EE670A 		vmov.f32	s0, s15
 771              	.LBE329:
 772              	.LBE334:
 773              	.LBB335:
 774              	.LBB325:
  81:../../DaisySP/Source/Synthesis/oscillator.h ****     }
 775              		.loc 4 81 19 view .LVU244
 776 0232 28BF     		it	cs
 777 0234 0023     		movcs	r3, #0
 778              	.LBE325:
 779              	.LBE335:
 780              	.LBB336:
 781              	.LBB330:
  69:../../DaisySP/Source/Synthesis/oscillator.h ****         phase_inc_ = CalcPhaseInc(f);
 782              		.loc 4 69 20 view .LVU245
 783 0236 C5EDF77A 		vstr.32	s15, [r5, #988]
 784              	.LBE330:
 785              	.LBE336:
 786              	.LBB337:
 787              	.LBB319:
  61:../../DaisySP/Source/Synthesis/oscillator.h ****     }
 788              		.loc 4 61 20 view .LVU246
 789 023a A5F8FC73 		strh	r7, [r5, #1020]	@ movhi
 790              	.LVL47:
  61:../../DaisySP/Source/Synthesis/oscillator.h ****     }
 791              		.loc 4 61 20 view .LVU247
 792              	.LBE319:
 793              	.LBE337:
  96:vasynth.cpp   **** 	lfo_.SetFreq(lfo_freq_);
 794              		.loc 1 96 2 is_stmt 1 view .LVU248
 795              	.LBB338:
 796              	.LBI323:
  79:../../DaisySP/Source/Synthesis/oscillator.h ****     {
 797              		.loc 4 79 17 view .LVU249
 798              	.LBB326:
  81:../../DaisySP/Source/Synthesis/oscillator.h ****     }
 799              		.loc 4 81 9 view .LVU250
  81:../../DaisySP/Source/Synthesis/oscillator.h ****     }
 800              		.loc 4 81 19 is_stmt 0 view .LVU251
 801 023e 85F8D433 		strb	r3, [r5, #980]
 802              	.LVL48:
  81:../../DaisySP/Source/Synthesis/oscillator.h ****     }
 803              		.loc 4 81 19 view .LVU252
 804              	.LBE326:
 805              	.LBE338:
  97:vasynth.cpp   **** 	lfo_.SetAmp(lfo_amp_);
 806              		.loc 1 97 2 is_stmt 1 view .LVU253
 807              	.LBB339:
 808              	.LBI327:
ARM GAS  /var/folders/kw/h2sg8jtn02b91cpsjc1nlpg80000gn/T//cc850yBR.s 			page 25


  67:../../DaisySP/Source/Synthesis/oscillator.h ****     {
 809              		.loc 4 67 17 view .LVU254
 810              	.LBB331:
  69:../../DaisySP/Source/Synthesis/oscillator.h ****         phase_inc_ = CalcPhaseInc(f);
 811              		.loc 4 69 9 view .LVU255
  70:../../DaisySP/Source/Synthesis/oscillator.h ****     }
 812              		.loc 4 70 9 view .LVU256
  70:../../DaisySP/Source/Synthesis/oscillator.h ****     }
 813              		.loc 4 70 34 is_stmt 0 view .LVU257
 814 0242 FFF7FEFF 		bl	_ZN7daisysp10Oscillator12CalcPhaseIncEf
 815              	.LVL49:
  70:../../DaisySP/Source/Synthesis/oscillator.h ****     }
 816              		.loc 4 70 34 view .LVU258
 817 0246 B0EE407A 		vmov.f32	s14, s0
 818              	.LBE331:
 819              	.LBE339:
 820              		.loc 1 100 14 view .LVU259
 821 024a D5ED007A 		vldr.32	s15, [r5]
 822              	.LBB340:
 823              	.LBB341:
  58:../../DaisySP/Source/Synthesis/oscillator.h ****         waveform_  = WAVE_SIN;
 824              		.loc 4 58 34 view .LVU260
 825 024e 2046     		mov	r0, r4
 826              	.LBE341:
 827              	.LBE340:
 828              	.LBB346:
 829              	.LBB347:
  76:../../DaisySP/Source/Synthesis/oscillator.h ****     /** Sets the waveform to be synthesized by the Process() function.
 830              		.loc 4 76 46 view .LVU261
 831 0250 EB6C     		ldr	r3, [r5, #76]	@ float
 832              	.LBE347:
 833              	.LBE346:
 834              	.LBB350:
 835              	.LBB342:
  58:../../DaisySP/Source/Synthesis/oscillator.h ****         waveform_  = WAVE_SIN;
 836              		.loc 4 58 34 view .LVU262
 837 0252 B0EE480A 		vmov.f32	s0, s16
 838              	.LBE342:
 839              	.LBE350:
 840              	.LBB351:
 841              	.LBB332:
  70:../../DaisySP/Source/Synthesis/oscillator.h ****     }
 842              		.loc 4 70 20 view .LVU263
 843 0256 85EDFC7A 		vstr.32	s14, [r5, #1008]
 844              	.LVL50:
  70:../../DaisySP/Source/Synthesis/oscillator.h ****     }
 845              		.loc 4 70 20 view .LVU264
 846              	.LBE332:
 847              	.LBE351:
  98:vasynth.cpp   **** 	
 848              		.loc 1 98 2 is_stmt 1 view .LVU265
 849              	.LBB352:
 850              	.LBI346:
  76:../../DaisySP/Source/Synthesis/oscillator.h ****     /** Sets the waveform to be synthesized by the Process() function.
 851              		.loc 4 76 17 view .LVU266
 852              	.LBB348:
  76:../../DaisySP/Source/Synthesis/oscillator.h ****     /** Sets the waveform to be synthesized by the Process() function.
ARM GAS  /var/folders/kw/h2sg8jtn02b91cpsjc1nlpg80000gn/T//cc850yBR.s 			page 26


 853              		.loc 4 76 41 view .LVU267
 854              	.LBE348:
 855              	.LBE352:
 856              	.LBB353:
 857              	.LBB343:
  53:../../DaisySP/Source/Synthesis/oscillator.h ****         freq_      = 100.0f;
 858              		.loc 4 53 27 is_stmt 0 view .LVU268
 859 025a 88EEA77A 		vdiv.f32	s14, s17, s15
 860              	.LBE343:
 861              	.LBE353:
 862              	.LBB354:
 863              	.LBB349:
  76:../../DaisySP/Source/Synthesis/oscillator.h ****     /** Sets the waveform to be synthesized by the Process() function.
 864              		.loc 4 76 46 view .LVU269
 865 025e C5F8D833 		str	r3, [r5, #984]	@ float
 866              	.LVL51:
  76:../../DaisySP/Source/Synthesis/oscillator.h ****     /** Sets the waveform to be synthesized by the Process() function.
 867              		.loc 4 76 46 view .LVU270
 868              	.LBE349:
 869              	.LBE354:
 870              		.loc 1 100 2 is_stmt 1 view .LVU271
 871              	.LBB355:
 872              	.LBI340:
  50:../../DaisySP/Source/Synthesis/oscillator.h ****     {
 873              		.loc 4 50 10 view .LVU272
 874              	.LBB344:
  52:../../DaisySP/Source/Synthesis/oscillator.h ****         sr_recip_  = 1.0f / sample_rate;
 875              		.loc 4 52 9 view .LVU273
  52:../../DaisySP/Source/Synthesis/oscillator.h ****         sr_recip_  = 1.0f / sample_rate;
 876              		.loc 4 52 20 is_stmt 0 view .LVU274
 877 0262 C4ED047A 		vstr.32	s15, [r4, #16]
  53:../../DaisySP/Source/Synthesis/oscillator.h ****         freq_      = 100.0f;
 878              		.loc 4 53 9 is_stmt 1 view .LVU275
  54:../../DaisySP/Source/Synthesis/oscillator.h ****         amp_       = 0.5f;
 879              		.loc 4 54 20 is_stmt 0 view .LVU276
 880 0266 84ED028A 		vstr.32	s16, [r4, #8]
  55:../../DaisySP/Source/Synthesis/oscillator.h ****         pw_        = 0.5f;
 881              		.loc 4 55 20 view .LVU277
 882 026a 6660     		str	r6, [r4, #4]	@ float
  56:../../DaisySP/Source/Synthesis/oscillator.h ****         phase_     = 0.0f;
 883              		.loc 4 56 20 view .LVU278
 884 026c E660     		str	r6, [r4, #12]	@ float
  57:../../DaisySP/Source/Synthesis/oscillator.h ****         phase_inc_ = CalcPhaseInc(freq_);
 885              		.loc 4 57 20 view .LVU279
 886 026e C4F81880 		str	r8, [r4, #24]	@ float
  53:../../DaisySP/Source/Synthesis/oscillator.h ****         freq_      = 100.0f;
 887              		.loc 4 53 20 view .LVU280
 888 0272 84ED057A 		vstr.32	s14, [r4, #20]
  54:../../DaisySP/Source/Synthesis/oscillator.h ****         amp_       = 0.5f;
 889              		.loc 4 54 9 is_stmt 1 view .LVU281
  55:../../DaisySP/Source/Synthesis/oscillator.h ****         pw_        = 0.5f;
 890              		.loc 4 55 9 view .LVU282
  56:../../DaisySP/Source/Synthesis/oscillator.h ****         phase_     = 0.0f;
 891              		.loc 4 56 9 view .LVU283
  57:../../DaisySP/Source/Synthesis/oscillator.h ****         phase_inc_ = CalcPhaseInc(freq_);
 892              		.loc 4 57 9 view .LVU284
  58:../../DaisySP/Source/Synthesis/oscillator.h ****         waveform_  = WAVE_SIN;
ARM GAS  /var/folders/kw/h2sg8jtn02b91cpsjc1nlpg80000gn/T//cc850yBR.s 			page 27


 893              		.loc 4 58 9 view .LVU285
  58:../../DaisySP/Source/Synthesis/oscillator.h ****         waveform_  = WAVE_SIN;
 894              		.loc 4 58 34 is_stmt 0 view .LVU286
 895 0276 FFF7FEFF 		bl	_ZN7daisysp10Oscillator12CalcPhaseIncEf
 896              	.LVL52:
  58:../../DaisySP/Source/Synthesis/oscillator.h ****         waveform_  = WAVE_SIN;
 897              		.loc 4 58 20 view .LVU287
 898 027a 84ED070A 		vstr.32	s0, [r4, #28]
  59:../../DaisySP/Source/Synthesis/oscillator.h ****         eoc_       = true;
 899              		.loc 4 59 9 is_stmt 1 view .LVU288
  60:../../DaisySP/Source/Synthesis/oscillator.h ****         eor_       = true;
 900              		.loc 4 60 9 view .LVU289
  61:../../DaisySP/Source/Synthesis/oscillator.h ****     }
 901              		.loc 4 61 9 view .LVU290
 902              	.LBE344:
 903              	.LBE355:
 101:vasynth.cpp   **** 	pwmlfo_.SetWaveform(pwmlfo_waveform_);
 904              		.loc 1 101 21 is_stmt 0 view .LVU291
 905 027e 95F85030 		ldrb	r3, [r5, #80]	@ zero_extendqisi2
 906              	.LBB356:
 907              	.LBB357:
  70:../../DaisySP/Source/Synthesis/oscillator.h ****     }
 908              		.loc 4 70 34 view .LVU292
 909 0282 2046     		mov	r0, r4
 910              	.LBE357:
 911              	.LBE356:
 102:vasynth.cpp   **** 	pwmlfo_.SetFreq(pwmlfo_freq_);
 912              		.loc 1 102 17 view .LVU293
 913 0284 95ED150A 		vldr.32	s0, [r5, #84]
 914              	.LBB359:
 915              	.LBB360:
  81:../../DaisySP/Source/Synthesis/oscillator.h ****     }
 916              		.loc 4 81 19 view .LVU294
 917 0288 082B     		cmp	r3, #8
 918              	.LBE360:
 919              	.LBE359:
 920              	.LBB362:
 921              	.LBB345:
  61:../../DaisySP/Source/Synthesis/oscillator.h ****     }
 922              		.loc 4 61 20 view .LVU295
 923 028a A5F82874 		strh	r7, [r5, #1064]	@ movhi
 924              	.LVL53:
  61:../../DaisySP/Source/Synthesis/oscillator.h ****     }
 925              		.loc 4 61 20 view .LVU296
 926              	.LBE345:
 927              	.LBE362:
 101:vasynth.cpp   **** 	pwmlfo_.SetFreq(pwmlfo_freq_);
 928              		.loc 1 101 2 is_stmt 1 view .LVU297
 929              	.LBB363:
 930              	.LBI359:
  79:../../DaisySP/Source/Synthesis/oscillator.h ****     {
 931              		.loc 4 79 17 view .LVU298
 932              	.LBB361:
  81:../../DaisySP/Source/Synthesis/oscillator.h ****     }
 933              		.loc 4 81 9 view .LVU299
  81:../../DaisySP/Source/Synthesis/oscillator.h ****     }
 934              		.loc 4 81 19 is_stmt 0 view .LVU300
ARM GAS  /var/folders/kw/h2sg8jtn02b91cpsjc1nlpg80000gn/T//cc850yBR.s 			page 28


 935 028e 28BF     		it	cs
 936 0290 0023     		movcs	r3, #0
 937              	.LVL54:
  81:../../DaisySP/Source/Synthesis/oscillator.h ****     }
 938              		.loc 4 81 19 view .LVU301
 939 0292 85F80034 		strb	r3, [r5, #1024]
 940              	.LVL55:
  81:../../DaisySP/Source/Synthesis/oscillator.h ****     }
 941              		.loc 4 81 19 view .LVU302
 942              	.LBE361:
 943              	.LBE363:
 944              		.loc 1 102 2 is_stmt 1 view .LVU303
 945              	.LBB364:
 946              	.LBI356:
  67:../../DaisySP/Source/Synthesis/oscillator.h ****     {
 947              		.loc 4 67 17 view .LVU304
 948              	.LBB358:
  69:../../DaisySP/Source/Synthesis/oscillator.h ****         phase_inc_ = CalcPhaseInc(f);
 949              		.loc 4 69 9 view .LVU305
  69:../../DaisySP/Source/Synthesis/oscillator.h ****         phase_inc_ = CalcPhaseInc(f);
 950              		.loc 4 69 20 is_stmt 0 view .LVU306
 951 0296 84ED020A 		vstr.32	s0, [r4, #8]
  70:../../DaisySP/Source/Synthesis/oscillator.h ****     }
 952              		.loc 4 70 9 is_stmt 1 view .LVU307
  70:../../DaisySP/Source/Synthesis/oscillator.h ****     }
 953              		.loc 4 70 34 is_stmt 0 view .LVU308
 954 029a FFF7FEFF 		bl	_ZN7daisysp10Oscillator12CalcPhaseIncEf
 955              	.LVL56:
  70:../../DaisySP/Source/Synthesis/oscillator.h ****     }
 956              		.loc 4 70 20 view .LVU309
 957 029e 84ED070A 		vstr.32	s0, [r4, #28]
 958              	.LVL57:
  70:../../DaisySP/Source/Synthesis/oscillator.h ****     }
 959              		.loc 4 70 20 view .LVU310
 960              	.LBE358:
 961              	.LBE364:
 103:vasynth.cpp   **** 	pwmlfo_.SetAmp(pwmlfo_amp_);
 962              		.loc 1 103 2 is_stmt 1 view .LVU311
 963              	.LBB365:
 964              	.LBI365:
  76:../../DaisySP/Source/Synthesis/oscillator.h ****     /** Sets the waveform to be synthesized by the Process() function.
 965              		.loc 4 76 17 view .LVU312
 966              	.LBB366:
  76:../../DaisySP/Source/Synthesis/oscillator.h ****     /** Sets the waveform to be synthesized by the Process() function.
 967              		.loc 4 76 41 view .LVU313
  76:../../DaisySP/Source/Synthesis/oscillator.h ****     /** Sets the waveform to be synthesized by the Process() function.
 968              		.loc 4 76 46 is_stmt 0 view .LVU314
 969 02a2 AB6D     		ldr	r3, [r5, #88]	@ float
 970              	.LBE366:
 971              	.LBE365:
 972              	.LBB368:
 973              	.LBB369:
  58:../../DaisySP/Source/Synthesis/oscillator.h ****         waveform_  = WAVE_SIN;
 974              		.loc 4 58 34 view .LVU315
 975 02a4 B0EE480A 		vmov.f32	s0, s16
 976              	.LBE369:
 977              	.LBE368:
ARM GAS  /var/folders/kw/h2sg8jtn02b91cpsjc1nlpg80000gn/T//cc850yBR.s 			page 29


 978              	.LBB372:
 979              	.LBB367:
  76:../../DaisySP/Source/Synthesis/oscillator.h ****     /** Sets the waveform to be synthesized by the Process() function.
 980              		.loc 4 76 46 view .LVU316
 981 02a8 6360     		str	r3, [r4, #4]	@ float
 982              	.LVL58:
  76:../../DaisySP/Source/Synthesis/oscillator.h ****     /** Sets the waveform to be synthesized by the Process() function.
 983              		.loc 4 76 46 view .LVU317
 984              	.LBE367:
 985              	.LBE372:
 104:vasynth.cpp   **** 
 105:vasynth.cpp   **** 	pwm2lfo_.Init(sample_rate_);
 986              		.loc 1 105 2 is_stmt 1 view .LVU318
 987              		.loc 1 105 15 is_stmt 0 view .LVU319
 988 02aa 05F22C44 		addw	r4, r5, #1068
 989              	.LVL59:
 990              		.loc 1 105 15 view .LVU320
 991 02ae D5ED007A 		vldr.32	s15, [r5]
 992              	.LVL60:
 993              	.LBB373:
 994              	.LBI368:
  50:../../DaisySP/Source/Synthesis/oscillator.h ****     {
 995              		.loc 4 50 10 is_stmt 1 view .LVU321
 996              	.LBB370:
  52:../../DaisySP/Source/Synthesis/oscillator.h ****         sr_recip_  = 1.0f / sample_rate;
 997              		.loc 4 52 9 view .LVU322
  58:../../DaisySP/Source/Synthesis/oscillator.h ****         waveform_  = WAVE_SIN;
 998              		.loc 4 58 34 is_stmt 0 view .LVU323
 999 02b2 2046     		mov	r0, r4
  54:../../DaisySP/Source/Synthesis/oscillator.h ****         amp_       = 0.5f;
 1000              		.loc 4 54 20 view .LVU324
 1001 02b4 84ED028A 		vstr.32	s16, [r4, #8]
  53:../../DaisySP/Source/Synthesis/oscillator.h ****         freq_      = 100.0f;
 1002              		.loc 4 53 27 view .LVU325
 1003 02b8 88EEA77A 		vdiv.f32	s14, s17, s15
  52:../../DaisySP/Source/Synthesis/oscillator.h ****         sr_recip_  = 1.0f / sample_rate;
 1004              		.loc 4 52 20 view .LVU326
 1005 02bc C4ED047A 		vstr.32	s15, [r4, #16]
  53:../../DaisySP/Source/Synthesis/oscillator.h ****         freq_      = 100.0f;
 1006              		.loc 4 53 9 is_stmt 1 view .LVU327
  55:../../DaisySP/Source/Synthesis/oscillator.h ****         pw_        = 0.5f;
 1007              		.loc 4 55 20 is_stmt 0 view .LVU328
 1008 02c0 6660     		str	r6, [r4, #4]	@ float
  56:../../DaisySP/Source/Synthesis/oscillator.h ****         phase_     = 0.0f;
 1009              		.loc 4 56 20 view .LVU329
 1010 02c2 E660     		str	r6, [r4, #12]	@ float
  57:../../DaisySP/Source/Synthesis/oscillator.h ****         phase_inc_ = CalcPhaseInc(freq_);
 1011              		.loc 4 57 20 view .LVU330
 1012 02c4 C4F81880 		str	r8, [r4, #24]	@ float
  53:../../DaisySP/Source/Synthesis/oscillator.h ****         freq_      = 100.0f;
 1013              		.loc 4 53 20 view .LVU331
 1014 02c8 84ED057A 		vstr.32	s14, [r4, #20]
  54:../../DaisySP/Source/Synthesis/oscillator.h ****         amp_       = 0.5f;
 1015              		.loc 4 54 9 is_stmt 1 view .LVU332
  55:../../DaisySP/Source/Synthesis/oscillator.h ****         pw_        = 0.5f;
 1016              		.loc 4 55 9 view .LVU333
  56:../../DaisySP/Source/Synthesis/oscillator.h ****         phase_     = 0.0f;
ARM GAS  /var/folders/kw/h2sg8jtn02b91cpsjc1nlpg80000gn/T//cc850yBR.s 			page 30


 1017              		.loc 4 56 9 view .LVU334
  57:../../DaisySP/Source/Synthesis/oscillator.h ****         phase_inc_ = CalcPhaseInc(freq_);
 1018              		.loc 4 57 9 view .LVU335
  58:../../DaisySP/Source/Synthesis/oscillator.h ****         waveform_  = WAVE_SIN;
 1019              		.loc 4 58 9 view .LVU336
  58:../../DaisySP/Source/Synthesis/oscillator.h ****         waveform_  = WAVE_SIN;
 1020              		.loc 4 58 34 is_stmt 0 view .LVU337
 1021 02cc FFF7FEFF 		bl	_ZN7daisysp10Oscillator12CalcPhaseIncEf
 1022              	.LVL61:
  58:../../DaisySP/Source/Synthesis/oscillator.h ****         waveform_  = WAVE_SIN;
 1023              		.loc 4 58 20 view .LVU338
 1024 02d0 84ED070A 		vstr.32	s0, [r4, #28]
  59:../../DaisySP/Source/Synthesis/oscillator.h ****         eoc_       = true;
 1025              		.loc 4 59 9 is_stmt 1 view .LVU339
  60:../../DaisySP/Source/Synthesis/oscillator.h ****         eor_       = true;
 1026              		.loc 4 60 9 view .LVU340
  61:../../DaisySP/Source/Synthesis/oscillator.h ****     }
 1027              		.loc 4 61 9 view .LVU341
 1028              	.LBE370:
 1029              	.LBE373:
 106:vasynth.cpp   **** 	pwm2lfo_.SetWaveform(pwm2lfo_waveform_);
 1030              		.loc 1 106 22 is_stmt 0 view .LVU342
 1031 02d4 95F85C30 		ldrb	r3, [r5, #92]	@ zero_extendqisi2
 1032              	.LBB374:
 1033              	.LBB375:
  70:../../DaisySP/Source/Synthesis/oscillator.h ****     }
 1034              		.loc 4 70 34 view .LVU343
 1035 02d8 2046     		mov	r0, r4
 1036              	.LBE375:
 1037              	.LBE374:
 107:vasynth.cpp   **** 	pwm2lfo_.SetFreq(pwm2lfo_freq_);
 1038              		.loc 1 107 18 view .LVU344
 1039 02da 95ED180A 		vldr.32	s0, [r5, #96]
 1040              	.LBB377:
 1041              	.LBB378:
  81:../../DaisySP/Source/Synthesis/oscillator.h ****     }
 1042              		.loc 4 81 19 view .LVU345
 1043 02de 082B     		cmp	r3, #8
 1044              	.LBE378:
 1045              	.LBE377:
 1046              	.LBB380:
 1047              	.LBB371:
  61:../../DaisySP/Source/Synthesis/oscillator.h ****     }
 1048              		.loc 4 61 20 view .LVU346
 1049 02e0 A5F85474 		strh	r7, [r5, #1108]	@ movhi
 1050              	.LVL62:
  61:../../DaisySP/Source/Synthesis/oscillator.h ****     }
 1051              		.loc 4 61 20 view .LVU347
 1052              	.LBE371:
 1053              	.LBE380:
 106:vasynth.cpp   **** 	pwm2lfo_.SetFreq(pwm2lfo_freq_);
 1054              		.loc 1 106 2 is_stmt 1 view .LVU348
 1055              	.LBB381:
 1056              	.LBI377:
  79:../../DaisySP/Source/Synthesis/oscillator.h ****     {
 1057              		.loc 4 79 17 view .LVU349
 1058              	.LBB379:
ARM GAS  /var/folders/kw/h2sg8jtn02b91cpsjc1nlpg80000gn/T//cc850yBR.s 			page 31


  81:../../DaisySP/Source/Synthesis/oscillator.h ****     }
 1059              		.loc 4 81 9 view .LVU350
  81:../../DaisySP/Source/Synthesis/oscillator.h ****     }
 1060              		.loc 4 81 19 is_stmt 0 view .LVU351
 1061 02e4 28BF     		it	cs
 1062 02e6 0023     		movcs	r3, #0
 1063              	.LVL63:
  81:../../DaisySP/Source/Synthesis/oscillator.h ****     }
 1064              		.loc 4 81 19 view .LVU352
 1065 02e8 85F82C34 		strb	r3, [r5, #1068]
 1066              	.LVL64:
  81:../../DaisySP/Source/Synthesis/oscillator.h ****     }
 1067              		.loc 4 81 19 view .LVU353
 1068              	.LBE379:
 1069              	.LBE381:
 1070              		.loc 1 107 2 is_stmt 1 view .LVU354
 1071              	.LBB382:
 1072              	.LBI374:
  67:../../DaisySP/Source/Synthesis/oscillator.h ****     {
 1073              		.loc 4 67 17 view .LVU355
 1074              	.LBB376:
  69:../../DaisySP/Source/Synthesis/oscillator.h ****         phase_inc_ = CalcPhaseInc(f);
 1075              		.loc 4 69 9 view .LVU356
  69:../../DaisySP/Source/Synthesis/oscillator.h ****         phase_inc_ = CalcPhaseInc(f);
 1076              		.loc 4 69 20 is_stmt 0 view .LVU357
 1077 02ec 84ED020A 		vstr.32	s0, [r4, #8]
  70:../../DaisySP/Source/Synthesis/oscillator.h ****     }
 1078              		.loc 4 70 9 is_stmt 1 view .LVU358
  70:../../DaisySP/Source/Synthesis/oscillator.h ****     }
 1079              		.loc 4 70 34 is_stmt 0 view .LVU359
 1080 02f0 FFF7FEFF 		bl	_ZN7daisysp10Oscillator12CalcPhaseIncEf
 1081              	.LVL65:
  70:../../DaisySP/Source/Synthesis/oscillator.h ****     }
 1082              		.loc 4 70 20 view .LVU360
 1083 02f4 84ED070A 		vstr.32	s0, [r4, #28]
 1084              	.LVL66:
  70:../../DaisySP/Source/Synthesis/oscillator.h ****     }
 1085              		.loc 4 70 20 view .LVU361
 1086              	.LBE376:
 1087              	.LBE382:
 108:vasynth.cpp   **** 	pwm2lfo_.SetAmp(pwm2lfo_amp_);
 1088              		.loc 1 108 2 is_stmt 1 view .LVU362
 1089              	.LBB383:
 1090              	.LBI383:
  76:../../DaisySP/Source/Synthesis/oscillator.h ****     /** Sets the waveform to be synthesized by the Process() function.
 1091              		.loc 4 76 17 view .LVU363
 1092              	.LBB384:
  76:../../DaisySP/Source/Synthesis/oscillator.h ****     /** Sets the waveform to be synthesized by the Process() function.
 1093              		.loc 4 76 41 view .LVU364
  76:../../DaisySP/Source/Synthesis/oscillator.h ****     /** Sets the waveform to be synthesized by the Process() function.
 1094              		.loc 4 76 46 is_stmt 0 view .LVU365
 1095 02f8 6B6E     		ldr	r3, [r5, #100]	@ float
 1096              	.LBE384:
 1097              	.LBE383:
 1098              	.LBB386:
 1099              	.LBB387:
  58:../../DaisySP/Source/Synthesis/oscillator.h ****         waveform_  = WAVE_SIN;
ARM GAS  /var/folders/kw/h2sg8jtn02b91cpsjc1nlpg80000gn/T//cc850yBR.s 			page 32


 1100              		.loc 4 58 34 view .LVU366
 1101 02fa B0EE480A 		vmov.f32	s0, s16
 1102              	.LBE387:
 1103              	.LBE386:
 1104              	.LBB390:
 1105              	.LBB385:
  76:../../DaisySP/Source/Synthesis/oscillator.h ****     /** Sets the waveform to be synthesized by the Process() function.
 1106              		.loc 4 76 46 view .LVU367
 1107 02fe 6360     		str	r3, [r4, #4]	@ float
 1108              	.LVL67:
  76:../../DaisySP/Source/Synthesis/oscillator.h ****     /** Sets the waveform to be synthesized by the Process() function.
 1109              		.loc 4 76 46 view .LVU368
 1110              	.LBE385:
 1111              	.LBE390:
 109:vasynth.cpp   **** 
 110:vasynth.cpp   **** 	vcavcflfo_.Init(sample_rate_);
 1112              		.loc 1 110 2 is_stmt 1 view .LVU369
 1113              		.loc 1 110 17 is_stmt 0 view .LVU370
 1114 0300 05F58B64 		add	r4, r5, #1112
 1115              	.LVL68:
 1116              		.loc 1 110 17 view .LVU371
 1117 0304 D5ED007A 		vldr.32	s15, [r5]
 1118              	.LVL69:
 1119              	.LBB391:
 1120              	.LBI386:
  50:../../DaisySP/Source/Synthesis/oscillator.h ****     {
 1121              		.loc 4 50 10 is_stmt 1 view .LVU372
 1122              	.LBB388:
  52:../../DaisySP/Source/Synthesis/oscillator.h ****         sr_recip_  = 1.0f / sample_rate;
 1123              		.loc 4 52 9 view .LVU373
  58:../../DaisySP/Source/Synthesis/oscillator.h ****         waveform_  = WAVE_SIN;
 1124              		.loc 4 58 34 is_stmt 0 view .LVU374
 1125 0308 2046     		mov	r0, r4
  54:../../DaisySP/Source/Synthesis/oscillator.h ****         amp_       = 0.5f;
 1126              		.loc 4 54 20 view .LVU375
 1127 030a 84ED028A 		vstr.32	s16, [r4, #8]
  53:../../DaisySP/Source/Synthesis/oscillator.h ****         freq_      = 100.0f;
 1128              		.loc 4 53 27 view .LVU376
 1129 030e 88EEA77A 		vdiv.f32	s14, s17, s15
  52:../../DaisySP/Source/Synthesis/oscillator.h ****         sr_recip_  = 1.0f / sample_rate;
 1130              		.loc 4 52 20 view .LVU377
 1131 0312 C4ED047A 		vstr.32	s15, [r4, #16]
  53:../../DaisySP/Source/Synthesis/oscillator.h ****         freq_      = 100.0f;
 1132              		.loc 4 53 9 is_stmt 1 view .LVU378
  55:../../DaisySP/Source/Synthesis/oscillator.h ****         pw_        = 0.5f;
 1133              		.loc 4 55 20 is_stmt 0 view .LVU379
 1134 0316 6660     		str	r6, [r4, #4]	@ float
  56:../../DaisySP/Source/Synthesis/oscillator.h ****         phase_     = 0.0f;
 1135              		.loc 4 56 20 view .LVU380
 1136 0318 E660     		str	r6, [r4, #12]	@ float
  57:../../DaisySP/Source/Synthesis/oscillator.h ****         phase_inc_ = CalcPhaseInc(freq_);
 1137              		.loc 4 57 20 view .LVU381
 1138 031a C4F81880 		str	r8, [r4, #24]	@ float
  53:../../DaisySP/Source/Synthesis/oscillator.h ****         freq_      = 100.0f;
 1139              		.loc 4 53 20 view .LVU382
 1140 031e 84ED057A 		vstr.32	s14, [r4, #20]
  54:../../DaisySP/Source/Synthesis/oscillator.h ****         amp_       = 0.5f;
ARM GAS  /var/folders/kw/h2sg8jtn02b91cpsjc1nlpg80000gn/T//cc850yBR.s 			page 33


 1141              		.loc 4 54 9 is_stmt 1 view .LVU383
  55:../../DaisySP/Source/Synthesis/oscillator.h ****         pw_        = 0.5f;
 1142              		.loc 4 55 9 view .LVU384
  56:../../DaisySP/Source/Synthesis/oscillator.h ****         phase_     = 0.0f;
 1143              		.loc 4 56 9 view .LVU385
  57:../../DaisySP/Source/Synthesis/oscillator.h ****         phase_inc_ = CalcPhaseInc(freq_);
 1144              		.loc 4 57 9 view .LVU386
  58:../../DaisySP/Source/Synthesis/oscillator.h ****         waveform_  = WAVE_SIN;
 1145              		.loc 4 58 9 view .LVU387
  58:../../DaisySP/Source/Synthesis/oscillator.h ****         waveform_  = WAVE_SIN;
 1146              		.loc 4 58 34 is_stmt 0 view .LVU388
 1147 0322 FFF7FEFF 		bl	_ZN7daisysp10Oscillator12CalcPhaseIncEf
 1148              	.LVL70:
  58:../../DaisySP/Source/Synthesis/oscillator.h ****         waveform_  = WAVE_SIN;
 1149              		.loc 4 58 20 view .LVU389
 1150 0326 84ED070A 		vstr.32	s0, [r4, #28]
  59:../../DaisySP/Source/Synthesis/oscillator.h ****         eoc_       = true;
 1151              		.loc 4 59 9 is_stmt 1 view .LVU390
  60:../../DaisySP/Source/Synthesis/oscillator.h ****         eor_       = true;
 1152              		.loc 4 60 9 view .LVU391
  61:../../DaisySP/Source/Synthesis/oscillator.h ****     }
 1153              		.loc 4 61 9 view .LVU392
 1154              	.LBE388:
 1155              	.LBE391:
 111:vasynth.cpp   **** 	vcavcflfo_.SetWaveform(vcavcflfo_waveform_);
 1156              		.loc 1 111 24 is_stmt 0 view .LVU393
 1157 032a 95F86830 		ldrb	r3, [r5, #104]	@ zero_extendqisi2
 1158              	.LBB392:
 1159              	.LBB393:
  70:../../DaisySP/Source/Synthesis/oscillator.h ****     }
 1160              		.loc 4 70 34 view .LVU394
 1161 032e 2046     		mov	r0, r4
 1162              	.LBE393:
 1163              	.LBE392:
 112:vasynth.cpp   **** 	vcavcflfo_.SetFreq(vcavcflfo_freq_);
 1164              		.loc 1 112 20 view .LVU395
 1165 0330 95ED1B0A 		vldr.32	s0, [r5, #108]
 1166              	.LBB396:
 1167              	.LBB397:
  81:../../DaisySP/Source/Synthesis/oscillator.h ****     }
 1168              		.loc 4 81 19 view .LVU396
 1169 0334 082B     		cmp	r3, #8
 1170              	.LBE397:
 1171              	.LBE396:
 1172              	.LBB399:
 1173              	.LBB389:
  61:../../DaisySP/Source/Synthesis/oscillator.h ****     }
 1174              		.loc 4 61 20 view .LVU397
 1175 0336 A5F88074 		strh	r7, [r5, #1152]	@ movhi
 1176              	.LVL71:
  61:../../DaisySP/Source/Synthesis/oscillator.h ****     }
 1177              		.loc 4 61 20 view .LVU398
 1178              	.LBE389:
 1179              	.LBE399:
 111:vasynth.cpp   **** 	vcavcflfo_.SetFreq(vcavcflfo_freq_);
 1180              		.loc 1 111 2 is_stmt 1 view .LVU399
 1181              	.LBB400:
ARM GAS  /var/folders/kw/h2sg8jtn02b91cpsjc1nlpg80000gn/T//cc850yBR.s 			page 34


 1182              	.LBI396:
  79:../../DaisySP/Source/Synthesis/oscillator.h ****     {
 1183              		.loc 4 79 17 view .LVU400
 1184              	.LBB398:
  81:../../DaisySP/Source/Synthesis/oscillator.h ****     }
 1185              		.loc 4 81 9 view .LVU401
  81:../../DaisySP/Source/Synthesis/oscillator.h ****     }
 1186              		.loc 4 81 19 is_stmt 0 view .LVU402
 1187 033a 28BF     		it	cs
 1188 033c 0023     		movcs	r3, #0
 1189              	.LVL72:
  81:../../DaisySP/Source/Synthesis/oscillator.h ****     }
 1190              		.loc 4 81 19 view .LVU403
 1191 033e 85F85834 		strb	r3, [r5, #1112]
 1192              	.LVL73:
  81:../../DaisySP/Source/Synthesis/oscillator.h ****     }
 1193              		.loc 4 81 19 view .LVU404
 1194              	.LBE398:
 1195              	.LBE400:
 1196              		.loc 1 112 2 is_stmt 1 view .LVU405
 1197              	.LBB401:
 1198              	.LBI392:
  67:../../DaisySP/Source/Synthesis/oscillator.h ****     {
 1199              		.loc 4 67 17 view .LVU406
 1200              	.LBB394:
  69:../../DaisySP/Source/Synthesis/oscillator.h ****         phase_inc_ = CalcPhaseInc(f);
 1201              		.loc 4 69 9 view .LVU407
  69:../../DaisySP/Source/Synthesis/oscillator.h ****         phase_inc_ = CalcPhaseInc(f);
 1202              		.loc 4 69 20 is_stmt 0 view .LVU408
 1203 0342 84ED020A 		vstr.32	s0, [r4, #8]
  70:../../DaisySP/Source/Synthesis/oscillator.h ****     }
 1204              		.loc 4 70 9 is_stmt 1 view .LVU409
  70:../../DaisySP/Source/Synthesis/oscillator.h ****     }
 1205              		.loc 4 70 34 is_stmt 0 view .LVU410
 1206 0346 FFF7FEFF 		bl	_ZN7daisysp10Oscillator12CalcPhaseIncEf
 1207              	.LVL74:
  70:../../DaisySP/Source/Synthesis/oscillator.h ****     }
 1208              		.loc 4 70 34 view .LVU411
 1209              	.LBE394:
 1210              	.LBE401:
 113:vasynth.cpp   **** 	vcavcflfo_.SetAmp(vcavcflfo_amp_);
 114:vasynth.cpp   **** 
 115:vasynth.cpp   ****     // init
 116:vasynth.cpp   ****     osc_next_ = 0;
 1211              		.loc 1 116 15 view .LVU412
 1212 034a 0023     		movs	r3, #0
 1213              	.LBB402:
 1214              	.LBB395:
  70:../../DaisySP/Source/Synthesis/oscillator.h ****     }
 1215              		.loc 4 70 20 view .LVU413
 1216 034c 84ED070A 		vstr.32	s0, [r4, #28]
 1217              	.LVL75:
  70:../../DaisySP/Source/Synthesis/oscillator.h ****     }
 1218              		.loc 4 70 20 view .LVU414
 1219              	.LBE395:
 1220              	.LBE402:
 113:vasynth.cpp   **** 	vcavcflfo_.SetAmp(vcavcflfo_amp_);
ARM GAS  /var/folders/kw/h2sg8jtn02b91cpsjc1nlpg80000gn/T//cc850yBR.s 			page 35


 1221              		.loc 1 113 2 is_stmt 1 view .LVU415
 1222              	.LBB403:
 1223              	.LBI403:
  76:../../DaisySP/Source/Synthesis/oscillator.h ****     /** Sets the waveform to be synthesized by the Process() function.
 1224              		.loc 4 76 17 view .LVU416
 1225              	.LBB404:
  76:../../DaisySP/Source/Synthesis/oscillator.h ****     /** Sets the waveform to be synthesized by the Process() function.
 1226              		.loc 4 76 41 view .LVU417
  76:../../DaisySP/Source/Synthesis/oscillator.h ****     /** Sets the waveform to be synthesized by the Process() function.
 1227              		.loc 4 76 46 is_stmt 0 view .LVU418
 1228 0350 2A6F     		ldr	r2, [r5, #112]	@ float
 1229 0352 6260     		str	r2, [r4, #4]	@ float
 1230              	.LVL76:
  76:../../DaisySP/Source/Synthesis/oscillator.h ****     /** Sets the waveform to be synthesized by the Process() function.
 1231              		.loc 4 76 46 view .LVU419
 1232              	.LBE404:
 1233              	.LBE403:
 1234              		.loc 1 116 5 is_stmt 1 view .LVU420
 1235              		.loc 1 116 15 is_stmt 0 view .LVU421
 1236 0354 85F88A30 		strb	r3, [r5, #138]
 117:vasynth.cpp   **** }
 1237              		.loc 1 117 1 view .LVU422
 1238 0358 02B0     		add	sp, sp, #8
 1239              		.cfi_def_cfa_offset 56
 1240              		@ sp needed
 1241 035a BDEC068B 		vldm	sp!, {d8-d10}
 1242              		.cfi_restore 84
 1243              		.cfi_restore 85
 1244              		.cfi_restore 82
 1245              		.cfi_restore 83
 1246              		.cfi_restore 80
 1247              		.cfi_restore 81
 1248              		.cfi_def_cfa_offset 32
 1249 035e BDE8F087 		pop	{r4, r5, r6, r7, r8, r9, r10, pc}
 1250              	.LVL77:
 1251              	.L21:
 1252              		.loc 1 117 1 view .LVU423
 1253 0362 00BF     		.align	2
 1254              	.L20:
 1255 0364 0000C842 		.word	1120403456
 1256 0368 00000000 		.word	0
 1257 036c 0000DC43 		.word	1138491392
 1258 0370 0AD723BC 		.word	-1138501878
 1259              		.cfi_endproc
 1260              	.LFE4853:
 1262              		.section	.text._ZN7VASynth11SetWaveformEv,"ax",%progbits
 1263              		.align	1
 1264              		.p2align 2,,3
 1265              		.global	_ZN7VASynth11SetWaveformEv
 1266              		.syntax unified
 1267              		.thumb
 1268              		.thumb_func
 1270              	_ZN7VASynth11SetWaveformEv:
 1271              	.LVL78:
 1272              	.LFB4855:
 118:vasynth.cpp   **** 
 119:vasynth.cpp   **** void VASynth::First()
ARM GAS  /var/folders/kw/h2sg8jtn02b91cpsjc1nlpg80000gn/T//cc850yBR.s 			page 36


 120:vasynth.cpp   **** {
 121:vasynth.cpp   **** 	sample_rate_ = sysSampleRate;
 122:vasynth.cpp   **** 	SaveToLive(&preset_setting[0]);
 123:vasynth.cpp   **** }	
 124:vasynth.cpp   **** 
 125:vasynth.cpp   **** void VASynth::SetWaveform()
 126:vasynth.cpp   **** {
 1273              		.loc 1 126 1 is_stmt 1 view -0
 1274              		.cfi_startproc
 1275              		@ args = 0, pretend = 0, frame = 0
 1276              		@ frame_needed = 0, uses_anonymous_args = 0
 1277              		@ link register save eliminated.
 127:vasynth.cpp   **** 	for (uint8_t i = 0; i < VOICES_MAX; i++)
 1278              		.loc 1 127 2 view .LVU425
 1279              	.LBB405:
 1280              		.loc 1 127 24 view .LVU426
 128:vasynth.cpp   **** 	{
 129:vasynth.cpp   **** 		osc_[i].SetWaveform(waveform_);
 1281              		.loc 1 129 22 is_stmt 0 view .LVU427
 1282 0000 0279     		ldrb	r2, [r0, #4]	@ zero_extendqisi2
 1283 0002 00F5B071 		add	r1, r0, #352
 130:vasynth.cpp   **** 		osc2_[i].SetWaveform(osc2_waveform_);
 1284              		.loc 1 130 23 view .LVU428
 1285 0006 037D     		ldrb	r3, [r0, #20]	@ zero_extendqisi2
 1286 0008 072A     		cmp	r2, #7
 1287 000a 88BF     		it	hi
 1288 000c 0022     		movhi	r2, #0
 1289 000e 072B     		cmp	r3, #7
 1290 0010 88BF     		it	hi
 1291 0012 0023     		movhi	r3, #0
 1292              	.LVL79:
 1293              	.L23:
 129:vasynth.cpp   **** 		osc2_[i].SetWaveform(osc2_waveform_);
 1294              		.loc 1 129 3 is_stmt 1 discriminator 2 view .LVU429
 1295              	.LBB406:
 1296              	.LBI406:
  79:../../DaisySP/Source/Synthesis/oscillator.h ****     {
 1297              		.loc 4 79 17 discriminator 2 view .LVU430
 1298              	.LBB407:
  81:../../DaisySP/Source/Synthesis/oscillator.h ****     }
 1299              		.loc 4 81 9 discriminator 2 view .LVU431
  81:../../DaisySP/Source/Synthesis/oscillator.h ****     }
 1300              		.loc 4 81 19 is_stmt 0 discriminator 2 view .LVU432
 1301 0014 80F81421 		strb	r2, [r0, #276]
 1302              	.LVL80:
  81:../../DaisySP/Source/Synthesis/oscillator.h ****     }
 1303              		.loc 4 81 19 discriminator 2 view .LVU433
 1304              	.LBE407:
 1305              	.LBE406:
 1306              		.loc 1 130 3 is_stmt 1 discriminator 2 view .LVU434
 1307              	.LBB408:
 1308              	.LBI408:
  79:../../DaisySP/Source/Synthesis/oscillator.h ****     {
 1309              		.loc 4 79 17 discriminator 2 view .LVU435
 1310              	.LBB409:
  81:../../DaisySP/Source/Synthesis/oscillator.h ****     }
 1311              		.loc 4 81 9 discriminator 2 view .LVU436
ARM GAS  /var/folders/kw/h2sg8jtn02b91cpsjc1nlpg80000gn/T//cc850yBR.s 			page 37


 1312              	.LBE409:
 1313              	.LBE408:
 127:vasynth.cpp   **** 	{
 1314              		.loc 1 127 24 is_stmt 0 discriminator 2 view .LVU437
 1315 0018 2C30     		adds	r0, r0, #44
 1316              	.LVL81:
 1317              	.LBB411:
 1318              	.LBB410:
  81:../../DaisySP/Source/Synthesis/oscillator.h ****     }
 1319              		.loc 4 81 19 discriminator 2 view .LVU438
 1320 001a 80F84832 		strb	r3, [r0, #584]
 1321              	.LVL82:
  81:../../DaisySP/Source/Synthesis/oscillator.h ****     }
 1322              		.loc 4 81 19 discriminator 2 view .LVU439
 1323              	.LBE410:
 1324              	.LBE411:
 127:vasynth.cpp   **** 	{
 1325              		.loc 1 127 2 is_stmt 1 discriminator 2 view .LVU440
 127:vasynth.cpp   **** 	{
 1326              		.loc 1 127 24 discriminator 2 view .LVU441
 1327 001e 8142     		cmp	r1, r0
 1328 0020 F8D1     		bne	.L23
 1329              	.LBE405:
 131:vasynth.cpp   **** 	}
 132:vasynth.cpp   **** }
 1330              		.loc 1 132 1 is_stmt 0 view .LVU442
 1331 0022 7047     		bx	lr
 1332              		.cfi_endproc
 1333              	.LFE4855:
 1335              		.section	.text._ZN7VASynth5SetEGEv,"ax",%progbits
 1336              		.align	1
 1337              		.p2align 2,,3
 1338              		.global	_ZN7VASynth5SetEGEv
 1339              		.syntax unified
 1340              		.thumb
 1341              		.thumb_func
 1343              	_ZN7VASynth5SetEGEv:
 1344              	.LVL83:
 1345              	.LFB4856:
 133:vasynth.cpp   **** 
 134:vasynth.cpp   **** void VASynth::SetEG()
 135:vasynth.cpp   **** {
 1346              		.loc 1 135 1 is_stmt 1 view -0
 1347              		.cfi_startproc
 1348              		@ args = 0, pretend = 0, frame = 8
 1349              		@ frame_needed = 0, uses_anonymous_args = 0
 136:vasynth.cpp   **** 	for (uint8_t i = 0; i < VOICES_MAX; i++)
 1350              		.loc 1 136 2 view .LVU444
 1351              	.LBB412:
 1352              		.loc 1 136 24 view .LVU445
 1353              	.LBE412:
 135:vasynth.cpp   **** 	for (uint8_t i = 0; i < VOICES_MAX; i++)
 1354              		.loc 1 135 1 is_stmt 0 view .LVU446
 1355 0000 70B5     		push	{r4, r5, r6, lr}
 1356              		.cfi_def_cfa_offset 16
 1357              		.cfi_offset 4, -16
 1358              		.cfi_offset 5, -12
ARM GAS  /var/folders/kw/h2sg8jtn02b91cpsjc1nlpg80000gn/T//cc850yBR.s 			page 38


 1359              		.cfi_offset 6, -8
 1360              		.cfi_offset 14, -4
 1361 0002 0446     		mov	r4, r0
 1362 0004 82B0     		sub	sp, sp, #8
 1363              		.cfi_def_cfa_offset 24
 1364 0006 00F28445 		addw	r5, r0, #1156
 1365 000a 00F20466 		addw	r6, r0, #1540
 1366 000e 2EE0     		b	.L28
 1367              	.LVL84:
 1368              	.L36:
 1369              	.LBB425:
 1370              	.LBB413:
 1371              	.LBB414:
  77:../../DaisySP/Source/Control/adsr.h ****         sus_level_ = sus_level;
 1372              		.loc 2 77 60 view .LVU447
 1373 0010 F4EE477A 		vcmp.f32	s15, s14
 1374 0014 F1EE10FA 		vmrs	APSR_nzcv, FPSCR
 1375 0018 77FE277A 		vselgt.f32	s15, s14, s15
 1376              	.LVL85:
 1377              	.L26:
 1378              		.loc 2 78 9 is_stmt 1 view .LVU448
 1379              		.loc 2 78 20 is_stmt 0 view .LVU449
 1380 001c C5ED607A 		vstr.32	s15, [r5, #384]
 1381              	.LVL86:
 1382              		.loc 2 78 20 view .LVU450
 1383              	.LBE414:
 1384              	.LBE413:
 137:vasynth.cpp   **** 	{
 138:vasynth.cpp   **** 		// EG - filter
 139:vasynth.cpp   **** 		eg_f_[i].SetTime(ADSR_SEG_ATTACK, eg_f_attack_);
 140:vasynth.cpp   **** 		eg_f_[i].SetTime(ADSR_SEG_DECAY, eg_f_decay_);
 141:vasynth.cpp   **** 		eg_f_[i].SetTime(ADSR_SEG_RELEASE, eg_f_release_);
 142:vasynth.cpp   **** 		eg_f_[i].SetSustainLevel(eg_f_sustain_);
 143:vasynth.cpp   **** 
 144:vasynth.cpp   **** 		// EG - amplitude
 145:vasynth.cpp   **** 		eg_a_[i].SetTime(ADSR_SEG_ATTACK, eg_a_attack_);
 1385              		.loc 1 145 3 is_stmt 1 view .LVU451
 1386              		.loc 1 145 19 is_stmt 0 view .LVU452
 1387 0020 2846     		mov	r0, r5
 1388 0022 0121     		movs	r1, #1
 1389 0024 94ED090A 		vldr.32	s0, [r4, #36]
 1390 0028 FFF7FEFF 		bl	_ZN7daisysp4Adsr7SetTimeEif
 1391              	.LVL87:
 146:vasynth.cpp   **** 		eg_a_[i].SetTime(ADSR_SEG_DECAY, eg_a_decay_);
 1392              		.loc 1 146 3 is_stmt 1 view .LVU453
 1393              		.loc 1 146 19 is_stmt 0 view .LVU454
 1394 002c 2846     		mov	r0, r5
 1395 002e 94ED0A0A 		vldr.32	s0, [r4, #40]
 1396 0032 0221     		movs	r1, #2
 1397 0034 FFF7FEFF 		bl	_ZN7daisysp4Adsr7SetTimeEif
 1398              	.LVL88:
 147:vasynth.cpp   **** 		eg_a_[i].SetTime(ADSR_SEG_RELEASE, eg_a_release_);
 1399              		.loc 1 147 3 is_stmt 1 view .LVU455
 1400              		.loc 1 147 19 is_stmt 0 view .LVU456
 1401 0038 2846     		mov	r0, r5
 1402 003a 94ED0C0A 		vldr.32	s0, [r4, #48]
 1403 003e 0421     		movs	r1, #4
ARM GAS  /var/folders/kw/h2sg8jtn02b91cpsjc1nlpg80000gn/T//cc850yBR.s 			page 39


 1404 0040 FFF7FEFF 		bl	_ZN7daisysp4Adsr7SetTimeEif
 1405              	.LVL89:
 148:vasynth.cpp   **** 		eg_a_[i].SetSustainLevel(eg_a_sustain_);
 1406              		.loc 1 148 3 is_stmt 1 view .LVU457
 1407              		.loc 1 148 27 is_stmt 0 view .LVU458
 1408 0044 D4ED0B7A 		vldr.32	s15, [r4, #44]
 1409              	.LVL90:
 1410              	.LBB416:
 1411              	.LBI416:
  74:../../DaisySP/Source/Control/adsr.h ****     {
 1412              		.loc 2 74 17 is_stmt 1 view .LVU459
 1413              	.LBB417:
  76:../../DaisySP/Source/Control/adsr.h ****                                        : (sus_level > 1.f) ? 1.f : sus_level;
 1414              		.loc 2 76 9 view .LVU460
  77:../../DaisySP/Source/Control/adsr.h ****         sus_level_ = sus_level;
 1415              		.loc 2 77 60 is_stmt 0 view .LVU461
 1416 0048 B7EE007A 		vmov.f32	s14, #1.0e+0
  76:../../DaisySP/Source/Control/adsr.h ****                                        : (sus_level > 1.f) ? 1.f : sus_level;
 1417              		.loc 2 76 40 view .LVU462
 1418 004c F5EEC07A 		vcmpe.f32	s15, #0
 1419 0050 F1EE10FA 		vmrs	APSR_nzcv, FPSCR
 1420 0054 2BD9     		bls	.L31
  77:../../DaisySP/Source/Control/adsr.h ****         sus_level_ = sus_level;
 1421              		.loc 2 77 60 view .LVU463
 1422 0056 F4EE477A 		vcmp.f32	s15, s14
 1423              		.loc 2 78 20 view .LVU464
 1424 005a 2B46     		mov	r3, r5
 1425 005c 3035     		adds	r5, r5, #48
 1426              	.LVL91:
  77:../../DaisySP/Source/Control/adsr.h ****         sus_level_ = sus_level;
 1427              		.loc 2 77 60 view .LVU465
 1428 005e F1EE10FA 		vmrs	APSR_nzcv, FPSCR
 1429 0062 77FE277A 		vselgt.f32	s15, s14, s15
 1430              	.LVL92:
 1431              		.loc 2 78 9 is_stmt 1 view .LVU466
 1432              	.LBE417:
 1433              	.LBE416:
 136:vasynth.cpp   **** 	{
 1434              		.loc 1 136 24 is_stmt 0 view .LVU467
 1435 0066 B542     		cmp	r5, r6
 1436              	.LBB421:
 1437              	.LBB418:
 1438              		.loc 2 78 20 view .LVU468
 1439 0068 C3ED007A 		vstr.32	s15, [r3]
 1440              	.LVL93:
 1441              		.loc 2 78 20 view .LVU469
 1442              	.LBE418:
 1443              	.LBE421:
 136:vasynth.cpp   **** 	{
 1444              		.loc 1 136 2 is_stmt 1 view .LVU470
 136:vasynth.cpp   **** 	{
 1445              		.loc 1 136 24 view .LVU471
 1446 006c 27D0     		beq	.L35
 1447              	.L28:
 1448              	.LVL94:
 139:vasynth.cpp   **** 		eg_f_[i].SetTime(ADSR_SEG_DECAY, eg_f_decay_);
 1449              		.loc 1 139 3 discriminator 2 view .LVU472
ARM GAS  /var/folders/kw/h2sg8jtn02b91cpsjc1nlpg80000gn/T//cc850yBR.s 			page 40


 1450 006e 05F5C070 		add	r0, r5, #384
 139:vasynth.cpp   **** 		eg_f_[i].SetTime(ADSR_SEG_DECAY, eg_f_decay_);
 1451              		.loc 1 139 19 is_stmt 0 discriminator 2 view .LVU473
 1452 0072 94ED0D0A 		vldr.32	s0, [r4, #52]
 1453 0076 0121     		movs	r1, #1
 1454 0078 0190     		str	r0, [sp, #4]
 1455 007a FFF7FEFF 		bl	_ZN7daisysp4Adsr7SetTimeEif
 1456              	.LVL95:
 140:vasynth.cpp   **** 		eg_f_[i].SetTime(ADSR_SEG_RELEASE, eg_f_release_);
 1457              		.loc 1 140 3 is_stmt 1 discriminator 2 view .LVU474
 140:vasynth.cpp   **** 		eg_f_[i].SetTime(ADSR_SEG_RELEASE, eg_f_release_);
 1458              		.loc 1 140 19 is_stmt 0 discriminator 2 view .LVU475
 1459 007e 94ED0E0A 		vldr.32	s0, [r4, #56]
 1460 0082 0221     		movs	r1, #2
 1461 0084 0198     		ldr	r0, [sp, #4]
 1462 0086 FFF7FEFF 		bl	_ZN7daisysp4Adsr7SetTimeEif
 1463              	.LVL96:
 141:vasynth.cpp   **** 		eg_f_[i].SetSustainLevel(eg_f_sustain_);
 1464              		.loc 1 141 3 is_stmt 1 discriminator 2 view .LVU476
 141:vasynth.cpp   **** 		eg_f_[i].SetSustainLevel(eg_f_sustain_);
 1465              		.loc 1 141 19 is_stmt 0 discriminator 2 view .LVU477
 1466 008a 94ED100A 		vldr.32	s0, [r4, #64]
 1467 008e 0198     		ldr	r0, [sp, #4]
 1468 0090 0421     		movs	r1, #4
 1469 0092 FFF7FEFF 		bl	_ZN7daisysp4Adsr7SetTimeEif
 1470              	.LVL97:
 142:vasynth.cpp   **** 
 1471              		.loc 1 142 3 is_stmt 1 discriminator 2 view .LVU478
 142:vasynth.cpp   **** 
 1472              		.loc 1 142 27 is_stmt 0 discriminator 2 view .LVU479
 1473 0096 D4ED0F7A 		vldr.32	s15, [r4, #60]
 1474              	.LVL98:
 1475              	.LBB422:
 1476              	.LBI413:
  74:../../DaisySP/Source/Control/adsr.h ****     {
 1477              		.loc 2 74 17 is_stmt 1 discriminator 2 view .LVU480
 1478              	.LBB415:
  76:../../DaisySP/Source/Control/adsr.h ****                                        : (sus_level > 1.f) ? 1.f : sus_level;
 1479              		.loc 2 76 9 discriminator 2 view .LVU481
  77:../../DaisySP/Source/Control/adsr.h ****         sus_level_ = sus_level;
 1480              		.loc 2 77 60 is_stmt 0 discriminator 2 view .LVU482
 1481 009a B7EE007A 		vmov.f32	s14, #1.0e+0
  76:../../DaisySP/Source/Control/adsr.h ****                                        : (sus_level > 1.f) ? 1.f : sus_level;
 1482              		.loc 2 76 40 discriminator 2 view .LVU483
 1483 009e F5EEC07A 		vcmpe.f32	s15, #0
 1484 00a2 F1EE10FA 		vmrs	APSR_nzcv, FPSCR
 1485 00a6 B3D8     		bhi	.L36
  76:../../DaisySP/Source/Control/adsr.h ****                                        : (sus_level > 1.f) ? 1.f : sus_level;
 1486              		.loc 2 76 40 view .LVU484
 1487 00a8 DFED067A 		vldr.32	s15, .L37
 1488              	.LVL99:
  76:../../DaisySP/Source/Control/adsr.h ****                                        : (sus_level > 1.f) ? 1.f : sus_level;
 1489              		.loc 2 76 40 view .LVU485
 1490 00ac B6E7     		b	.L26
 1491              	.LVL100:
 1492              	.L31:
  76:../../DaisySP/Source/Control/adsr.h ****                                        : (sus_level > 1.f) ? 1.f : sus_level;
ARM GAS  /var/folders/kw/h2sg8jtn02b91cpsjc1nlpg80000gn/T//cc850yBR.s 			page 41


 1493              		.loc 2 76 40 view .LVU486
 1494              	.LBE415:
 1495              	.LBE422:
 1496              	.LBB423:
 1497              	.LBB419:
 1498              		.loc 2 78 20 view .LVU487
 1499 00ae 2B46     		mov	r3, r5
 1500 00b0 3035     		adds	r5, r5, #48
 1501              	.LVL101:
  76:../../DaisySP/Source/Control/adsr.h ****                                        : (sus_level > 1.f) ? 1.f : sus_level;
 1502              		.loc 2 76 40 view .LVU488
 1503 00b2 DFED047A 		vldr.32	s15, .L37
 1504              	.LVL102:
 1505              		.loc 2 78 9 is_stmt 1 view .LVU489
 1506              	.LBE419:
 1507              	.LBE423:
 136:vasynth.cpp   **** 	{
 1508              		.loc 1 136 24 is_stmt 0 view .LVU490
 1509 00b6 B542     		cmp	r5, r6
 1510              	.LBB424:
 1511              	.LBB420:
 1512              		.loc 2 78 20 view .LVU491
 1513 00b8 C3ED007A 		vstr.32	s15, [r3]
 1514              	.LVL103:
 1515              		.loc 2 78 20 view .LVU492
 1516              	.LBE420:
 1517              	.LBE424:
 136:vasynth.cpp   **** 	{
 1518              		.loc 1 136 2 is_stmt 1 view .LVU493
 136:vasynth.cpp   **** 	{
 1519              		.loc 1 136 24 view .LVU494
 1520 00bc D7D1     		bne	.L28
 1521              	.L35:
 136:vasynth.cpp   **** 	{
 1522              		.loc 1 136 24 is_stmt 0 view .LVU495
 1523              	.LBE425:
 149:vasynth.cpp   **** 	}
 150:vasynth.cpp   **** }
 1524              		.loc 1 150 1 view .LVU496
 1525 00be 02B0     		add	sp, sp, #8
 1526              		.cfi_def_cfa_offset 16
 1527              		@ sp needed
 1528 00c0 70BD     		pop	{r4, r5, r6, pc}
 1529              	.LVL104:
 1530              	.L38:
 1531              		.loc 1 150 1 view .LVU497
 1532 00c2 00BF     		.align	2
 1533              	.L37:
 1534 00c4 0AD723BC 		.word	-1138501878
 1535              		.cfi_endproc
 1536              	.LFE4856:
 1538              		.section	.text._ZN7VASynth9SetFilterEv,"ax",%progbits
 1539              		.align	1
 1540              		.p2align 2,,3
 1541              		.global	_ZN7VASynth9SetFilterEv
 1542              		.syntax unified
 1543              		.thumb
ARM GAS  /var/folders/kw/h2sg8jtn02b91cpsjc1nlpg80000gn/T//cc850yBR.s 			page 42


 1544              		.thumb_func
 1546              	_ZN7VASynth9SetFilterEv:
 1547              	.LVL105:
 1548              	.LFB4857:
 151:vasynth.cpp   **** 
 152:vasynth.cpp   **** void VASynth::SetFilter()
 153:vasynth.cpp   **** {
 1549              		.loc 1 153 1 is_stmt 1 view -0
 1550              		.cfi_startproc
 1551              		@ args = 0, pretend = 0, frame = 0
 1552              		@ frame_needed = 0, uses_anonymous_args = 0
 1553              		@ link register save eliminated.
 154:vasynth.cpp   **** 	for (uint8_t i = 0; i < VOICES_MAX; i++)
 1554              		.loc 1 154 2 view .LVU499
 1555              	.LBB426:
 1556              		.loc 1 154 24 view .LVU500
 155:vasynth.cpp   **** 	{
 156:vasynth.cpp   **** 		flt[i].SetFreq(filter_cutoff_);
 1557              		.loc 1 156 17 is_stmt 0 view .LVU501
 1558 0000 D0F88010 		ldr	r1, [r0, #128]	@ float
 1559 0004 00F5F163 		add	r3, r0, #1928
 157:vasynth.cpp   **** 		flt[i].SetRes(filter_res_);
 1560              		.loc 1 157 16 view .LVU502
 1561 0008 C26F     		ldr	r2, [r0, #124]	@ float
 1562 000a 00F6A810 		addw	r0, r0, #2472
 1563              	.LVL106:
 1564              	.L40:
 156:vasynth.cpp   **** 		flt[i].SetRes(filter_res_);
 1565              		.loc 1 156 3 is_stmt 1 discriminator 2 view .LVU503
 1566              	.LBB427:
 1567              	.LBI427:
  39:../../DaisySP/DaisySP-LGPL/Source/Filters/moogladder.h ****     /** 
 1568              		.loc 3 39 17 discriminator 2 view .LVU504
 1569              	.LBB428:
  39:../../DaisySP/DaisySP-LGPL/Source/Filters/moogladder.h ****     /** 
 1570              		.loc 3 39 39 discriminator 2 view .LVU505
  39:../../DaisySP/DaisySP-LGPL/Source/Filters/moogladder.h ****     /** 
 1571              		.loc 3 39 45 is_stmt 0 discriminator 2 view .LVU506
 1572 000e 5960     		str	r1, [r3, #4]	@ float
 1573              	.LVL107:
  39:../../DaisySP/DaisySP-LGPL/Source/Filters/moogladder.h ****     /** 
 1574              		.loc 3 39 45 discriminator 2 view .LVU507
 1575              	.LBE428:
 1576              	.LBE427:
 1577              		.loc 1 157 3 is_stmt 1 discriminator 2 view .LVU508
 1578              	.LBB429:
 1579              	.LBI429:
 1580              		.loc 3 43 17 discriminator 2 view .LVU509
 1581              	.LBB430:
 1582              		.loc 3 43 37 discriminator 2 view .LVU510
 1583              		.loc 3 43 42 is_stmt 0 discriminator 2 view .LVU511
 1584 0010 43F8442B 		str	r2, [r3], #68	@ float
 1585              	.LVL108:
 1586              		.loc 3 43 42 discriminator 2 view .LVU512
 1587              	.LBE430:
 1588              	.LBE429:
 154:vasynth.cpp   **** 	{
ARM GAS  /var/folders/kw/h2sg8jtn02b91cpsjc1nlpg80000gn/T//cc850yBR.s 			page 43


 1589              		.loc 1 154 2 is_stmt 1 discriminator 2 view .LVU513
 154:vasynth.cpp   **** 	{
 1590              		.loc 1 154 24 discriminator 2 view .LVU514
 1591 0014 8342     		cmp	r3, r0
 1592 0016 FAD1     		bne	.L40
 1593              	.LBE426:
 158:vasynth.cpp   **** 	}
 159:vasynth.cpp   **** }
 1594              		.loc 1 159 1 is_stmt 0 view .LVU515
 1595 0018 7047     		bx	lr
 1596              		.cfi_endproc
 1597              	.LFE4857:
 1599 001a 00BF     		.section	.text._ZN7VASynth6SetLFOEv,"ax",%progbits
 1600              		.align	1
 1601              		.p2align 2,,3
 1602              		.global	_ZN7VASynth6SetLFOEv
 1603              		.syntax unified
 1604              		.thumb
 1605              		.thumb_func
 1607              	_ZN7VASynth6SetLFOEv:
 1608              	.LVL109:
 1609              	.LFB4858:
 160:vasynth.cpp   **** 
 161:vasynth.cpp   **** void VASynth::SetLFO()
 162:vasynth.cpp   **** {
 1610              		.loc 1 162 1 is_stmt 1 view -0
 1611              		.cfi_startproc
 1612              		@ args = 0, pretend = 0, frame = 0
 1613              		@ frame_needed = 0, uses_anonymous_args = 0
 163:vasynth.cpp   **** 	lfo_.SetWaveform(lfo_waveform_);
 1614              		.loc 1 163 2 view .LVU517
 162:vasynth.cpp   **** 	lfo_.SetWaveform(lfo_waveform_);
 1615              		.loc 1 162 1 is_stmt 0 view .LVU518
 1616 0000 10B5     		push	{r4, lr}
 1617              		.cfi_def_cfa_offset 8
 1618              		.cfi_offset 4, -8
 1619              		.cfi_offset 14, -4
 164:vasynth.cpp   **** 	lfo_.SetFreq(lfo_freq_ * 8.0f);
 1620              		.loc 1 164 14 view .LVU519
 1621 0002 F2EE007A 		vmov.f32	s15, #8.0e+0
 163:vasynth.cpp   **** 	lfo_.SetWaveform(lfo_waveform_);
 1622              		.loc 1 163 18 view .LVU520
 1623 0006 90F84430 		ldrb	r3, [r0, #68]	@ zero_extendqisi2
 1624              		.loc 1 164 14 view .LVU521
 1625 000a 90ED120A 		vldr.32	s0, [r0, #72]
 162:vasynth.cpp   **** 	lfo_.SetWaveform(lfo_waveform_);
 1626              		.loc 1 162 1 view .LVU522
 1627 000e 0446     		mov	r4, r0
 1628              	.LVL110:
 1629              	.LBB431:
 1630              	.LBI431:
  79:../../DaisySP/Source/Synthesis/oscillator.h ****     {
 1631              		.loc 4 79 17 is_stmt 1 view .LVU523
 1632              	.LBB432:
  81:../../DaisySP/Source/Synthesis/oscillator.h ****     }
 1633              		.loc 4 81 9 view .LVU524
  81:../../DaisySP/Source/Synthesis/oscillator.h ****     }
ARM GAS  /var/folders/kw/h2sg8jtn02b91cpsjc1nlpg80000gn/T//cc850yBR.s 			page 44


 1634              		.loc 4 81 19 is_stmt 0 view .LVU525
 1635 0010 082B     		cmp	r3, #8
 1636              	.LBE432:
 1637              	.LBE431:
 1638              	.LBB435:
 1639              	.LBB436:
  70:../../DaisySP/Source/Synthesis/oscillator.h ****     }
 1640              		.loc 4 70 34 view .LVU526
 1641 0012 00F57570 		add	r0, r0, #980
 1642              	.LVL111:
  70:../../DaisySP/Source/Synthesis/oscillator.h ****     }
 1643              		.loc 4 70 34 view .LVU527
 1644              	.LBE436:
 1645              	.LBE435:
 1646              		.loc 1 164 14 view .LVU528
 1647 0016 20EE270A 		vmul.f32	s0, s0, s15
 1648              	.LBB440:
 1649              	.LBB433:
  81:../../DaisySP/Source/Synthesis/oscillator.h ****     }
 1650              		.loc 4 81 19 view .LVU529
 1651 001a 28BF     		it	cs
 1652 001c 0023     		movcs	r3, #0
 1653              	.LVL112:
  81:../../DaisySP/Source/Synthesis/oscillator.h ****     }
 1654              		.loc 4 81 19 view .LVU530
 1655              	.LBE433:
 1656              	.LBE440:
 1657              	.LBB441:
 1658              	.LBB437:
  69:../../DaisySP/Source/Synthesis/oscillator.h ****         phase_inc_ = CalcPhaseInc(f);
 1659              		.loc 4 69 20 view .LVU531
 1660 001e 84EDF70A 		vstr.32	s0, [r4, #988]
 1661              	.LBE437:
 1662              	.LBE441:
 1663              	.LBB442:
 1664              	.LBB434:
  81:../../DaisySP/Source/Synthesis/oscillator.h ****     }
 1665              		.loc 4 81 19 view .LVU532
 1666 0022 84F8D433 		strb	r3, [r4, #980]
 1667              	.LVL113:
  81:../../DaisySP/Source/Synthesis/oscillator.h ****     }
 1668              		.loc 4 81 19 view .LVU533
 1669              	.LBE434:
 1670              	.LBE442:
 1671              		.loc 1 164 2 is_stmt 1 view .LVU534
 1672              	.LBB443:
 1673              	.LBI435:
  67:../../DaisySP/Source/Synthesis/oscillator.h ****     {
 1674              		.loc 4 67 17 view .LVU535
 1675              	.LBB438:
  69:../../DaisySP/Source/Synthesis/oscillator.h ****         phase_inc_ = CalcPhaseInc(f);
 1676              		.loc 4 69 9 view .LVU536
  70:../../DaisySP/Source/Synthesis/oscillator.h ****     }
 1677              		.loc 4 70 9 view .LVU537
  70:../../DaisySP/Source/Synthesis/oscillator.h ****     }
 1678              		.loc 4 70 34 is_stmt 0 view .LVU538
 1679 0026 FFF7FEFF 		bl	_ZN7daisysp10Oscillator12CalcPhaseIncEf
ARM GAS  /var/folders/kw/h2sg8jtn02b91cpsjc1nlpg80000gn/T//cc850yBR.s 			page 45


 1680              	.LVL114:
  70:../../DaisySP/Source/Synthesis/oscillator.h ****     }
 1681              		.loc 4 70 34 view .LVU539
 1682              	.LBE438:
 1683              	.LBE443:
 1684              	.LBB444:
 1685              	.LBB445:
  76:../../DaisySP/Source/Synthesis/oscillator.h ****     /** Sets the waveform to be synthesized by the Process() function.
 1686              		.loc 4 76 46 view .LVU540
 1687 002a E36C     		ldr	r3, [r4, #76]	@ float
 1688              	.LBE445:
 1689              	.LBE444:
 1690              	.LBB447:
 1691              	.LBB439:
  70:../../DaisySP/Source/Synthesis/oscillator.h ****     }
 1692              		.loc 4 70 20 view .LVU541
 1693 002c 84EDFC0A 		vstr.32	s0, [r4, #1008]
 1694              	.LVL115:
  70:../../DaisySP/Source/Synthesis/oscillator.h ****     }
 1695              		.loc 4 70 20 view .LVU542
 1696              	.LBE439:
 1697              	.LBE447:
 165:vasynth.cpp   **** 	lfo_.SetAmp(lfo_amp_);
 1698              		.loc 1 165 2 is_stmt 1 view .LVU543
 1699              	.LBB448:
 1700              	.LBI444:
  76:../../DaisySP/Source/Synthesis/oscillator.h ****     /** Sets the waveform to be synthesized by the Process() function.
 1701              		.loc 4 76 17 view .LVU544
 1702              	.LBB446:
  76:../../DaisySP/Source/Synthesis/oscillator.h ****     /** Sets the waveform to be synthesized by the Process() function.
 1703              		.loc 4 76 41 view .LVU545
  76:../../DaisySP/Source/Synthesis/oscillator.h ****     /** Sets the waveform to be synthesized by the Process() function.
 1704              		.loc 4 76 46 is_stmt 0 view .LVU546
 1705 0030 C4F8D833 		str	r3, [r4, #984]	@ float
 1706              	.LVL116:
  76:../../DaisySP/Source/Synthesis/oscillator.h ****     /** Sets the waveform to be synthesized by the Process() function.
 1707              		.loc 4 76 46 view .LVU547
 1708              	.LBE446:
 1709              	.LBE448:
 166:vasynth.cpp   **** }
 1710              		.loc 1 166 1 view .LVU548
 1711 0034 10BD     		pop	{r4, pc}
 1712              		.loc 1 166 1 view .LVU549
 1713              		.cfi_endproc
 1714              	.LFE4858:
 1716 0036 00BF     		.section	.text._ZN7VASynth9SetPWMLFOEv,"ax",%progbits
 1717              		.align	1
 1718              		.p2align 2,,3
 1719              		.global	_ZN7VASynth9SetPWMLFOEv
 1720              		.syntax unified
 1721              		.thumb
 1722              		.thumb_func
 1724              	_ZN7VASynth9SetPWMLFOEv:
 1725              	.LVL117:
 1726              	.LFB4859:
 167:vasynth.cpp   **** 
 168:vasynth.cpp   **** void VASynth::SetPWMLFO()
ARM GAS  /var/folders/kw/h2sg8jtn02b91cpsjc1nlpg80000gn/T//cc850yBR.s 			page 46


 169:vasynth.cpp   **** {
 1727              		.loc 1 169 1 is_stmt 1 view -0
 1728              		.cfi_startproc
 1729              		@ args = 0, pretend = 0, frame = 0
 1730              		@ frame_needed = 0, uses_anonymous_args = 0
 170:vasynth.cpp   **** 	pwmlfo_.SetWaveform(pwmlfo_waveform_);
 1731              		.loc 1 170 2 view .LVU551
 169:vasynth.cpp   **** 	pwmlfo_.SetWaveform(pwmlfo_waveform_);
 1732              		.loc 1 169 1 is_stmt 0 view .LVU552
 1733 0000 38B5     		push	{r3, r4, r5, lr}
 1734              		.cfi_def_cfa_offset 16
 1735              		.cfi_offset 3, -16
 1736              		.cfi_offset 4, -12
 1737              		.cfi_offset 5, -8
 1738              		.cfi_offset 14, -4
 1739              		.loc 1 170 21 view .LVU553
 1740 0002 90F85030 		ldrb	r3, [r0, #80]	@ zero_extendqisi2
 1741              	.LBB449:
 1742              	.LBB450:
  69:../../DaisySP/Source/Synthesis/oscillator.h ****         phase_inc_ = CalcPhaseInc(f);
 1743              		.loc 4 69 20 view .LVU554
 1744 0006 00F58065 		add	r5, r0, #1024
 1745              	.LBE450:
 1746              	.LBE449:
 171:vasynth.cpp   **** 	pwmlfo_.SetFreq(pwmlfo_freq_);
 1747              		.loc 1 171 17 view .LVU555
 1748 000a 90ED150A 		vldr.32	s0, [r0, #84]
 169:vasynth.cpp   **** 	pwmlfo_.SetWaveform(pwmlfo_waveform_);
 1749              		.loc 1 169 1 view .LVU556
 1750 000e 0446     		mov	r4, r0
 1751              	.LVL118:
 1752              	.LBB453:
 1753              	.LBI453:
  79:../../DaisySP/Source/Synthesis/oscillator.h ****     {
 1754              		.loc 4 79 17 is_stmt 1 view .LVU557
 1755              	.LBB454:
  81:../../DaisySP/Source/Synthesis/oscillator.h ****     }
 1756              		.loc 4 81 9 view .LVU558
  81:../../DaisySP/Source/Synthesis/oscillator.h ****     }
 1757              		.loc 4 81 19 is_stmt 0 view .LVU559
 1758 0010 082B     		cmp	r3, #8
 1759              	.LBE454:
 1760              	.LBE453:
 1761              	.LBB456:
 1762              	.LBB451:
  70:../../DaisySP/Source/Synthesis/oscillator.h ****     }
 1763              		.loc 4 70 34 view .LVU560
 1764 0012 2846     		mov	r0, r5
 1765              	.LVL119:
  70:../../DaisySP/Source/Synthesis/oscillator.h ****     }
 1766              		.loc 4 70 34 view .LVU561
 1767              	.LBE451:
 1768              	.LBE456:
 1769              	.LBB457:
 1770              	.LBB455:
  81:../../DaisySP/Source/Synthesis/oscillator.h ****     }
 1771              		.loc 4 81 19 view .LVU562
ARM GAS  /var/folders/kw/h2sg8jtn02b91cpsjc1nlpg80000gn/T//cc850yBR.s 			page 47


 1772 0014 28BF     		it	cs
 1773 0016 0023     		movcs	r3, #0
 1774              	.LVL120:
  81:../../DaisySP/Source/Synthesis/oscillator.h ****     }
 1775              		.loc 4 81 19 view .LVU563
 1776 0018 84F80034 		strb	r3, [r4, #1024]
 1777              	.LVL121:
  81:../../DaisySP/Source/Synthesis/oscillator.h ****     }
 1778              		.loc 4 81 19 view .LVU564
 1779              	.LBE455:
 1780              	.LBE457:
 1781              		.loc 1 171 2 is_stmt 1 view .LVU565
 1782              	.LBB458:
 1783              	.LBI449:
  67:../../DaisySP/Source/Synthesis/oscillator.h ****     {
 1784              		.loc 4 67 17 view .LVU566
 1785              	.LBB452:
  69:../../DaisySP/Source/Synthesis/oscillator.h ****         phase_inc_ = CalcPhaseInc(f);
 1786              		.loc 4 69 9 view .LVU567
  69:../../DaisySP/Source/Synthesis/oscillator.h ****         phase_inc_ = CalcPhaseInc(f);
 1787              		.loc 4 69 20 is_stmt 0 view .LVU568
 1788 001c 85ED020A 		vstr.32	s0, [r5, #8]
  70:../../DaisySP/Source/Synthesis/oscillator.h ****     }
 1789              		.loc 4 70 9 is_stmt 1 view .LVU569
  70:../../DaisySP/Source/Synthesis/oscillator.h ****     }
 1790              		.loc 4 70 34 is_stmt 0 view .LVU570
 1791 0020 FFF7FEFF 		bl	_ZN7daisysp10Oscillator12CalcPhaseIncEf
 1792              	.LVL122:
  70:../../DaisySP/Source/Synthesis/oscillator.h ****     }
 1793              		.loc 4 70 20 view .LVU571
 1794 0024 85ED070A 		vstr.32	s0, [r5, #28]
 1795              	.LVL123:
  70:../../DaisySP/Source/Synthesis/oscillator.h ****     }
 1796              		.loc 4 70 20 view .LVU572
 1797              	.LBE452:
 1798              	.LBE458:
 172:vasynth.cpp   **** 	pwmlfo_.SetAmp(pwmlfo_amp_);
 1799              		.loc 1 172 2 is_stmt 1 view .LVU573
 1800              	.LBB459:
 1801              	.LBI459:
  76:../../DaisySP/Source/Synthesis/oscillator.h ****     /** Sets the waveform to be synthesized by the Process() function.
 1802              		.loc 4 76 17 view .LVU574
 1803              	.LBB460:
  76:../../DaisySP/Source/Synthesis/oscillator.h ****     /** Sets the waveform to be synthesized by the Process() function.
 1804              		.loc 4 76 41 view .LVU575
  76:../../DaisySP/Source/Synthesis/oscillator.h ****     /** Sets the waveform to be synthesized by the Process() function.
 1805              		.loc 4 76 46 is_stmt 0 view .LVU576
 1806 0028 A36D     		ldr	r3, [r4, #88]	@ float
 1807 002a 6B60     		str	r3, [r5, #4]	@ float
 1808              	.LVL124:
  76:../../DaisySP/Source/Synthesis/oscillator.h ****     /** Sets the waveform to be synthesized by the Process() function.
 1809              		.loc 4 76 46 view .LVU577
 1810              	.LBE460:
 1811              	.LBE459:
 173:vasynth.cpp   **** }
 1812              		.loc 1 173 1 view .LVU578
 1813 002c 38BD     		pop	{r3, r4, r5, pc}
ARM GAS  /var/folders/kw/h2sg8jtn02b91cpsjc1nlpg80000gn/T//cc850yBR.s 			page 48


 1814              		.loc 1 173 1 view .LVU579
 1815              		.cfi_endproc
 1816              	.LFE4859:
 1818 002e 00BF     		.section	.text._ZN7VASynth10SetPWM2LFOEv,"ax",%progbits
 1819              		.align	1
 1820              		.p2align 2,,3
 1821              		.global	_ZN7VASynth10SetPWM2LFOEv
 1822              		.syntax unified
 1823              		.thumb
 1824              		.thumb_func
 1826              	_ZN7VASynth10SetPWM2LFOEv:
 1827              	.LVL125:
 1828              	.LFB4860:
 174:vasynth.cpp   **** 
 175:vasynth.cpp   **** void VASynth::SetPWM2LFO()
 176:vasynth.cpp   **** {
 1829              		.loc 1 176 1 is_stmt 1 view -0
 1830              		.cfi_startproc
 1831              		@ args = 0, pretend = 0, frame = 0
 1832              		@ frame_needed = 0, uses_anonymous_args = 0
 177:vasynth.cpp   **** 	pwm2lfo_.SetWaveform(pwm2lfo_waveform_);
 1833              		.loc 1 177 2 view .LVU581
 176:vasynth.cpp   **** 	pwm2lfo_.SetWaveform(pwm2lfo_waveform_);
 1834              		.loc 1 176 1 is_stmt 0 view .LVU582
 1835 0000 38B5     		push	{r3, r4, r5, lr}
 1836              		.cfi_def_cfa_offset 16
 1837              		.cfi_offset 3, -16
 1838              		.cfi_offset 4, -12
 1839              		.cfi_offset 5, -8
 1840              		.cfi_offset 14, -4
 1841              		.loc 1 177 22 view .LVU583
 1842 0002 90F85C30 		ldrb	r3, [r0, #92]	@ zero_extendqisi2
 1843              	.LBB461:
 1844              	.LBB462:
  69:../../DaisySP/Source/Synthesis/oscillator.h ****         phase_inc_ = CalcPhaseInc(f);
 1845              		.loc 4 69 20 view .LVU584
 1846 0006 00F22C45 		addw	r5, r0, #1068
 1847              	.LBE462:
 1848              	.LBE461:
 178:vasynth.cpp   **** 	pwm2lfo_.SetFreq(pwm2lfo_freq_);
 1849              		.loc 1 178 18 view .LVU585
 1850 000a 90ED180A 		vldr.32	s0, [r0, #96]
 176:vasynth.cpp   **** 	pwm2lfo_.SetWaveform(pwm2lfo_waveform_);
 1851              		.loc 1 176 1 view .LVU586
 1852 000e 0446     		mov	r4, r0
 1853              	.LVL126:
 1854              	.LBB465:
 1855              	.LBI465:
  79:../../DaisySP/Source/Synthesis/oscillator.h ****     {
 1856              		.loc 4 79 17 is_stmt 1 view .LVU587
 1857              	.LBB466:
  81:../../DaisySP/Source/Synthesis/oscillator.h ****     }
 1858              		.loc 4 81 9 view .LVU588
  81:../../DaisySP/Source/Synthesis/oscillator.h ****     }
 1859              		.loc 4 81 19 is_stmt 0 view .LVU589
 1860 0010 082B     		cmp	r3, #8
 1861              	.LBE466:
ARM GAS  /var/folders/kw/h2sg8jtn02b91cpsjc1nlpg80000gn/T//cc850yBR.s 			page 49


 1862              	.LBE465:
 1863              	.LBB468:
 1864              	.LBB463:
  70:../../DaisySP/Source/Synthesis/oscillator.h ****     }
 1865              		.loc 4 70 34 view .LVU590
 1866 0012 2846     		mov	r0, r5
 1867              	.LVL127:
  70:../../DaisySP/Source/Synthesis/oscillator.h ****     }
 1868              		.loc 4 70 34 view .LVU591
 1869              	.LBE463:
 1870              	.LBE468:
 1871              	.LBB469:
 1872              	.LBB467:
  81:../../DaisySP/Source/Synthesis/oscillator.h ****     }
 1873              		.loc 4 81 19 view .LVU592
 1874 0014 28BF     		it	cs
 1875 0016 0023     		movcs	r3, #0
 1876              	.LVL128:
  81:../../DaisySP/Source/Synthesis/oscillator.h ****     }
 1877              		.loc 4 81 19 view .LVU593
 1878 0018 84F82C34 		strb	r3, [r4, #1068]
 1879              	.LVL129:
  81:../../DaisySP/Source/Synthesis/oscillator.h ****     }
 1880              		.loc 4 81 19 view .LVU594
 1881              	.LBE467:
 1882              	.LBE469:
 1883              		.loc 1 178 2 is_stmt 1 view .LVU595
 1884              	.LBB470:
 1885              	.LBI461:
  67:../../DaisySP/Source/Synthesis/oscillator.h ****     {
 1886              		.loc 4 67 17 view .LVU596
 1887              	.LBB464:
  69:../../DaisySP/Source/Synthesis/oscillator.h ****         phase_inc_ = CalcPhaseInc(f);
 1888              		.loc 4 69 9 view .LVU597
  69:../../DaisySP/Source/Synthesis/oscillator.h ****         phase_inc_ = CalcPhaseInc(f);
 1889              		.loc 4 69 20 is_stmt 0 view .LVU598
 1890 001c 85ED020A 		vstr.32	s0, [r5, #8]
  70:../../DaisySP/Source/Synthesis/oscillator.h ****     }
 1891              		.loc 4 70 9 is_stmt 1 view .LVU599
  70:../../DaisySP/Source/Synthesis/oscillator.h ****     }
 1892              		.loc 4 70 34 is_stmt 0 view .LVU600
 1893 0020 FFF7FEFF 		bl	_ZN7daisysp10Oscillator12CalcPhaseIncEf
 1894              	.LVL130:
  70:../../DaisySP/Source/Synthesis/oscillator.h ****     }
 1895              		.loc 4 70 20 view .LVU601
 1896 0024 85ED070A 		vstr.32	s0, [r5, #28]
 1897              	.LVL131:
  70:../../DaisySP/Source/Synthesis/oscillator.h ****     }
 1898              		.loc 4 70 20 view .LVU602
 1899              	.LBE464:
 1900              	.LBE470:
 179:vasynth.cpp   **** 	pwm2lfo_.SetAmp(pwm2lfo_amp_);
 1901              		.loc 1 179 2 is_stmt 1 view .LVU603
 1902              	.LBB471:
 1903              	.LBI471:
  76:../../DaisySP/Source/Synthesis/oscillator.h ****     /** Sets the waveform to be synthesized by the Process() function.
 1904              		.loc 4 76 17 view .LVU604
ARM GAS  /var/folders/kw/h2sg8jtn02b91cpsjc1nlpg80000gn/T//cc850yBR.s 			page 50


 1905              	.LBB472:
  76:../../DaisySP/Source/Synthesis/oscillator.h ****     /** Sets the waveform to be synthesized by the Process() function.
 1906              		.loc 4 76 41 view .LVU605
  76:../../DaisySP/Source/Synthesis/oscillator.h ****     /** Sets the waveform to be synthesized by the Process() function.
 1907              		.loc 4 76 46 is_stmt 0 view .LVU606
 1908 0028 636E     		ldr	r3, [r4, #100]	@ float
 1909 002a 6B60     		str	r3, [r5, #4]	@ float
 1910              	.LVL132:
  76:../../DaisySP/Source/Synthesis/oscillator.h ****     /** Sets the waveform to be synthesized by the Process() function.
 1911              		.loc 4 76 46 view .LVU607
 1912              	.LBE472:
 1913              	.LBE471:
 180:vasynth.cpp   **** }
 1914              		.loc 1 180 1 view .LVU608
 1915 002c 38BD     		pop	{r3, r4, r5, pc}
 1916              		.loc 1 180 1 view .LVU609
 1917              		.cfi_endproc
 1918              	.LFE4860:
 1920 002e 00BF     		.section	.text._ZN7VASynth12SetVCAVCFLFOEv,"ax",%progbits
 1921              		.align	1
 1922              		.p2align 2,,3
 1923              		.global	_ZN7VASynth12SetVCAVCFLFOEv
 1924              		.syntax unified
 1925              		.thumb
 1926              		.thumb_func
 1928              	_ZN7VASynth12SetVCAVCFLFOEv:
 1929              	.LVL133:
 1930              	.LFB4861:
 181:vasynth.cpp   **** 
 182:vasynth.cpp   **** void VASynth::SetVCAVCFLFO()
 183:vasynth.cpp   **** {
 1931              		.loc 1 183 1 is_stmt 1 view -0
 1932              		.cfi_startproc
 1933              		@ args = 0, pretend = 0, frame = 0
 1934              		@ frame_needed = 0, uses_anonymous_args = 0
 184:vasynth.cpp   **** 	vcavcflfo_.SetWaveform(vcavcflfo_waveform_);
 1935              		.loc 1 184 2 view .LVU611
 183:vasynth.cpp   **** 	vcavcflfo_.SetWaveform(vcavcflfo_waveform_);
 1936              		.loc 1 183 1 is_stmt 0 view .LVU612
 1937 0000 38B5     		push	{r3, r4, r5, lr}
 1938              		.cfi_def_cfa_offset 16
 1939              		.cfi_offset 3, -16
 1940              		.cfi_offset 4, -12
 1941              		.cfi_offset 5, -8
 1942              		.cfi_offset 14, -4
 185:vasynth.cpp   **** 	vcavcflfo_.SetFreq(vcavcflfo_freq_ * 8.0f);
 1943              		.loc 1 185 20 view .LVU613
 1944 0002 F2EE007A 		vmov.f32	s15, #8.0e+0
 184:vasynth.cpp   **** 	vcavcflfo_.SetWaveform(vcavcflfo_waveform_);
 1945              		.loc 1 184 24 view .LVU614
 1946 0006 90F86830 		ldrb	r3, [r0, #104]	@ zero_extendqisi2
 1947              		.loc 1 185 20 view .LVU615
 1948 000a 90ED1B0A 		vldr.32	s0, [r0, #108]
 1949              	.LBB473:
 1950              	.LBB474:
  69:../../DaisySP/Source/Synthesis/oscillator.h ****         phase_inc_ = CalcPhaseInc(f);
 1951              		.loc 4 69 20 view .LVU616
ARM GAS  /var/folders/kw/h2sg8jtn02b91cpsjc1nlpg80000gn/T//cc850yBR.s 			page 51


 1952 000e 00F58B65 		add	r5, r0, #1112
 1953              	.LBE474:
 1954              	.LBE473:
 1955              	.LBB477:
 1956              	.LBB478:
  81:../../DaisySP/Source/Synthesis/oscillator.h ****     }
 1957              		.loc 4 81 19 view .LVU617
 1958 0012 082B     		cmp	r3, #8
 1959              	.LBE478:
 1960              	.LBE477:
 183:vasynth.cpp   **** 	vcavcflfo_.SetWaveform(vcavcflfo_waveform_);
 1961              		.loc 1 183 1 view .LVU618
 1962 0014 0446     		mov	r4, r0
 1963              	.LVL134:
 1964              	.LBB481:
 1965              	.LBI477:
  79:../../DaisySP/Source/Synthesis/oscillator.h ****     {
 1966              		.loc 4 79 17 is_stmt 1 view .LVU619
 1967              	.LBB479:
  81:../../DaisySP/Source/Synthesis/oscillator.h ****     }
 1968              		.loc 4 81 9 view .LVU620
 1969              	.LBE479:
 1970              	.LBE481:
 1971              		.loc 1 185 20 is_stmt 0 view .LVU621
 1972 0016 20EE270A 		vmul.f32	s0, s0, s15
 1973              	.LBB482:
 1974              	.LBB475:
  70:../../DaisySP/Source/Synthesis/oscillator.h ****     }
 1975              		.loc 4 70 34 view .LVU622
 1976 001a 2846     		mov	r0, r5
 1977              	.LVL135:
  70:../../DaisySP/Source/Synthesis/oscillator.h ****     }
 1978              		.loc 4 70 34 view .LVU623
 1979              	.LBE475:
 1980              	.LBE482:
 1981              	.LBB483:
 1982              	.LBB480:
  81:../../DaisySP/Source/Synthesis/oscillator.h ****     }
 1983              		.loc 4 81 19 view .LVU624
 1984 001c 28BF     		it	cs
 1985 001e 0023     		movcs	r3, #0
 1986              	.LVL136:
  81:../../DaisySP/Source/Synthesis/oscillator.h ****     }
 1987              		.loc 4 81 19 view .LVU625
 1988 0020 84F85834 		strb	r3, [r4, #1112]
 1989              	.LVL137:
  81:../../DaisySP/Source/Synthesis/oscillator.h ****     }
 1990              		.loc 4 81 19 view .LVU626
 1991              	.LBE480:
 1992              	.LBE483:
 1993              		.loc 1 185 2 is_stmt 1 view .LVU627
 1994              	.LBB484:
 1995              	.LBI473:
  67:../../DaisySP/Source/Synthesis/oscillator.h ****     {
 1996              		.loc 4 67 17 view .LVU628
 1997              	.LBB476:
  69:../../DaisySP/Source/Synthesis/oscillator.h ****         phase_inc_ = CalcPhaseInc(f);
ARM GAS  /var/folders/kw/h2sg8jtn02b91cpsjc1nlpg80000gn/T//cc850yBR.s 			page 52


 1998              		.loc 4 69 9 view .LVU629
  69:../../DaisySP/Source/Synthesis/oscillator.h ****         phase_inc_ = CalcPhaseInc(f);
 1999              		.loc 4 69 20 is_stmt 0 view .LVU630
 2000 0024 85ED020A 		vstr.32	s0, [r5, #8]
  70:../../DaisySP/Source/Synthesis/oscillator.h ****     }
 2001              		.loc 4 70 9 is_stmt 1 view .LVU631
  70:../../DaisySP/Source/Synthesis/oscillator.h ****     }
 2002              		.loc 4 70 34 is_stmt 0 view .LVU632
 2003 0028 FFF7FEFF 		bl	_ZN7daisysp10Oscillator12CalcPhaseIncEf
 2004              	.LVL138:
  70:../../DaisySP/Source/Synthesis/oscillator.h ****     }
 2005              		.loc 4 70 20 view .LVU633
 2006 002c 85ED070A 		vstr.32	s0, [r5, #28]
 2007              	.LVL139:
  70:../../DaisySP/Source/Synthesis/oscillator.h ****     }
 2008              		.loc 4 70 20 view .LVU634
 2009              	.LBE476:
 2010              	.LBE484:
 186:vasynth.cpp   **** 	vcavcflfo_.SetAmp(vcavcflfo_amp_);
 2011              		.loc 1 186 2 is_stmt 1 view .LVU635
 2012              	.LBB485:
 2013              	.LBI485:
  76:../../DaisySP/Source/Synthesis/oscillator.h ****     /** Sets the waveform to be synthesized by the Process() function.
 2014              		.loc 4 76 17 view .LVU636
 2015              	.LBB486:
  76:../../DaisySP/Source/Synthesis/oscillator.h ****     /** Sets the waveform to be synthesized by the Process() function.
 2016              		.loc 4 76 41 view .LVU637
  76:../../DaisySP/Source/Synthesis/oscillator.h ****     /** Sets the waveform to be synthesized by the Process() function.
 2017              		.loc 4 76 46 is_stmt 0 view .LVU638
 2018 0030 236F     		ldr	r3, [r4, #112]	@ float
 2019 0032 6B60     		str	r3, [r5, #4]	@ float
 2020              	.LVL140:
  76:../../DaisySP/Source/Synthesis/oscillator.h ****     /** Sets the waveform to be synthesized by the Process() function.
 2021              		.loc 4 76 46 view .LVU639
 2022              	.LBE486:
 2023              	.LBE485:
 187:vasynth.cpp   **** }
 2024              		.loc 1 187 1 view .LVU640
 2025 0034 38BD     		pop	{r3, r4, r5, pc}
 2026              		.loc 1 187 1 view .LVU641
 2027              		.cfi_endproc
 2028              	.LFE4861:
 2030 0036 00BF     		.section	.text._ZN7VASynth7ProcessEPfS0_,"ax",%progbits
 2031              		.align	1
 2032              		.p2align 2,,3
 2033              		.global	_ZN7VASynth7ProcessEPfS0_
 2034              		.syntax unified
 2035              		.thumb
 2036              		.thumb_func
 2038              	_ZN7VASynth7ProcessEPfS0_:
 2039              	.LVL141:
 2040              	.LFB4862:
 188:vasynth.cpp   **** 
 189:vasynth.cpp   **** void VASynth::Process(float *out_l, float *out_r)
 190:vasynth.cpp   **** {
 2041              		.loc 1 190 1 is_stmt 1 view -0
 2042              		.cfi_startproc
ARM GAS  /var/folders/kw/h2sg8jtn02b91cpsjc1nlpg80000gn/T//cc850yBR.s 			page 53


 2043              		@ args = 0, pretend = 0, frame = 16
 2044              		@ frame_needed = 0, uses_anonymous_args = 0
 191:vasynth.cpp   **** 	float lfo_out;
 2045              		.loc 1 191 2 view .LVU643
 192:vasynth.cpp   **** 	float pwmlfo_out;
 2046              		.loc 1 192 2 view .LVU644
 193:vasynth.cpp   **** 	float pwm2lfo_out;
 2047              		.loc 1 193 2 view .LVU645
 194:vasynth.cpp   **** 	float vcavcflfo_out;
 2048              		.loc 1 194 2 view .LVU646
 195:vasynth.cpp   **** 	float env_a_out;
 2049              		.loc 1 195 2 view .LVU647
 196:vasynth.cpp   **** 	float env_f_out;
 2050              		.loc 1 196 2 view .LVU648
 197:vasynth.cpp   **** 	float osc_one;
 2051              		.loc 1 197 2 view .LVU649
 198:vasynth.cpp   **** 	float osc_two;
 2052              		.loc 1 198 2 view .LVU650
 199:vasynth.cpp   **** 	float osc_out;
 2053              		.loc 1 199 2 view .LVU651
 200:vasynth.cpp   **** 	float filter_out;
 2054              		.loc 1 200 2 view .LVU652
 201:vasynth.cpp   **** 	float voice_out;
 2055              		.loc 1 201 2 view .LVU653
 202:vasynth.cpp   **** 	float delay_out;
 2056              		.loc 1 202 2 view .LVU654
 203:vasynth.cpp   **** 	float bender;
 2057              		.loc 1 203 2 view .LVU655
 204:vasynth.cpp   **** 	float tuning;
 2058              		.loc 1 204 2 view .LVU656
 205:vasynth.cpp   **** 	float pitchmod;
 2059              		.loc 1 205 2 view .LVU657
 206:vasynth.cpp   **** 	float detune;
 2060              		.loc 1 206 2 view .LVU658
 207:vasynth.cpp   **** 
 208:vasynth.cpp   **** 	bool note_on;
 2061              		.loc 1 208 2 view .LVU659
 209:vasynth.cpp   **** 
 210:vasynth.cpp   **** 	// Process mod, pwm, vca, and vcf lfo's
 211:vasynth.cpp   **** 	lfo_out = lfo_.Process();
 2062              		.loc 1 211 2 view .LVU660
 190:vasynth.cpp   **** 	float lfo_out;
 2063              		.loc 1 190 1 is_stmt 0 view .LVU661
 2064 0000 2DE9F04F 		push	{r4, r5, r6, r7, r8, r9, r10, fp, lr}
 2065              		.cfi_def_cfa_offset 36
 2066              		.cfi_offset 4, -36
 2067              		.cfi_offset 5, -32
 2068              		.cfi_offset 6, -28
 2069              		.cfi_offset 7, -24
 2070              		.cfi_offset 8, -20
 2071              		.cfi_offset 9, -16
 2072              		.cfi_offset 10, -12
 2073              		.cfi_offset 11, -8
 2074              		.cfi_offset 14, -4
 2075 0004 0446     		mov	r4, r0
 2076              		.loc 1 211 24 view .LVU662
 2077 0006 00F57570 		add	r0, r0, #980
ARM GAS  /var/folders/kw/h2sg8jtn02b91cpsjc1nlpg80000gn/T//cc850yBR.s 			page 54


 2078              	.LVL142:
 2079              		.loc 1 211 24 view .LVU663
 2080 000a DFF894B3 		ldr	fp, .L70+20
 2081 000e 04F18B07 		add	r7, r4, #139
 2082 0012 04F28476 		addw	r6, r4, #1924
 2083 0016 04F19409 		add	r9, r4, #148
 2084 001a 04F58A7A 		add	r10, r4, #276
 2085 001e 04F20465 		addw	r5, r4, #1540
 190:vasynth.cpp   **** 	float lfo_out;
 2086              		.loc 1 190 1 view .LVU664
 2087 0022 2DED0A8B 		vpush.64	{d8, d9, d10, d11, d12}
 2088              		.cfi_def_cfa_offset 76
 2089              		.cfi_offset 80, -76
 2090              		.cfi_offset 81, -72
 2091              		.cfi_offset 82, -68
 2092              		.cfi_offset 83, -64
 2093              		.cfi_offset 84, -60
 2094              		.cfi_offset 85, -56
 2095              		.cfi_offset 86, -52
 2096              		.cfi_offset 87, -48
 2097              		.cfi_offset 88, -44
 2098              		.cfi_offset 89, -40
 2099 0026 85B0     		sub	sp, sp, #20
 2100              		.cfi_def_cfa_offset 96
 212:vasynth.cpp   **** 	pwmlfo_out = pwmlfo_.Process();
 213:vasynth.cpp   **** 	pwm2lfo_out = pwm2lfo_.Process();
 214:vasynth.cpp   **** 	vcavcflfo_out = vcavcflfo_.Process();
 215:vasynth.cpp   **** 	
 216:vasynth.cpp   **** 	filter_out = 0;
 2101              		.loc 1 216 13 view .LVU665
 2102 0028 DFEDD88A 		vldr.32	s17, .L70
 190:vasynth.cpp   **** 	float lfo_out;
 2103              		.loc 1 190 1 view .LVU666
 2104 002c CDE90212 		strd	r1, r2, [sp, #8]
 211:vasynth.cpp   **** 	pwmlfo_out = pwmlfo_.Process();
 2105              		.loc 1 211 24 view .LVU667
 2106 0030 FFF7FEFF 		bl	_ZN7daisysp10Oscillator7ProcessEv
 2107              	.LVL143:
 212:vasynth.cpp   **** 	pwmlfo_out = pwmlfo_.Process();
 2108              		.loc 1 212 30 view .LVU668
 2109 0034 04F58060 		add	r0, r4, #1024
 211:vasynth.cpp   **** 	pwmlfo_out = pwmlfo_.Process();
 2110              		.loc 1 211 24 view .LVU669
 2111 0038 F0EE40AA 		vmov.f32	s21, s0
 2112              	.LVL144:
 212:vasynth.cpp   **** 	pwmlfo_out = pwmlfo_.Process();
 2113              		.loc 1 212 2 is_stmt 1 view .LVU670
 212:vasynth.cpp   **** 	pwmlfo_out = pwmlfo_.Process();
 2114              		.loc 1 212 30 is_stmt 0 view .LVU671
 2115 003c FFF7FEFF 		bl	_ZN7daisysp10Oscillator7ProcessEv
 2116              	.LVL145:
 213:vasynth.cpp   **** 	vcavcflfo_out = vcavcflfo_.Process();
 2117              		.loc 1 213 32 view .LVU672
 2118 0040 04F22C40 		addw	r0, r4, #1068
 212:vasynth.cpp   **** 	pwmlfo_out = pwmlfo_.Process();
 2119              		.loc 1 212 30 view .LVU673
 2120 0044 B0EE40AA 		vmov.f32	s20, s0
ARM GAS  /var/folders/kw/h2sg8jtn02b91cpsjc1nlpg80000gn/T//cc850yBR.s 			page 55


 2121              	.LVL146:
 213:vasynth.cpp   **** 	vcavcflfo_out = vcavcflfo_.Process();
 2122              		.loc 1 213 2 is_stmt 1 view .LVU674
 213:vasynth.cpp   **** 	vcavcflfo_out = vcavcflfo_.Process();
 2123              		.loc 1 213 32 is_stmt 0 view .LVU675
 2124 0048 FFF7FEFF 		bl	_ZN7daisysp10Oscillator7ProcessEv
 2125              	.LVL147:
 214:vasynth.cpp   **** 	
 2126              		.loc 1 214 36 view .LVU676
 2127 004c 04F58B60 		add	r0, r4, #1112
 213:vasynth.cpp   **** 	vcavcflfo_out = vcavcflfo_.Process();
 2128              		.loc 1 213 32 view .LVU677
 2129 0050 F0EE409A 		vmov.f32	s19, s0
 2130              	.LVL148:
 214:vasynth.cpp   **** 	
 2131              		.loc 1 214 2 is_stmt 1 view .LVU678
 214:vasynth.cpp   **** 	
 2132              		.loc 1 214 36 is_stmt 0 view .LVU679
 2133 0054 FFF7FEFF 		bl	_ZN7daisysp10Oscillator7ProcessEv
 2134              	.LVL149:
 214:vasynth.cpp   **** 	
 2135              		.loc 1 214 36 view .LVU680
 2136 0058 04F19303 		add	r3, r4, #147
 2137 005c B0EE409A 		vmov.f32	s18, s0
 2138              	.LVL150:
 2139              		.loc 1 216 2 is_stmt 1 view .LVU681
 217:vasynth.cpp   **** 
 218:vasynth.cpp   **** 	for (uint8_t i = 0; i < VOICES_MAX; i++)
 2140              		.loc 1 218 2 view .LVU682
 2141              	.LBB522:
 2142              		.loc 1 218 24 view .LVU683
 2143 0060 0193     		str	r3, [sp, #4]
 2144 0062 29E0     		b	.L62
 2145              	.LVL151:
 2146              	.L69:
 219:vasynth.cpp   **** 	{
 220:vasynth.cpp   **** 		note_on = (note_midi_[i] != 0);
 221:vasynth.cpp   **** 
 222:vasynth.cpp   **** 		// Calculate keyboard follow value for the VCF and ENV on active notes
 223:vasynth.cpp   **** 		if(note_on)
 224:vasynth.cpp   **** 		{
 225:vasynth.cpp   **** 			follow[i] = 1.0f - (float (note_midi_[i])/84.0f);	
 226:vasynth.cpp   **** 		}
 227:vasynth.cpp   **** 
 228:vasynth.cpp   **** 		if(env_kbd_follow_)
 229:vasynth.cpp   **** 		{
 230:vasynth.cpp   **** 			// Calculate envelope speeds for VCF and VCA based on ENV keyboard follow value
 231:vasynth.cpp   **** 			eg_f_[i].SetTime(ADSR_SEG_ATTACK, eg_f_attack_ * (1.0f - ((env_kbd_follow_ * (1.0f - follow[i]))
 232:vasynth.cpp   **** 			eg_f_[i].SetTime(ADSR_SEG_DECAY, eg_f_decay_ * (1.0f - ((env_kbd_follow_ * (1.0f - follow[i]))))
 233:vasynth.cpp   **** 			eg_f_[i].SetTime(ADSR_SEG_RELEASE, eg_f_release_ * (1.0f - ((env_kbd_follow_ * (1.0f - follow[i]
 234:vasynth.cpp   **** 			eg_a_[i].SetTime(ADSR_SEG_ATTACK, eg_a_attack_ * (1.0f - ((env_kbd_follow_ * (1.0f - follow[i]))
 235:vasynth.cpp   **** 			eg_a_[i].SetTime(ADSR_SEG_DECAY, eg_a_decay_ * (1.0f - ((env_kbd_follow_ * (1.0f - follow[i]))))
 236:vasynth.cpp   **** 			eg_a_[i].SetTime(ADSR_SEG_RELEASE, eg_a_release_ * (1.0f - ((env_kbd_follow_ * (1.0f - follow[i]
 237:vasynth.cpp   **** 		}
 238:vasynth.cpp   **** 		
 239:vasynth.cpp   **** 		// EG - AMP
 240:vasynth.cpp   **** 		env_a_out = eg_a_[i].Process(note_on);
ARM GAS  /var/folders/kw/h2sg8jtn02b91cpsjc1nlpg80000gn/T//cc850yBR.s 			page 56


 241:vasynth.cpp   **** 
 242:vasynth.cpp   **** 		if(vel_select_ >= 2)
 243:vasynth.cpp   **** 		{
 244:vasynth.cpp   **** 			// Enable velocity control of the VCA on osc
 245:vasynth.cpp   **** 			osc_[i].SetAmp(env_a_out * velocity[i] * (1.0f + vcavcflfo_out));
 246:vasynth.cpp   **** 		}
 247:vasynth.cpp   **** 		else
 248:vasynth.cpp   **** 		{
 249:vasynth.cpp   **** 			// Disable velocity control of the VCA on osc
 250:vasynth.cpp   **** 			osc_[i].SetAmp(env_a_out * (1.0f + vcavcflfo_out));
 251:vasynth.cpp   **** 		}
 252:vasynth.cpp   **** 
 253:vasynth.cpp   **** 		if(vel_select_ >= 2)
 254:vasynth.cpp   **** 		{
 255:vasynth.cpp   **** 			// Enable velocity control of the VCA on osc2
 256:vasynth.cpp   **** 			osc2_[i].SetAmp(env_a_out * velocity[i] * (1.0f + vcavcflfo_out));
 257:vasynth.cpp   **** 		}
 258:vasynth.cpp   **** 		else
 259:vasynth.cpp   **** 		{
 260:vasynth.cpp   **** 			// Disable velocity control of the VCA on osc2
 261:vasynth.cpp   **** 			osc2_[i].SetAmp(env_a_out * (1.0f + vcavcflfo_out));
 262:vasynth.cpp   **** 		}
 263:vasynth.cpp   **** 
 264:vasynth.cpp   **** 		// Set osc + osc2 frequencies with pitch bend, mod wheel, master tuning, and osc2 detune
 265:vasynth.cpp   **** 		tuning = bender_offset[i] * master_tune;
 266:vasynth.cpp   **** 		bender = bender_offset[i] * pitch_bend;
 267:vasynth.cpp   **** 		pitchmod = bender_offset[i] * lfo_out;
 268:vasynth.cpp   **** 		detune = bender_offset[i] * osc2_detune_;
 269:vasynth.cpp   **** 		osc_[i].SetFreq((note_freq_[i] + detune_ + bender + tuning + pitchmod));
 270:vasynth.cpp   **** 		osc2_[i].SetFreq((((note_freq_[i] * osc2_transpose_) + (bender * osc2_transpose_) + (tuning * osc
 271:vasynth.cpp   **** 
 272:vasynth.cpp   **** 		// Set the pw, process both oscillators, then mix them
 273:vasynth.cpp   **** 		osc_[i].SetPw(osc_pw_ + pwmlfo_out + pwm2lfo_out);
 274:vasynth.cpp   **** 		osc2_[i].SetPw(osc2_pw_ + pwmlfo_out + pwm2lfo_out);
 275:vasynth.cpp   **** 
 276:vasynth.cpp   **** 		osc_one = osc_[i].Process();
 277:vasynth.cpp   **** 		osc_two = osc2_[i].Process();
 278:vasynth.cpp   **** 
 279:vasynth.cpp   **** 		osc_out = (osc_one * (osc_mix_)) + ((osc_two * (1.0f - osc_mix_)));
 280:vasynth.cpp   **** 
 281:vasynth.cpp   **** 		// filter		
 282:vasynth.cpp   **** 		env_f_out = eg_f_[i].Process(note_on);
 283:vasynth.cpp   **** 
 284:vasynth.cpp   **** 		if(vel_select_ == 1 || vel_select_ == 3)
 285:vasynth.cpp   **** 		{
 286:vasynth.cpp   **** 			// Enable velocity control of the VCF summed with vcflfo and vcf_kbd_follow
 287:vasynth.cpp   **** 			flt[i].SetFreq(filter_cutoff_ * (env_f_out * velocity[i] * eg_f_amount_) * (1.0f + vcavcflfo_out
 2147              		.loc 1 287 4 view .LVU684
 2148              		.loc 1 287 47 is_stmt 0 view .LVU685
 2149 0064 99ED0F7A 		vldr.32	s14, [r9, #60]
 2150              		.loc 1 287 61 view .LVU686
 2151 0068 D4ED217A 		vldr.32	s15, [r4, #132]
 2152              		.loc 1 287 47 view .LVU687
 2153 006c 20EE070A 		vmul.f32	s0, s0, s14
 2154              	.LVL152:
 2155              		.loc 1 287 34 view .LVU688
 2156 0070 D4ED206A 		vldr.32	s13, [r4, #128]
ARM GAS  /var/folders/kw/h2sg8jtn02b91cpsjc1nlpg80000gn/T//cc850yBR.s 			page 57


 2157              		.loc 1 287 110 view .LVU689
 2158 0074 D4ED1D5A 		vldr.32	s11, [r4, #116]
 2159              		.loc 1 287 85 view .LVU690
 2160 0078 39EE0B7A 		vadd.f32	s14, s18, s22
 2161              		.loc 1 287 110 view .LVU691
 2162 007c 99ED076A 		vldr.32	s12, [r9, #28]
 2163              		.loc 1 287 61 view .LVU692
 2164 0080 60EE277A 		vmul.f32	s15, s0, s15
 2165              		.loc 1 287 110 view .LVU693
 2166 0084 A5EEC6BA 		vfms.f32	s22, s11, s12
 2167              		.loc 1 287 34 view .LVU694
 2168 0088 67EEA67A 		vmul.f32	s15, s15, s13
 2169              		.loc 1 287 77 view .LVU695
 2170 008c 67EE877A 		vmul.f32	s15, s15, s14
 2171              		.loc 1 287 18 view .LVU696
 2172 0090 67EE8B7A 		vmul.f32	s15, s15, s22
 2173              	.LVL153:
 2174              	.LBB523:
 2175              	.LBI523:
  39:../../DaisySP/DaisySP-LGPL/Source/Filters/moogladder.h ****     /** 
 2176              		.loc 3 39 17 is_stmt 1 view .LVU697
 2177              	.LBB524:
  39:../../DaisySP/DaisySP-LGPL/Source/Filters/moogladder.h ****     /** 
 2178              		.loc 3 39 39 view .LVU698
 2179              	.L61:
  39:../../DaisySP/DaisySP-LGPL/Source/Filters/moogladder.h ****     /** 
 2180              		.loc 3 39 39 is_stmt 0 view .LVU699
 2181              	.LBE524:
 2182              	.LBE523:
 288:vasynth.cpp   **** 		}
 289:vasynth.cpp   **** 		else
 290:vasynth.cpp   **** 		{
 291:vasynth.cpp   **** 			// Disable velocity control of the VCF summed with vcflfo and vcf_kbd_follow
 292:vasynth.cpp   **** 			flt[i].SetFreq(filter_cutoff_ * (env_f_out * eg_f_amount_) * (1.0f + vcavcflfo_out) * (1.0f - ((
 293:vasynth.cpp   **** 		}	
 294:vasynth.cpp   **** 		
 295:vasynth.cpp   **** 		filter_out += flt[i].Process(osc_out);
 2183              		.loc 1 295 31 discriminator 2 view .LVU700
 2184 0094 3046     		mov	r0, r6
 2185 0096 C6ED027A 		vstr.32	s15, [r6, #8]
 2186              		.loc 1 295 3 is_stmt 1 discriminator 2 view .LVU701
 2187              		.loc 1 295 31 is_stmt 0 discriminator 2 view .LVU702
 2188 009a B0EE480A 		vmov.f32	s0, s16
 218:vasynth.cpp   **** 	{
 2189              		.loc 1 218 24 discriminator 2 view .LVU703
 2190 009e 4436     		adds	r6, r6, #68
 2191              		.loc 1 295 31 discriminator 2 view .LVU704
 2192 00a0 FFF7FEFF 		bl	_ZN7daisysp10MoogLadder7ProcessEf
 2193              	.LVL154:
 218:vasynth.cpp   **** 	{
 2194              		.loc 1 218 24 discriminator 2 view .LVU705
 2195 00a4 019B     		ldr	r3, [sp, #4]
 2196              		.loc 1 295 14 discriminator 2 view .LVU706
 2197 00a6 78EE808A 		vadd.f32	s17, s17, s0
 2198              	.LVL155:
 218:vasynth.cpp   **** 	{
 2199              		.loc 1 218 2 is_stmt 1 discriminator 2 view .LVU707
ARM GAS  /var/folders/kw/h2sg8jtn02b91cpsjc1nlpg80000gn/T//cc850yBR.s 			page 58


 218:vasynth.cpp   **** 	{
 2200              		.loc 1 218 24 discriminator 2 view .LVU708
 2201 00aa 0AF12C0A 		add	r10, r10, #44
 2202 00ae BB42     		cmp	r3, r7
 2203 00b0 05F13005 		add	r5, r5, #48
 2204 00b4 00F02E81 		beq	.L68
 2205              	.LVL156:
 2206              	.L62:
 220:vasynth.cpp   **** 
 2207              		.loc 1 220 3 view .LVU709
 220:vasynth.cpp   **** 
 2208              		.loc 1 220 26 is_stmt 0 view .LVU710
 2209 00b8 17F8012B 		ldrb	r2, [r7], #1	@ zero_extendqisi2
 220:vasynth.cpp   **** 
 2210              		.loc 1 220 11 view .LVU711
 2211 00bc 002A     		cmp	r2, #0
 2212 00be 14BF     		ite	ne
 2213 00c0 4FF00108 		movne	r8, #1
 2214 00c4 4FF00008 		moveq	r8, #0
 2215              	.LVL157:
 223:vasynth.cpp   **** 		{
 2216              		.loc 1 223 3 is_stmt 1 view .LVU712
 2217 00c8 0DD0     		beq	.L55
 225:vasynth.cpp   **** 		}
 2218              		.loc 1 225 4 view .LVU713
 225:vasynth.cpp   **** 		}
 2219              		.loc 1 225 24 is_stmt 0 view .LVU714
 2220 00ca 07EE902A 		vmov	s15, r2	@ int
 225:vasynth.cpp   **** 		}
 2221              		.loc 1 225 45 view .LVU715
 2222 00ce 9FEDB06A 		vldr.32	s12, .L70+4
 225:vasynth.cpp   **** 		}
 2223              		.loc 1 225 21 view .LVU716
 2224 00d2 B7EE007A 		vmov.f32	s14, #1.0e+0
 225:vasynth.cpp   **** 		}
 2225              		.loc 1 225 24 view .LVU717
 2226 00d6 F8EE677A 		vcvt.f32.u32	s15, s15
 225:vasynth.cpp   **** 		}
 2227              		.loc 1 225 45 view .LVU718
 2228 00da C7EE866A 		vdiv.f32	s13, s15, s12
 225:vasynth.cpp   **** 		}
 2229              		.loc 1 225 21 view .LVU719
 2230 00de 77EE667A 		vsub.f32	s15, s14, s13
 225:vasynth.cpp   **** 		}
 2231              		.loc 1 225 14 view .LVU720
 2232 00e2 C9ED087A 		vstr.32	s15, [r9, #32]
 2233              	.L55:
 228:vasynth.cpp   **** 		{
 2234              		.loc 1 228 3 is_stmt 1 view .LVU721
 228:vasynth.cpp   **** 		{
 2235              		.loc 1 228 6 is_stmt 0 view .LVU722
 2236 00e6 D4ED1E7A 		vldr.32	s15, [r4, #120]
 228:vasynth.cpp   **** 		{
 2237              		.loc 1 228 3 view .LVU723
 2238 00ea F5EE407A 		vcmp.f32	s15, #0
 2239 00ee F1EE10FA 		vmrs	APSR_nzcv, FPSCR
 2240 00f2 40F0A180 		bne	.L56
ARM GAS  /var/folders/kw/h2sg8jtn02b91cpsjc1nlpg80000gn/T//cc850yBR.s 			page 59


 2241 00f6 A5F5C070 		sub	r0, r5, #384
 2242              	.L57:
 240:vasynth.cpp   **** 
 2243              		.loc 1 240 3 is_stmt 1 view .LVU724
 240:vasynth.cpp   **** 
 2244              		.loc 1 240 31 is_stmt 0 view .LVU725
 2245 00fa 4146     		mov	r1, r8
 2246              	.LBB525:
 2247              	.LBB526:
 2248              	.LBB527:
 2249              	.LBB528:
 2250              	.LBB529:
  55:../../DaisySP/Source/Utility/dsp.h **** #else
 2251              		.loc 5 55 5 view .LVU726
 2252 00fc B7EE00BA 		vmov.f32	s22, #1.0e+0
 2253              	.LBE529:
 2254              	.LBE528:
 2255              	.LBE527:
 2256              	.LBE526:
 2257              	.LBE525:
 240:vasynth.cpp   **** 
 2258              		.loc 1 240 31 view .LVU727
 2259 0100 FFF7FEFF 		bl	_ZN7daisysp4Adsr7ProcessEb
 2260              	.LVL158:
 242:vasynth.cpp   **** 		{
 2261              		.loc 1 242 3 is_stmt 1 view .LVU728
 2262 0104 94F88820 		ldrb	r2, [r4, #136]	@ zero_extendqisi2
 245:vasynth.cpp   **** 		}
 2263              		.loc 1 245 51 is_stmt 0 view .LVU729
 2264 0108 F7EE007A 		vmov.f32	s15, #1.0e+0
 266:vasynth.cpp   **** 		pitchmod = bender_offset[i] * lfo_out;
 2265              		.loc 1 266 10 view .LVU730
 2266 010c A14B     		ldr	r3, .L70+8
 242:vasynth.cpp   **** 		{
 2267              		.loc 1 242 3 view .LVU731
 2268 010e 012A     		cmp	r2, #1
 245:vasynth.cpp   **** 		}
 2269              		.loc 1 245 4 is_stmt 1 view .LVU732
 2270              	.LBB546:
 2271              	.LBB547:
  70:../../DaisySP/Source/Synthesis/oscillator.h ****     }
 2272              		.loc 4 70 34 is_stmt 0 view .LVU733
 2273 0110 5046     		mov	r0, r10
 2274              	.LBE547:
 2275              	.LBE546:
 245:vasynth.cpp   **** 		}
 2276              		.loc 1 245 29 view .LVU734
 2277 0112 88BF     		it	hi
 2278 0114 99ED107A 		vldrhi.32	s14, [r9, #64]
 250:vasynth.cpp   **** 		}
 2279              		.loc 1 250 37 view .LVU735
 2280 0118 79EE277A 		vadd.f32	s15, s18, s15
 245:vasynth.cpp   **** 		}
 2281              		.loc 1 245 29 view .LVU736
 2282 011c 88BF     		it	hi
 2283 011e 20EE070A 		vmulhi.f32	s0, s0, s14
 2284              	.LVL159:
ARM GAS  /var/folders/kw/h2sg8jtn02b91cpsjc1nlpg80000gn/T//cc850yBR.s 			page 60


 250:vasynth.cpp   **** 		}
 2285              		.loc 1 250 4 is_stmt 1 view .LVU737
 250:vasynth.cpp   **** 		}
 2286              		.loc 1 250 18 is_stmt 0 view .LVU738
 2287 0122 27EE800A 		vmul.f32	s0, s15, s0
 2288              	.LVL160:
 2289              	.LBB549:
 2290              	.LBI549:
  76:../../DaisySP/Source/Synthesis/oscillator.h ****     /** Sets the waveform to be synthesized by the Process() function.
 2291              		.loc 4 76 17 is_stmt 1 view .LVU739
 2292              	.LBB550:
  76:../../DaisySP/Source/Synthesis/oscillator.h ****     /** Sets the waveform to be synthesized by the Process() function.
 2293              		.loc 4 76 41 view .LVU740
  76:../../DaisySP/Source/Synthesis/oscillator.h ****     /** Sets the waveform to be synthesized by the Process() function.
 2294              		.loc 4 76 46 is_stmt 0 view .LVU741
 2295 0126 8AED010A 		vstr.32	s0, [r10, #4]
 2296              	.LVL161:
  76:../../DaisySP/Source/Synthesis/oscillator.h ****     /** Sets the waveform to be synthesized by the Process() function.
 2297              		.loc 4 76 46 view .LVU742
 2298              	.LBE550:
 2299              	.LBE549:
 253:vasynth.cpp   **** 		{
 2300              		.loc 1 253 3 is_stmt 1 view .LVU743
 261:vasynth.cpp   **** 		}
 2301              		.loc 1 261 4 view .LVU744
 2302              	.LBB551:
 2303              	.LBI551:
  76:../../DaisySP/Source/Synthesis/oscillator.h ****     /** Sets the waveform to be synthesized by the Process() function.
 2304              		.loc 4 76 17 view .LVU745
 2305              	.LBB552:
  76:../../DaisySP/Source/Synthesis/oscillator.h ****     /** Sets the waveform to be synthesized by the Process() function.
 2306              		.loc 4 76 41 view .LVU746
  76:../../DaisySP/Source/Synthesis/oscillator.h ****     /** Sets the waveform to be synthesized by the Process() function.
 2307              		.loc 4 76 41 is_stmt 0 view .LVU747
 2308              	.LBE552:
 2309              	.LBE551:
 265:vasynth.cpp   **** 		bender = bender_offset[i] * pitch_bend;
 2310              		.loc 1 265 3 is_stmt 1 view .LVU748
 2311              	.LBB554:
 2312              	.LBB553:
  76:../../DaisySP/Source/Synthesis/oscillator.h ****     /** Sets the waveform to be synthesized by the Process() function.
 2313              		.loc 4 76 46 is_stmt 0 view .LVU749
 2314 012a 8AED590A 		vstr.32	s0, [r10, #356]
 2315              	.LBE553:
 2316              	.LBE554:
 265:vasynth.cpp   **** 		bender = bender_offset[i] * pitch_bend;
 2317              		.loc 1 265 27 view .LVU750
 2318 012e D9ED187A 		vldr.32	s15, [r9, #96]
 266:vasynth.cpp   **** 		pitchmod = bender_offset[i] * lfo_out;
 2319              		.loc 1 266 10 view .LVU751
 2320 0132 93ED008A 		vldr.32	s16, [r3]
 269:vasynth.cpp   **** 		osc2_[i].SetFreq((((note_freq_[i] * osc2_transpose_) + (bender * osc2_transpose_) + (tuning * osc
 2321              		.loc 1 269 34 view .LVU752
 2322 0136 99ED000A 		vldr.32	s0, [r9]
 267:vasynth.cpp   **** 		detune = bender_offset[i] * osc2_detune_;
 2323              		.loc 1 267 12 view .LVU753
 2324 013a 67EEAACA 		vmul.f32	s25, s15, s21
ARM GAS  /var/folders/kw/h2sg8jtn02b91cpsjc1nlpg80000gn/T//cc850yBR.s 			page 61


 269:vasynth.cpp   **** 		osc2_[i].SetFreq((((note_freq_[i] * osc2_transpose_) + (bender * osc2_transpose_) + (tuning * osc
 2325              		.loc 1 269 34 view .LVU754
 2326 013e 94ED037A 		vldr.32	s14, [r4, #12]
 266:vasynth.cpp   **** 		pitchmod = bender_offset[i] * lfo_out;
 2327              		.loc 1 266 10 view .LVU755
 2328 0142 27EE888A 		vmul.f32	s16, s15, s16
 265:vasynth.cpp   **** 		bender = bender_offset[i] * pitch_bend;
 2329              		.loc 1 265 10 view .LVU756
 2330 0146 9BED00CA 		vldr.32	s24, [fp]
 269:vasynth.cpp   **** 		osc2_[i].SetFreq((((note_freq_[i] * osc2_transpose_) + (bender * osc2_transpose_) + (tuning * osc
 2331              		.loc 1 269 34 view .LVU757
 2332 014a 30EE070A 		vadd.f32	s0, s0, s14
 268:vasynth.cpp   **** 		osc_[i].SetFreq((note_freq_[i] + detune_ + bender + tuning + pitchmod));
 2333              		.loc 1 268 10 view .LVU758
 2334 014e D4ED06BA 		vldr.32	s23, [r4, #24]
 265:vasynth.cpp   **** 		bender = bender_offset[i] * pitch_bend;
 2335              		.loc 1 265 10 view .LVU759
 2336 0152 27EE8CCA 		vmul.f32	s24, s15, s24
 2337              	.LVL162:
 266:vasynth.cpp   **** 		pitchmod = bender_offset[i] * lfo_out;
 2338              		.loc 1 266 3 is_stmt 1 view .LVU760
 267:vasynth.cpp   **** 		detune = bender_offset[i] * osc2_detune_;
 2339              		.loc 1 267 3 view .LVU761
 268:vasynth.cpp   **** 		osc_[i].SetFreq((note_freq_[i] + detune_ + bender + tuning + pitchmod));
 2340              		.loc 1 268 3 view .LVU762
 268:vasynth.cpp   **** 		osc_[i].SetFreq((note_freq_[i] + detune_ + bender + tuning + pitchmod));
 2341              		.loc 1 268 10 is_stmt 0 view .LVU763
 2342 0156 67EEABBA 		vmul.f32	s23, s15, s23
 2343              	.LVL163:
 269:vasynth.cpp   **** 		osc2_[i].SetFreq((((note_freq_[i] * osc2_transpose_) + (bender * osc2_transpose_) + (tuning * osc
 2344              		.loc 1 269 3 is_stmt 1 view .LVU764
 269:vasynth.cpp   **** 		osc2_[i].SetFreq((((note_freq_[i] * osc2_transpose_) + (bender * osc2_transpose_) + (tuning * osc
 2345              		.loc 1 269 44 is_stmt 0 view .LVU765
 2346 015a 30EE080A 		vadd.f32	s0, s0, s16
 269:vasynth.cpp   **** 		osc2_[i].SetFreq((((note_freq_[i] * osc2_transpose_) + (bender * osc2_transpose_) + (tuning * osc
 2347              		.loc 1 269 53 view .LVU766
 2348 015e 30EE0C0A 		vadd.f32	s0, s0, s24
 269:vasynth.cpp   **** 		osc2_[i].SetFreq((((note_freq_[i] * osc2_transpose_) + (bender * osc2_transpose_) + (tuning * osc
 2349              		.loc 1 269 18 view .LVU767
 2350 0162 30EE2C0A 		vadd.f32	s0, s0, s25
 2351              	.LVL164:
 2352              	.LBB555:
 2353              	.LBI546:
  67:../../DaisySP/Source/Synthesis/oscillator.h ****     {
 2354              		.loc 4 67 17 is_stmt 1 view .LVU768
 2355              	.LBB548:
  69:../../DaisySP/Source/Synthesis/oscillator.h ****         phase_inc_ = CalcPhaseInc(f);
 2356              		.loc 4 69 9 view .LVU769
  69:../../DaisySP/Source/Synthesis/oscillator.h ****         phase_inc_ = CalcPhaseInc(f);
 2357              		.loc 4 69 20 is_stmt 0 view .LVU770
 2358 0166 8AED020A 		vstr.32	s0, [r10, #8]
  70:../../DaisySP/Source/Synthesis/oscillator.h ****     }
 2359              		.loc 4 70 9 is_stmt 1 view .LVU771
  70:../../DaisySP/Source/Synthesis/oscillator.h ****     }
 2360              		.loc 4 70 34 is_stmt 0 view .LVU772
 2361 016a FFF7FEFF 		bl	_ZN7daisysp10Oscillator12CalcPhaseIncEf
 2362              	.LVL165:
ARM GAS  /var/folders/kw/h2sg8jtn02b91cpsjc1nlpg80000gn/T//cc850yBR.s 			page 62


  70:../../DaisySP/Source/Synthesis/oscillator.h ****     }
 2363              		.loc 4 70 20 view .LVU773
 2364 016e 8AED070A 		vstr.32	s0, [r10, #28]
 2365              	.LVL166:
  70:../../DaisySP/Source/Synthesis/oscillator.h ****     }
 2366              		.loc 4 70 20 view .LVU774
 2367              	.LBE548:
 2368              	.LBE555:
 270:vasynth.cpp   **** 
 2369              		.loc 1 270 3 is_stmt 1 view .LVU775
 270:vasynth.cpp   **** 
 2370              		.loc 1 270 39 is_stmt 0 view .LVU776
 2371 0172 D4ED077A 		vldr.32	s15, [r4, #28]
 2372 0176 0AF5B072 		add	r2, r10, #352
 270:vasynth.cpp   **** 
 2373              		.loc 1 270 56 view .LVU777
 2374 017a B9EC017A 		vldmia.32	r9!, {s14}
 270:vasynth.cpp   **** 
 2375              		.loc 1 270 66 view .LVU778
 2376 017e 27EE880A 		vmul.f32	s0, s15, s16
 2377              	.LBB556:
 2378              	.LBB557:
  70:../../DaisySP/Source/Synthesis/oscillator.h ****     }
 2379              		.loc 4 70 34 view .LVU779
 2380 0182 1046     		mov	r0, r2
 2381 0184 0092     		str	r2, [sp]
 2382              	.LBE557:
 2383              	.LBE556:
 270:vasynth.cpp   **** 
 2384              		.loc 1 270 56 view .LVU780
 2385 0186 A7EE270A 		vfma.f32	s0, s14, s15
 270:vasynth.cpp   **** 
 2386              		.loc 1 270 85 view .LVU781
 2387 018a A7EE8C0A 		vfma.f32	s0, s15, s24
 270:vasynth.cpp   **** 
 2388              		.loc 1 270 115 view .LVU782
 2389 018e A7EEAC0A 		vfma.f32	s0, s15, s25
 270:vasynth.cpp   **** 
 2390              		.loc 1 270 19 view .LVU783
 2391 0192 A7EEAB0A 		vfma.f32	s0, s15, s23
 2392              	.LVL167:
 2393              	.LBB559:
 2394              	.LBI556:
  67:../../DaisySP/Source/Synthesis/oscillator.h ****     {
 2395              		.loc 4 67 17 is_stmt 1 view .LVU784
 2396              	.LBB558:
  69:../../DaisySP/Source/Synthesis/oscillator.h ****         phase_inc_ = CalcPhaseInc(f);
 2397              		.loc 4 69 9 view .LVU785
  69:../../DaisySP/Source/Synthesis/oscillator.h ****         phase_inc_ = CalcPhaseInc(f);
 2398              		.loc 4 69 20 is_stmt 0 view .LVU786
 2399 0196 8AED5A0A 		vstr.32	s0, [r10, #360]
  70:../../DaisySP/Source/Synthesis/oscillator.h ****     }
 2400              		.loc 4 70 9 is_stmt 1 view .LVU787
  70:../../DaisySP/Source/Synthesis/oscillator.h ****     }
 2401              		.loc 4 70 34 is_stmt 0 view .LVU788
 2402 019a FFF7FEFF 		bl	_ZN7daisysp10Oscillator12CalcPhaseIncEf
 2403              	.LVL168:
ARM GAS  /var/folders/kw/h2sg8jtn02b91cpsjc1nlpg80000gn/T//cc850yBR.s 			page 63


  70:../../DaisySP/Source/Synthesis/oscillator.h ****     }
 2404              		.loc 4 70 20 view .LVU789
 2405 019e 8AED5F0A 		vstr.32	s0, [r10, #380]
  70:../../DaisySP/Source/Synthesis/oscillator.h ****     }
 2406              		.loc 4 70 20 view .LVU790
 2407              	.LBE558:
 2408              	.LBE559:
 273:vasynth.cpp   **** 		osc2_[i].SetPw(osc2_pw_ + pwmlfo_out + pwm2lfo_out);
 2409              		.loc 1 273 3 is_stmt 1 view .LVU791
 2410              	.LVL169:
 2411              	.LBB560:
 2412              	.LBI525:
 2413              		.loc 4 85 17 view .LVU792
 2414              	.LBB542:
 2415              		.loc 4 85 41 view .LVU793
 2416              	.LBB538:
 2417              	.LBI527:
  64:../../DaisySP/Source/Utility/dsp.h **** {
 2418              		.loc 5 64 14 view .LVU794
 2419              	.LBE538:
 2420              	.LBE542:
 2421              	.LBE560:
 2422              	.LBE522:
 2423              		.loc 5 66 5 view .LVU795
 2424              	.LBB581:
 2425              	.LBB561:
 2426              	.LBB543:
 2427              	.LBB539:
 2428              	.LBB531:
 2429              	.LBI531:
  40:../../DaisySP/Source/Utility/dsp.h **** {
 2430              		.loc 5 40 14 view .LVU796
 2431              	.LBB532:
  42:../../DaisySP/Source/Utility/dsp.h **** #ifdef __arm__
 2432              		.loc 5 42 5 view .LVU797
  44:../../DaisySP/Source/Utility/dsp.h **** #else
 2433              		.loc 5 44 5 view .LVU798
 2434              	.LBE532:
 2435              	.LBE531:
 2436              	.LBE539:
 2437              	.LBE543:
 2438              	.LBE561:
 273:vasynth.cpp   **** 		osc2_[i].SetPw(osc2_pw_ + pwmlfo_out + pwm2lfo_out);
 2439              		.loc 1 273 25 is_stmt 0 view .LVU799
 2440 01a2 D4ED046A 		vldr.32	s13, [r4, #16]
 276:vasynth.cpp   **** 		osc_two = osc2_[i].Process();
 2441              		.loc 1 276 28 view .LVU800
 2442 01a6 5046     		mov	r0, r10
 2443              	.LBB562:
 2444              	.LBB544:
 2445              	.LBB540:
 2446              	.LBB535:
 2447              	.LBB533:
  44:../../DaisySP/Source/Utility/dsp.h **** #else
 2448              		.loc 5 44 5 view .LVU801
 2449 01a8 DFED787A 		vldr.32	s15, .L70
 2450              	.LBE533:
ARM GAS  /var/folders/kw/h2sg8jtn02b91cpsjc1nlpg80000gn/T//cc850yBR.s 			page 64


 2451              	.LBE535:
 2452              	.LBE540:
 2453              	.LBE544:
 2454              	.LBE562:
 273:vasynth.cpp   **** 		osc2_[i].SetPw(osc2_pw_ + pwmlfo_out + pwm2lfo_out);
 2455              		.loc 1 273 25 view .LVU802
 2456 01ac 7AEE266A 		vadd.f32	s13, s20, s13
 273:vasynth.cpp   **** 		osc2_[i].SetPw(osc2_pw_ + pwmlfo_out + pwm2lfo_out);
 2457              		.loc 1 273 16 view .LVU803
 2458 01b0 76EEA96A 		vadd.f32	s13, s13, s19
 2459              	.LVL170:
 2460              	.LBB563:
 2461              	.LBB545:
 2462              	.LBB541:
 2463              	.LBB536:
 2464              	.LBB534:
  44:../../DaisySP/Source/Utility/dsp.h **** #else
 2465              		.loc 5 44 5 view .LVU804
 2466              		.syntax unified
 2467              	@ 44 "../../DaisySP/Source/Utility/dsp.h" 1
 2468 01b4 C6FEA76A 		vmaxnm.f32 s13, s13, s15
 2469              	@ 0 "" 2
 2470              	.LVL171:
  48:../../DaisySP/Source/Utility/dsp.h **** }
 2471              		.loc 5 48 5 is_stmt 1 view .LVU805
  48:../../DaisySP/Source/Utility/dsp.h **** }
 2472              		.loc 5 48 5 is_stmt 0 view .LVU806
 2473              		.thumb
 2474              		.syntax unified
 2475              	.LBE534:
 2476              	.LBE536:
 2477              	.LBB537:
 2478              	.LBI528:
  51:../../DaisySP/Source/Utility/dsp.h **** {
 2479              		.loc 5 51 14 is_stmt 1 view .LVU807
 2480              	.LBB530:
  53:../../DaisySP/Source/Utility/dsp.h **** #ifdef __arm__
 2481              		.loc 5 53 5 view .LVU808
  55:../../DaisySP/Source/Utility/dsp.h **** #else
 2482              		.loc 5 55 5 view .LVU809
 2483              		.syntax unified
 2484              	@ 55 "../../DaisySP/Source/Utility/dsp.h" 1
 2485 01b8 C6FECB6A 		vminnm.f32 s13, s13, s22
 2486              	@ 0 "" 2
 2487              	.LVL172:
  59:../../DaisySP/Source/Utility/dsp.h **** }
 2488              		.loc 5 59 5 view .LVU810
  59:../../DaisySP/Source/Utility/dsp.h **** }
 2489              		.loc 5 59 5 is_stmt 0 view .LVU811
 2490              		.thumb
 2491              		.syntax unified
 2492              	.LBE530:
 2493              	.LBE537:
 2494              	.LBE541:
 2495              		.loc 4 85 45 view .LVU812
 2496 01bc CAED036A 		vstr.32	s13, [r10, #12]
 2497              	.LVL173:
ARM GAS  /var/folders/kw/h2sg8jtn02b91cpsjc1nlpg80000gn/T//cc850yBR.s 			page 65


 2498              		.loc 4 85 45 view .LVU813
 2499              	.LBE545:
 2500              	.LBE563:
 274:vasynth.cpp   **** 
 2501              		.loc 1 274 3 is_stmt 1 view .LVU814
 2502              	.LBB564:
 2503              	.LBI564:
 2504              		.loc 4 85 17 view .LVU815
 2505              	.LBB565:
 2506              		.loc 4 85 41 view .LVU816
 2507              	.LBB566:
 2508              	.LBI566:
  64:../../DaisySP/Source/Utility/dsp.h **** {
 2509              		.loc 5 64 14 view .LVU817
 2510              	.LBE566:
 2511              	.LBE565:
 2512              	.LBE564:
 2513              	.LBE581:
 2514              		.loc 5 66 5 view .LVU818
 2515              	.LBB582:
 2516              	.LBB577:
 2517              	.LBB575:
 2518              	.LBB573:
 2519              	.LBB567:
 2520              	.LBI567:
  40:../../DaisySP/Source/Utility/dsp.h **** {
 2521              		.loc 5 40 14 view .LVU819
 2522              	.LBB568:
  42:../../DaisySP/Source/Utility/dsp.h **** #ifdef __arm__
 2523              		.loc 5 42 5 view .LVU820
  44:../../DaisySP/Source/Utility/dsp.h **** #else
 2524              		.loc 5 44 5 view .LVU821
 2525              	.LBE568:
 2526              	.LBE567:
 2527              	.LBE573:
 2528              	.LBE575:
 2529              	.LBE577:
 274:vasynth.cpp   **** 
 2530              		.loc 1 274 27 is_stmt 0 view .LVU822
 2531 01c0 94ED087A 		vldr.32	s14, [r4, #32]
 2532 01c4 3AEE077A 		vadd.f32	s14, s20, s14
 274:vasynth.cpp   **** 
 2533              		.loc 1 274 17 view .LVU823
 2534 01c8 37EE297A 		vadd.f32	s14, s14, s19
 2535              	.LVL174:
 2536              	.LBB578:
 2537              	.LBB576:
 2538              	.LBB574:
 2539              	.LBB570:
 2540              	.LBB569:
  44:../../DaisySP/Source/Utility/dsp.h **** #else
 2541              		.loc 5 44 5 view .LVU824
 2542              		.syntax unified
 2543              	@ 44 "../../DaisySP/Source/Utility/dsp.h" 1
 2544 01cc 87FE277A 		vmaxnm.f32 s14, s14, s15
 2545              	@ 0 "" 2
 2546              	.LVL175:
ARM GAS  /var/folders/kw/h2sg8jtn02b91cpsjc1nlpg80000gn/T//cc850yBR.s 			page 66


  48:../../DaisySP/Source/Utility/dsp.h **** }
 2547              		.loc 5 48 5 is_stmt 1 view .LVU825
  48:../../DaisySP/Source/Utility/dsp.h **** }
 2548              		.loc 5 48 5 is_stmt 0 view .LVU826
 2549              		.thumb
 2550              		.syntax unified
 2551              	.LBE569:
 2552              	.LBE570:
 2553              	.LBB571:
 2554              	.LBI571:
  51:../../DaisySP/Source/Utility/dsp.h **** {
 2555              		.loc 5 51 14 is_stmt 1 view .LVU827
 2556              	.LBB572:
  53:../../DaisySP/Source/Utility/dsp.h **** #ifdef __arm__
 2557              		.loc 5 53 5 view .LVU828
  55:../../DaisySP/Source/Utility/dsp.h **** #else
 2558              		.loc 5 55 5 view .LVU829
 2559              		.syntax unified
 2560              	@ 55 "../../DaisySP/Source/Utility/dsp.h" 1
 2561 01d0 87FE4B7A 		vminnm.f32 s14, s14, s22
 2562              	@ 0 "" 2
 2563              	.LVL176:
  59:../../DaisySP/Source/Utility/dsp.h **** }
 2564              		.loc 5 59 5 view .LVU830
  59:../../DaisySP/Source/Utility/dsp.h **** }
 2565              		.loc 5 59 5 is_stmt 0 view .LVU831
 2566              		.thumb
 2567              		.syntax unified
 2568              	.LBE572:
 2569              	.LBE571:
 2570              	.LBE574:
 2571              		.loc 4 85 45 view .LVU832
 2572 01d4 8AED5B7A 		vstr.32	s14, [r10, #364]
 2573              	.LVL177:
 2574              		.loc 4 85 45 view .LVU833
 2575              	.LBE576:
 2576              	.LBE578:
 276:vasynth.cpp   **** 		osc_two = osc2_[i].Process();
 2577              		.loc 1 276 3 is_stmt 1 view .LVU834
 276:vasynth.cpp   **** 		osc_two = osc2_[i].Process();
 2578              		.loc 1 276 28 is_stmt 0 view .LVU835
 2579 01d8 FFF7FEFF 		bl	_ZN7daisysp10Oscillator7ProcessEv
 2580              	.LVL178:
 277:vasynth.cpp   **** 
 2581              		.loc 1 277 29 view .LVU836
 2582 01dc 009A     		ldr	r2, [sp]
 276:vasynth.cpp   **** 		osc_two = osc2_[i].Process();
 2583              		.loc 1 276 28 view .LVU837
 2584 01de F0EE40BA 		vmov.f32	s23, s0
 2585              	.LVL179:
 277:vasynth.cpp   **** 
 2586              		.loc 1 277 3 is_stmt 1 view .LVU838
 277:vasynth.cpp   **** 
 2587              		.loc 1 277 29 is_stmt 0 view .LVU839
 2588 01e2 1046     		mov	r0, r2
 2589 01e4 FFF7FEFF 		bl	_ZN7daisysp10Oscillator7ProcessEv
 2590              	.LVL180:
ARM GAS  /var/folders/kw/h2sg8jtn02b91cpsjc1nlpg80000gn/T//cc850yBR.s 			page 67


 279:vasynth.cpp   **** 
 2591              		.loc 1 279 3 is_stmt 1 view .LVU840
 279:vasynth.cpp   **** 
 2592              		.loc 1 279 25 is_stmt 0 view .LVU841
 2593 01e8 94ED027A 		vldr.32	s14, [r4, #8]
 282:vasynth.cpp   **** 
 2594              		.loc 1 282 31 view .LVU842
 2595 01ec 4146     		mov	r1, r8
 2596 01ee 2846     		mov	r0, r5
 279:vasynth.cpp   **** 
 2597              		.loc 1 279 56 view .LVU843
 2598 01f0 7BEE477A 		vsub.f32	s15, s22, s14
 279:vasynth.cpp   **** 
 2599              		.loc 1 279 48 view .LVU844
 2600 01f4 27EE808A 		vmul.f32	s16, s15, s0
 2601              	.LVL181:
 279:vasynth.cpp   **** 
 2602              		.loc 1 279 11 view .LVU845
 2603 01f8 A7EE2B8A 		vfma.f32	s16, s14, s23
 2604              	.LVL182:
 282:vasynth.cpp   **** 
 2605              		.loc 1 282 3 is_stmt 1 view .LVU846
 282:vasynth.cpp   **** 
 2606              		.loc 1 282 31 is_stmt 0 view .LVU847
 2607 01fc FFF7FEFF 		bl	_ZN7daisysp4Adsr7ProcessEb
 2608              	.LVL183:
 284:vasynth.cpp   **** 		{
 2609              		.loc 1 284 3 is_stmt 1 view .LVU848
 284:vasynth.cpp   **** 		{
 2610              		.loc 1 284 23 is_stmt 0 view .LVU849
 2611 0200 94F88820 		ldrb	r2, [r4, #136]	@ zero_extendqisi2
 284:vasynth.cpp   **** 		{
 2612              		.loc 1 284 3 view .LVU850
 2613 0204 02F0FD02 		and	r2, r2, #253
 2614 0208 012A     		cmp	r2, #1
 2615 020a 3FF42BAF 		beq	.L69
 292:vasynth.cpp   **** 		}	
 2616              		.loc 1 292 4 is_stmt 1 view .LVU851
 292:vasynth.cpp   **** 		}	
 2617              		.loc 1 292 47 is_stmt 0 view .LVU852
 2618 020e 94ED217A 		vldr.32	s14, [r4, #132]
 292:vasynth.cpp   **** 		}	
 2619              		.loc 1 292 34 view .LVU853
 2620 0212 D4ED207A 		vldr.32	s15, [r4, #128]
 292:vasynth.cpp   **** 		}	
 2621              		.loc 1 292 47 view .LVU854
 2622 0216 20EE070A 		vmul.f32	s0, s0, s14
 2623              	.LVL184:
 292:vasynth.cpp   **** 		}	
 2624              		.loc 1 292 96 view .LVU855
 2625 021a 94ED1D6A 		vldr.32	s12, [r4, #116]
 2626 021e D9ED076A 		vldr.32	s13, [r9, #28]
 292:vasynth.cpp   **** 		}	
 2627              		.loc 1 292 71 view .LVU856
 2628 0222 39EE0B7A 		vadd.f32	s14, s18, s22
 292:vasynth.cpp   **** 		}	
 2629              		.loc 1 292 34 view .LVU857
ARM GAS  /var/folders/kw/h2sg8jtn02b91cpsjc1nlpg80000gn/T//cc850yBR.s 			page 68


 2630 0226 60EE277A 		vmul.f32	s15, s0, s15
 292:vasynth.cpp   **** 		}	
 2631              		.loc 1 292 96 view .LVU858
 2632 022a A6EE66BA 		vfms.f32	s22, s12, s13
 292:vasynth.cpp   **** 		}	
 2633              		.loc 1 292 63 view .LVU859
 2634 022e 67EE877A 		vmul.f32	s15, s15, s14
 292:vasynth.cpp   **** 		}	
 2635              		.loc 1 292 18 view .LVU860
 2636 0232 67EE8B7A 		vmul.f32	s15, s15, s22
 2637              	.LVL185:
 2638              	.LBB579:
 2639              	.LBI579:
  39:../../DaisySP/DaisySP-LGPL/Source/Filters/moogladder.h ****     /** 
 2640              		.loc 3 39 17 is_stmt 1 view .LVU861
 2641              	.LBB580:
  39:../../DaisySP/DaisySP-LGPL/Source/Filters/moogladder.h ****     /** 
 2642              		.loc 3 39 39 view .LVU862
  39:../../DaisySP/DaisySP-LGPL/Source/Filters/moogladder.h ****     /** 
 2643              		.loc 3 39 53 is_stmt 0 view .LVU863
 2644 0236 2DE7     		b	.L61
 2645              	.LVL186:
 2646              	.L56:
  39:../../DaisySP/DaisySP-LGPL/Source/Filters/moogladder.h ****     /** 
 2647              		.loc 3 39 53 view .LVU864
 2648              	.LBE580:
 2649              	.LBE579:
 231:vasynth.cpp   **** 			eg_f_[i].SetTime(ADSR_SEG_DECAY, eg_f_decay_ * (1.0f - ((env_kbd_follow_ * (1.0f - follow[i]))))
 2650              		.loc 1 231 4 is_stmt 1 view .LVU865
 231:vasynth.cpp   **** 			eg_f_[i].SetTime(ADSR_SEG_DECAY, eg_f_decay_ * (1.0f - ((env_kbd_follow_ * (1.0f - follow[i]))))
 2651              		.loc 1 231 87 is_stmt 0 view .LVU866
 2652 0238 B7EE008A 		vmov.f32	s16, #1.0e+0
 2653 023c 99ED087A 		vldr.32	s14, [r9, #32]
 231:vasynth.cpp   **** 			eg_f_[i].SetTime(ADSR_SEG_DECAY, eg_f_decay_ * (1.0f - ((env_kbd_follow_ * (1.0f - follow[i]))))
 2654              		.loc 1 231 20 view .LVU867
 2655 0240 D4ED0D6A 		vldr.32	s13, [r4, #52]
 2656 0244 0121     		movs	r1, #1
 2657 0246 2846     		mov	r0, r5
 231:vasynth.cpp   **** 			eg_f_[i].SetTime(ADSR_SEG_DECAY, eg_f_decay_ * (1.0f - ((env_kbd_follow_ * (1.0f - follow[i]))))
 2658              		.loc 1 231 87 view .LVU868
 2659 0248 38EE477A 		vsub.f32	s14, s16, s14
 231:vasynth.cpp   **** 			eg_f_[i].SetTime(ADSR_SEG_DECAY, eg_f_decay_ * (1.0f - ((env_kbd_follow_ * (1.0f - follow[i]))))
 2660              		.loc 1 231 59 view .LVU869
 2661 024c B0EE480A 		vmov.f32	s0, s16
 2662 0250 A7EEC70A 		vfms.f32	s0, s15, s14
 231:vasynth.cpp   **** 			eg_f_[i].SetTime(ADSR_SEG_DECAY, eg_f_decay_ * (1.0f - ((env_kbd_follow_ * (1.0f - follow[i]))))
 2663              		.loc 1 231 20 view .LVU870
 2664 0254 20EE260A 		vmul.f32	s0, s0, s13
 2665 0258 FFF7FEFF 		bl	_ZN7daisysp4Adsr7SetTimeEif
 2666              	.LVL187:
 232:vasynth.cpp   **** 			eg_f_[i].SetTime(ADSR_SEG_RELEASE, eg_f_release_ * (1.0f - ((env_kbd_follow_ * (1.0f - follow[i]
 2667              		.loc 1 232 4 is_stmt 1 view .LVU871
 232:vasynth.cpp   **** 			eg_f_[i].SetTime(ADSR_SEG_RELEASE, eg_f_release_ * (1.0f - ((env_kbd_follow_ * (1.0f - follow[i]
 2668              		.loc 1 232 85 is_stmt 0 view .LVU872
 2669 025c D9ED087A 		vldr.32	s15, [r9, #32]
 232:vasynth.cpp   **** 			eg_f_[i].SetTime(ADSR_SEG_RELEASE, eg_f_release_ * (1.0f - ((env_kbd_follow_ * (1.0f - follow[i]
 2670              		.loc 1 232 57 view .LVU873
ARM GAS  /var/folders/kw/h2sg8jtn02b91cpsjc1nlpg80000gn/T//cc850yBR.s 			page 69


 2671 0260 B0EE480A 		vmov.f32	s0, s16
 2672 0264 D4ED1E6A 		vldr.32	s13, [r4, #120]
 232:vasynth.cpp   **** 			eg_f_[i].SetTime(ADSR_SEG_RELEASE, eg_f_release_ * (1.0f - ((env_kbd_follow_ * (1.0f - follow[i]
 2673              		.loc 1 232 85 view .LVU874
 2674 0268 78EE677A 		vsub.f32	s15, s16, s15
 232:vasynth.cpp   **** 			eg_f_[i].SetTime(ADSR_SEG_RELEASE, eg_f_release_ * (1.0f - ((env_kbd_follow_ * (1.0f - follow[i]
 2675              		.loc 1 232 20 view .LVU875
 2676 026c 94ED0E7A 		vldr.32	s14, [r4, #56]
 2677 0270 0221     		movs	r1, #2
 2678 0272 2846     		mov	r0, r5
 232:vasynth.cpp   **** 			eg_f_[i].SetTime(ADSR_SEG_RELEASE, eg_f_release_ * (1.0f - ((env_kbd_follow_ * (1.0f - follow[i]
 2679              		.loc 1 232 57 view .LVU876
 2680 0274 A6EEE70A 		vfms.f32	s0, s13, s15
 232:vasynth.cpp   **** 			eg_f_[i].SetTime(ADSR_SEG_RELEASE, eg_f_release_ * (1.0f - ((env_kbd_follow_ * (1.0f - follow[i]
 2681              		.loc 1 232 20 view .LVU877
 2682 0278 20EE070A 		vmul.f32	s0, s0, s14
 2683 027c FFF7FEFF 		bl	_ZN7daisysp4Adsr7SetTimeEif
 2684              	.LVL188:
 233:vasynth.cpp   **** 			eg_a_[i].SetTime(ADSR_SEG_ATTACK, eg_a_attack_ * (1.0f - ((env_kbd_follow_ * (1.0f - follow[i]))
 2685              		.loc 1 233 4 is_stmt 1 view .LVU878
 233:vasynth.cpp   **** 			eg_a_[i].SetTime(ADSR_SEG_ATTACK, eg_a_attack_ * (1.0f - ((env_kbd_follow_ * (1.0f - follow[i]))
 2686              		.loc 1 233 89 is_stmt 0 view .LVU879
 2687 0280 D9ED087A 		vldr.32	s15, [r9, #32]
 233:vasynth.cpp   **** 			eg_a_[i].SetTime(ADSR_SEG_ATTACK, eg_a_attack_ * (1.0f - ((env_kbd_follow_ * (1.0f - follow[i]))
 2688              		.loc 1 233 61 view .LVU880
 2689 0284 B0EE480A 		vmov.f32	s0, s16
 2690 0288 D4ED1E6A 		vldr.32	s13, [r4, #120]
 233:vasynth.cpp   **** 			eg_a_[i].SetTime(ADSR_SEG_ATTACK, eg_a_attack_ * (1.0f - ((env_kbd_follow_ * (1.0f - follow[i]))
 2691              		.loc 1 233 89 view .LVU881
 2692 028c 78EE677A 		vsub.f32	s15, s16, s15
 233:vasynth.cpp   **** 			eg_a_[i].SetTime(ADSR_SEG_ATTACK, eg_a_attack_ * (1.0f - ((env_kbd_follow_ * (1.0f - follow[i]))
 2693              		.loc 1 233 20 view .LVU882
 2694 0290 94ED107A 		vldr.32	s14, [r4, #64]
 2695 0294 0421     		movs	r1, #4
 2696 0296 2846     		mov	r0, r5
 233:vasynth.cpp   **** 			eg_a_[i].SetTime(ADSR_SEG_ATTACK, eg_a_attack_ * (1.0f - ((env_kbd_follow_ * (1.0f - follow[i]))
 2697              		.loc 1 233 61 view .LVU883
 2698 0298 A6EEE70A 		vfms.f32	s0, s13, s15
 233:vasynth.cpp   **** 			eg_a_[i].SetTime(ADSR_SEG_ATTACK, eg_a_attack_ * (1.0f - ((env_kbd_follow_ * (1.0f - follow[i]))
 2699              		.loc 1 233 20 view .LVU884
 2700 029c 20EE070A 		vmul.f32	s0, s0, s14
 2701 02a0 FFF7FEFF 		bl	_ZN7daisysp4Adsr7SetTimeEif
 2702              	.LVL189:
 234:vasynth.cpp   **** 			eg_a_[i].SetTime(ADSR_SEG_DECAY, eg_a_decay_ * (1.0f - ((env_kbd_follow_ * (1.0f - follow[i]))))
 2703              		.loc 1 234 4 is_stmt 1 view .LVU885
 234:vasynth.cpp   **** 			eg_a_[i].SetTime(ADSR_SEG_DECAY, eg_a_decay_ * (1.0f - ((env_kbd_follow_ * (1.0f - follow[i]))))
 2704              		.loc 1 234 87 is_stmt 0 view .LVU886
 2705 02a4 D9ED087A 		vldr.32	s15, [r9, #32]
 234:vasynth.cpp   **** 			eg_a_[i].SetTime(ADSR_SEG_DECAY, eg_a_decay_ * (1.0f - ((env_kbd_follow_ * (1.0f - follow[i]))))
 2706              		.loc 1 234 59 view .LVU887
 2707 02a8 B0EE480A 		vmov.f32	s0, s16
 2708 02ac D4ED1E6A 		vldr.32	s13, [r4, #120]
 234:vasynth.cpp   **** 			eg_a_[i].SetTime(ADSR_SEG_DECAY, eg_a_decay_ * (1.0f - ((env_kbd_follow_ * (1.0f - follow[i]))))
 2709              		.loc 1 234 87 view .LVU888
 2710 02b0 78EE677A 		vsub.f32	s15, s16, s15
 234:vasynth.cpp   **** 			eg_a_[i].SetTime(ADSR_SEG_DECAY, eg_a_decay_ * (1.0f - ((env_kbd_follow_ * (1.0f - follow[i]))))
 2711              		.loc 1 234 20 view .LVU889
ARM GAS  /var/folders/kw/h2sg8jtn02b91cpsjc1nlpg80000gn/T//cc850yBR.s 			page 70


 2712 02b4 94ED097A 		vldr.32	s14, [r4, #36]
 2713 02b8 A5F5C070 		sub	r0, r5, #384
 2714 02bc 0121     		movs	r1, #1
 234:vasynth.cpp   **** 			eg_a_[i].SetTime(ADSR_SEG_DECAY, eg_a_decay_ * (1.0f - ((env_kbd_follow_ * (1.0f - follow[i]))))
 2715              		.loc 1 234 59 view .LVU890
 2716 02be A6EEE70A 		vfms.f32	s0, s13, s15
 234:vasynth.cpp   **** 			eg_a_[i].SetTime(ADSR_SEG_DECAY, eg_a_decay_ * (1.0f - ((env_kbd_follow_ * (1.0f - follow[i]))))
 2717              		.loc 1 234 20 view .LVU891
 2718 02c2 0090     		str	r0, [sp]
 2719 02c4 20EE070A 		vmul.f32	s0, s0, s14
 2720 02c8 FFF7FEFF 		bl	_ZN7daisysp4Adsr7SetTimeEif
 2721              	.LVL190:
 235:vasynth.cpp   **** 			eg_a_[i].SetTime(ADSR_SEG_RELEASE, eg_a_release_ * (1.0f - ((env_kbd_follow_ * (1.0f - follow[i]
 2722              		.loc 1 235 4 is_stmt 1 view .LVU892
 235:vasynth.cpp   **** 			eg_a_[i].SetTime(ADSR_SEG_RELEASE, eg_a_release_ * (1.0f - ((env_kbd_follow_ * (1.0f - follow[i]
 2723              		.loc 1 235 85 is_stmt 0 view .LVU893
 2724 02cc D9ED087A 		vldr.32	s15, [r9, #32]
 235:vasynth.cpp   **** 			eg_a_[i].SetTime(ADSR_SEG_RELEASE, eg_a_release_ * (1.0f - ((env_kbd_follow_ * (1.0f - follow[i]
 2725              		.loc 1 235 57 view .LVU894
 2726 02d0 B0EE480A 		vmov.f32	s0, s16
 2727 02d4 D4ED1E6A 		vldr.32	s13, [r4, #120]
 235:vasynth.cpp   **** 			eg_a_[i].SetTime(ADSR_SEG_RELEASE, eg_a_release_ * (1.0f - ((env_kbd_follow_ * (1.0f - follow[i]
 2728              		.loc 1 235 85 view .LVU895
 2729 02d8 78EE677A 		vsub.f32	s15, s16, s15
 235:vasynth.cpp   **** 			eg_a_[i].SetTime(ADSR_SEG_RELEASE, eg_a_release_ * (1.0f - ((env_kbd_follow_ * (1.0f - follow[i]
 2730              		.loc 1 235 20 view .LVU896
 2731 02dc 94ED0A7A 		vldr.32	s14, [r4, #40]
 2732 02e0 0221     		movs	r1, #2
 2733 02e2 0098     		ldr	r0, [sp]
 235:vasynth.cpp   **** 			eg_a_[i].SetTime(ADSR_SEG_RELEASE, eg_a_release_ * (1.0f - ((env_kbd_follow_ * (1.0f - follow[i]
 2734              		.loc 1 235 57 view .LVU897
 2735 02e4 A6EEE70A 		vfms.f32	s0, s13, s15
 235:vasynth.cpp   **** 			eg_a_[i].SetTime(ADSR_SEG_RELEASE, eg_a_release_ * (1.0f - ((env_kbd_follow_ * (1.0f - follow[i]
 2736              		.loc 1 235 20 view .LVU898
 2737 02e8 20EE070A 		vmul.f32	s0, s0, s14
 2738 02ec FFF7FEFF 		bl	_ZN7daisysp4Adsr7SetTimeEif
 2739              	.LVL191:
 236:vasynth.cpp   **** 		}
 2740              		.loc 1 236 4 is_stmt 1 view .LVU899
 236:vasynth.cpp   **** 		}
 2741              		.loc 1 236 89 is_stmt 0 view .LVU900
 2742 02f0 D9ED087A 		vldr.32	s15, [r9, #32]
 236:vasynth.cpp   **** 		}
 2743              		.loc 1 236 61 view .LVU901
 2744 02f4 94ED1E7A 		vldr.32	s14, [r4, #120]
 236:vasynth.cpp   **** 		}
 2745              		.loc 1 236 20 view .LVU902
 2746 02f8 0421     		movs	r1, #4
 236:vasynth.cpp   **** 		}
 2747              		.loc 1 236 89 view .LVU903
 2748 02fa 78EE677A 		vsub.f32	s15, s16, s15
 236:vasynth.cpp   **** 		}
 2749              		.loc 1 236 20 view .LVU904
 2750 02fe 94ED0C0A 		vldr.32	s0, [r4, #48]
 2751 0302 0098     		ldr	r0, [sp]
 236:vasynth.cpp   **** 		}
 2752              		.loc 1 236 61 view .LVU905
ARM GAS  /var/folders/kw/h2sg8jtn02b91cpsjc1nlpg80000gn/T//cc850yBR.s 			page 71


 2753 0304 A7EE678A 		vfms.f32	s16, s14, s15
 236:vasynth.cpp   **** 		}
 2754              		.loc 1 236 20 view .LVU906
 2755 0308 28EE000A 		vmul.f32	s0, s16, s0
 2756 030c FFF7FEFF 		bl	_ZN7daisysp4Adsr7SetTimeEif
 2757              	.LVL192:
 2758 0310 0098     		ldr	r0, [sp]
 2759 0312 F2E6     		b	.L57
 2760              	.LVL193:
 2761              	.L68:
 236:vasynth.cpp   **** 		}
 2762              		.loc 1 236 20 view .LVU907
 2763              	.LBE582:
 296:vasynth.cpp   **** 	}
 297:vasynth.cpp   **** 
 298:vasynth.cpp   **** 	filter_out /= VOICES_MAX;
 2764              		.loc 1 298 2 is_stmt 1 view .LVU908
 2765              	.LBB583:
 2766              	.LBB584:
 2767              		.file 6 "../../DaisySP/Source/Utility/delayline.h"
   1:../../DaisySP/Source/Utility/delayline.h **** /*
   2:../../DaisySP/Source/Utility/delayline.h **** Copyright (c) 2020 Electrosmith, Corp
   3:../../DaisySP/Source/Utility/delayline.h **** 
   4:../../DaisySP/Source/Utility/delayline.h **** Use of this source code is governed by an MIT-style
   5:../../DaisySP/Source/Utility/delayline.h **** license that can be found in the LICENSE file or at
   6:../../DaisySP/Source/Utility/delayline.h **** https://opensource.org/licenses/MIT.
   7:../../DaisySP/Source/Utility/delayline.h **** */
   8:../../DaisySP/Source/Utility/delayline.h **** 
   9:../../DaisySP/Source/Utility/delayline.h **** #pragma once
  10:../../DaisySP/Source/Utility/delayline.h **** #ifndef DSY_DELAY_H
  11:../../DaisySP/Source/Utility/delayline.h **** #define DSY_DELAY_H
  12:../../DaisySP/Source/Utility/delayline.h **** #include <stdlib.h>
  13:../../DaisySP/Source/Utility/delayline.h **** #include <stdint.h>
  14:../../DaisySP/Source/Utility/delayline.h **** namespace daisysp
  15:../../DaisySP/Source/Utility/delayline.h **** {
  16:../../DaisySP/Source/Utility/delayline.h **** /** Simple Delay line.
  17:../../DaisySP/Source/Utility/delayline.h **** November 2019
  18:../../DaisySP/Source/Utility/delayline.h **** 
  19:../../DaisySP/Source/Utility/delayline.h **** Converted to Template December 2019
  20:../../DaisySP/Source/Utility/delayline.h **** 
  21:../../DaisySP/Source/Utility/delayline.h **** declaration example: (1 second of floats)
  22:../../DaisySP/Source/Utility/delayline.h **** 
  23:../../DaisySP/Source/Utility/delayline.h **** DelayLine<float, SAMPLE_RATE> del;
  24:../../DaisySP/Source/Utility/delayline.h **** 
  25:../../DaisySP/Source/Utility/delayline.h **** By: shensley
  26:../../DaisySP/Source/Utility/delayline.h **** */
  27:../../DaisySP/Source/Utility/delayline.h **** template <typename T, size_t max_size>
  28:../../DaisySP/Source/Utility/delayline.h **** class DelayLine
  29:../../DaisySP/Source/Utility/delayline.h **** {
  30:../../DaisySP/Source/Utility/delayline.h ****   public:
  31:../../DaisySP/Source/Utility/delayline.h ****     DelayLine() {}
  32:../../DaisySP/Source/Utility/delayline.h ****     ~DelayLine() {}
  33:../../DaisySP/Source/Utility/delayline.h ****     /** initializes the delay line by clearing the values within, and setting delay to 1 sample.
  34:../../DaisySP/Source/Utility/delayline.h ****     */
  35:../../DaisySP/Source/Utility/delayline.h ****     void Init() { Reset(); }
  36:../../DaisySP/Source/Utility/delayline.h ****     /** clears buffer, sets write ptr to 0, and delay to 1 sample.
  37:../../DaisySP/Source/Utility/delayline.h ****     */
ARM GAS  /var/folders/kw/h2sg8jtn02b91cpsjc1nlpg80000gn/T//cc850yBR.s 			page 72


  38:../../DaisySP/Source/Utility/delayline.h ****     void Reset()
  39:../../DaisySP/Source/Utility/delayline.h ****     {
  40:../../DaisySP/Source/Utility/delayline.h ****         for(size_t i = 0; i < max_size; i++)
  41:../../DaisySP/Source/Utility/delayline.h ****         {
  42:../../DaisySP/Source/Utility/delayline.h ****             line_[i] = T(0);
  43:../../DaisySP/Source/Utility/delayline.h ****         }
  44:../../DaisySP/Source/Utility/delayline.h ****         write_ptr_ = 0;
  45:../../DaisySP/Source/Utility/delayline.h ****         delay_     = 1;
  46:../../DaisySP/Source/Utility/delayline.h ****     }
  47:../../DaisySP/Source/Utility/delayline.h **** 
  48:../../DaisySP/Source/Utility/delayline.h ****     /** sets the delay time in samples
  49:../../DaisySP/Source/Utility/delayline.h ****         If a float is passed in, a fractional component will be calculated for interpolating the de
  50:../../DaisySP/Source/Utility/delayline.h ****     */
  51:../../DaisySP/Source/Utility/delayline.h ****     inline void SetDelay(size_t delay)
  52:../../DaisySP/Source/Utility/delayline.h ****     {
  53:../../DaisySP/Source/Utility/delayline.h ****         frac_  = 0.0f;
  54:../../DaisySP/Source/Utility/delayline.h ****         delay_ = delay < max_size ? delay : max_size - 1;
  55:../../DaisySP/Source/Utility/delayline.h ****     }
  56:../../DaisySP/Source/Utility/delayline.h **** 
  57:../../DaisySP/Source/Utility/delayline.h ****     /** sets the delay time in samples
  58:../../DaisySP/Source/Utility/delayline.h ****         If a float is passed in, a fractional component will be calculated for interpolating the de
  59:../../DaisySP/Source/Utility/delayline.h ****     */
  60:../../DaisySP/Source/Utility/delayline.h ****     inline void SetDelay(float delay)
  61:../../DaisySP/Source/Utility/delayline.h ****     {
  62:../../DaisySP/Source/Utility/delayline.h ****         int32_t int_delay = static_cast<int32_t>(delay);
  63:../../DaisySP/Source/Utility/delayline.h ****         frac_             = delay - static_cast<float>(int_delay);
  64:../../DaisySP/Source/Utility/delayline.h ****         delay_ = static_cast<size_t>(int_delay) < max_size ? int_delay
  65:../../DaisySP/Source/Utility/delayline.h ****                                                            : max_size - 1;
  66:../../DaisySP/Source/Utility/delayline.h ****     }
  67:../../DaisySP/Source/Utility/delayline.h **** 
  68:../../DaisySP/Source/Utility/delayline.h ****     /** writes the sample of type T to the delay line, and advances the write ptr
  69:../../DaisySP/Source/Utility/delayline.h ****     */
  70:../../DaisySP/Source/Utility/delayline.h ****     inline void Write(const T sample)
  71:../../DaisySP/Source/Utility/delayline.h ****     {
  72:../../DaisySP/Source/Utility/delayline.h ****         line_[write_ptr_] = sample;
  73:../../DaisySP/Source/Utility/delayline.h ****         write_ptr_        = (write_ptr_ - 1 + max_size) % max_size;
  74:../../DaisySP/Source/Utility/delayline.h ****     }
  75:../../DaisySP/Source/Utility/delayline.h **** 
  76:../../DaisySP/Source/Utility/delayline.h ****     /** returns the next sample of type T in the delay line, interpolated if necessary.
  77:../../DaisySP/Source/Utility/delayline.h ****     */
  78:../../DaisySP/Source/Utility/delayline.h ****     inline const T Read() const
  79:../../DaisySP/Source/Utility/delayline.h ****     {
  80:../../DaisySP/Source/Utility/delayline.h ****         T a = line_[(write_ptr_ + delay_) % max_size];
 2768              		.loc 6 80 22 is_stmt 0 view .LVU909
 2769 0314 204B     		ldr	r3, .L70+12
 2770              		.loc 6 80 43 view .LVU910
 2771 0316 4BF68036 		movw	r6, #48000
 2772 031a 2049     		ldr	r1, .L70+16
 2773              	.LBE584:
 2774              	.LBE583:
 2775              	.LBB593:
 2776              	.LBB594:
  73:../../DaisySP/Source/Utility/delayline.h ****     }
 2777              		.loc 6 73 45 view .LVU911
 2778 031c 4BF67F30 		movw	r0, #47999
 2779              	.LBE594:
 2780              	.LBE593:
ARM GAS  /var/folders/kw/h2sg8jtn02b91cpsjc1nlpg80000gn/T//cc850yBR.s 			page 73


 2781              		.loc 1 298 13 view .LVU912
 2782 0320 F4EE007A 		vmov.f32	s15, #1.25e-1
 2783              	.LBB600:
 2784              	.LBB585:
  81:../../DaisySP/Source/Utility/delayline.h ****         T b = line_[(write_ptr_ + delay_ + 1) % max_size];
  82:../../DaisySP/Source/Utility/delayline.h ****         return a + (b - a) * frac_;
 2785              		.loc 6 82 30 view .LVU913
 2786 0324 D3ED006A 		vldr.32	s13, [r3]
  80:../../DaisySP/Source/Utility/delayline.h ****         T b = line_[(write_ptr_ + delay_ + 1) % max_size];
 2787              		.loc 6 80 33 view .LVU914
 2788 0328 D3E90142 		ldrd	r4, r2, [r3, #4]
 2789              	.LVL194:
  80:../../DaisySP/Source/Utility/delayline.h ****         T b = line_[(write_ptr_ + delay_ + 1) % max_size];
 2790              		.loc 6 80 33 view .LVU915
 2791              	.LBE585:
 2792              	.LBE600:
 2793              		.loc 1 298 13 view .LVU916
 2794 032c 68EEA78A 		vmul.f32	s17, s17, s15
 2795              	.LVL195:
 299:vasynth.cpp   **** 
 300:vasynth.cpp   **** 	voice_out = filter_out;
 2796              		.loc 1 300 2 is_stmt 1 view .LVU917
 301:vasynth.cpp   **** 
 302:vasynth.cpp   **** 	// delay
 303:vasynth.cpp   **** 	delay_out = delay_.Read();
 2797              		.loc 1 303 2 view .LVU918
 2798              	.LBB601:
 2799              	.LBI583:
  78:../../DaisySP/Source/Utility/delayline.h ****     {
 2800              		.loc 6 78 20 view .LVU919
 2801              	.LBB586:
  80:../../DaisySP/Source/Utility/delayline.h ****         T b = line_[(write_ptr_ + delay_ + 1) % max_size];
 2802              		.loc 6 80 33 is_stmt 0 view .LVU920
 2803 0330 2244     		add	r2, r2, r4
 2804              	.LBE586:
 2805              	.LBE601:
 2806              	.LBB602:
 2807              	.LBB595:
  73:../../DaisySP/Source/Utility/delayline.h ****     }
 2808              		.loc 6 73 45 view .LVU921
 2809 0332 2044     		add	r0, r0, r4
  72:../../DaisySP/Source/Utility/delayline.h ****         write_ptr_        = (write_ptr_ - 1 + max_size) % max_size;
 2810              		.loc 6 72 27 view .LVU922
 2811 0334 03EB8404 		add	r4, r3, r4, lsl #2
 2812              	.LBE595:
 2813              	.LBE602:
 2814              	.LBB603:
 2815              	.LBB587:
  80:../../DaisySP/Source/Utility/delayline.h ****         T b = line_[(write_ptr_ + delay_ + 1) % max_size];
 2816              		.loc 6 80 43 view .LVU923
 2817 0338 A1FB02C7 		umull	ip, r7, r1, r2
  81:../../DaisySP/Source/Utility/delayline.h ****         return a + (b - a) * frac_;
 2818              		.loc 6 81 42 view .LVU924
 2819 033c 551C     		adds	r5, r2, #1
  80:../../DaisySP/Source/Utility/delayline.h ****         T b = line_[(write_ptr_ + delay_ + 1) % max_size];
 2820              		.loc 6 80 43 view .LVU925
 2821 033e BF0A     		lsrs	r7, r7, #10
ARM GAS  /var/folders/kw/h2sg8jtn02b91cpsjc1nlpg80000gn/T//cc850yBR.s 			page 74


 2822 0340 06FB1722 		mls	r2, r6, r7, r2
  80:../../DaisySP/Source/Utility/delayline.h ****         T b = line_[(write_ptr_ + delay_ + 1) % max_size];
 2823              		.loc 6 80 11 view .LVU926
 2824 0344 03EB8202 		add	r2, r3, r2, lsl #2
 2825 0348 D2ED037A 		vldr.32	s15, [r2, #12]
 2826              	.LVL196:
  81:../../DaisySP/Source/Utility/delayline.h ****         return a + (b - a) * frac_;
 2827              		.loc 6 81 47 view .LVU927
 2828 034c A1FB0572 		umull	r7, r2, r1, r5
 2829              	.LBE587:
 2830              	.LBE603:
 2831              	.LBB604:
 2832              	.LBB596:
  73:../../DaisySP/Source/Utility/delayline.h ****     }
 2833              		.loc 6 73 57 view .LVU928
 2834 0350 A1FB0071 		umull	r7, r1, r1, r0
 2835              	.LBE596:
 2836              	.LBE604:
 2837              	.LBB605:
 2838              	.LBB588:
  81:../../DaisySP/Source/Utility/delayline.h ****         return a + (b - a) * frac_;
 2839              		.loc 6 81 47 view .LVU929
 2840 0354 920A     		lsrs	r2, r2, #10
 2841              	.LBE588:
 2842              	.LBE605:
 2843              	.LBB606:
 2844              	.LBB597:
  73:../../DaisySP/Source/Utility/delayline.h ****     }
 2845              		.loc 6 73 57 view .LVU930
 2846 0356 890A     		lsrs	r1, r1, #10
 2847              	.LBE597:
 2848              	.LBE606:
 2849              	.LBB607:
 2850              	.LBB589:
  81:../../DaisySP/Source/Utility/delayline.h ****         return a + (b - a) * frac_;
 2851              		.loc 6 81 47 view .LVU931
 2852 0358 06FB1255 		mls	r5, r6, r2, r5
 2853              	.LVL197:
  81:../../DaisySP/Source/Utility/delayline.h ****         return a + (b - a) * frac_;
 2854              		.loc 6 81 47 view .LVU932
 2855              	.LBE589:
 2856              	.LBE607:
 2857              	.LBB608:
 2858              	.LBB598:
  73:../../DaisySP/Source/Utility/delayline.h ****     }
 2859              		.loc 6 73 57 view .LVU933
 2860 035c 06FB1101 		mls	r1, r6, r1, r0
  73:../../DaisySP/Source/Utility/delayline.h ****     }
 2861              		.loc 6 73 27 view .LVU934
 2862 0360 5960     		str	r1, [r3, #4]
 2863              	.LVL198:
  73:../../DaisySP/Source/Utility/delayline.h ****     }
 2864              		.loc 6 73 27 view .LVU935
 2865              	.LBE598:
 2866              	.LBE608:
 2867              	.LBB609:
 2868              	.LBB590:
ARM GAS  /var/folders/kw/h2sg8jtn02b91cpsjc1nlpg80000gn/T//cc850yBR.s 			page 75


  81:../../DaisySP/Source/Utility/delayline.h ****         return a + (b - a) * frac_;
 2869              		.loc 6 81 11 view .LVU936
 2870 0362 03EB8503 		add	r3, r3, r5, lsl #2
 2871              		.loc 6 82 23 view .LVU937
 2872 0366 93ED037A 		vldr.32	s14, [r3, #12]
 2873              	.LBE590:
 2874              	.LBE609:
 304:vasynth.cpp   **** 	delay_.Write(voice_out);
 305:vasynth.cpp   **** 	
 306:vasynth.cpp   **** 	// out
 307:vasynth.cpp   **** 	*out_l = voice_out;
 2875              		.loc 1 307 9 view .LVU938
 2876 036a 029B     		ldr	r3, [sp, #8]
 2877              	.LBB610:
 2878              	.LBB591:
 2879              		.loc 6 82 23 view .LVU939
 2880 036c 37EE677A 		vsub.f32	s14, s14, s15
 2881              	.LBE591:
 2882              	.LBE610:
 2883              	.LBB611:
 2884              	.LBB599:
  72:../../DaisySP/Source/Utility/delayline.h ****         write_ptr_        = (write_ptr_ - 1 + max_size) % max_size;
 2885              		.loc 6 72 27 view .LVU940
 2886 0370 C4ED038A 		vstr.32	s17, [r4, #12]
  72:../../DaisySP/Source/Utility/delayline.h ****         write_ptr_        = (write_ptr_ - 1 + max_size) % max_size;
 2887              		.loc 6 72 27 view .LVU941
 2888              	.LBE599:
 2889              	.LBE611:
 2890              		.loc 1 307 9 view .LVU942
 2891 0374 C3ED008A 		vstr.32	s17, [r3]
 308:vasynth.cpp   **** 	*out_r = delay_out;
 2892              		.loc 1 308 9 view .LVU943
 2893 0378 039B     		ldr	r3, [sp, #12]
 2894              	.LBB612:
 2895              	.LBB592:
 2896              		.loc 6 82 30 view .LVU944
 2897 037a E7EE267A 		vfma.f32	s15, s14, s13
 2898              	.LVL199:
 2899              		.loc 6 82 30 view .LVU945
 2900              	.LBE592:
 2901              	.LBE612:
 304:vasynth.cpp   **** 	delay_.Write(voice_out);
 2902              		.loc 1 304 2 is_stmt 1 view .LVU946
 2903              	.LBB613:
 2904              	.LBI593:
  70:../../DaisySP/Source/Utility/delayline.h ****     {
 2905              		.loc 6 70 17 view .LVU947
  70:../../DaisySP/Source/Utility/delayline.h ****     {
 2906              		.loc 6 70 17 is_stmt 0 view .LVU948
 2907              	.LBE613:
 307:vasynth.cpp   **** 	*out_r = delay_out;
 2908              		.loc 1 307 2 is_stmt 1 view .LVU949
 2909              		.loc 1 308 2 view .LVU950
 2910              		.loc 1 308 9 is_stmt 0 view .LVU951
 2911 037e C3ED007A 		vstr.32	s15, [r3]
 309:vasynth.cpp   **** }
 2912              		.loc 1 309 1 view .LVU952
ARM GAS  /var/folders/kw/h2sg8jtn02b91cpsjc1nlpg80000gn/T//cc850yBR.s 			page 76


 2913 0382 05B0     		add	sp, sp, #20
 2914              		.cfi_def_cfa_offset 76
 2915              		@ sp needed
 2916 0384 BDEC0A8B 		vldm	sp!, {d8-d12}
 2917              		.cfi_restore 88
 2918              		.cfi_restore 89
 2919              		.cfi_restore 86
 2920              		.cfi_restore 87
 2921              		.cfi_restore 84
 2922              		.cfi_restore 85
 2923              		.cfi_restore 82
 2924              		.cfi_restore 83
 2925              		.cfi_restore 80
 2926              		.cfi_restore 81
 2927              		.cfi_def_cfa_offset 36
 2928              	.LVL200:
 2929              		.loc 1 309 1 view .LVU953
 2930 0388 BDE8F08F 		pop	{r4, r5, r6, r7, r8, r9, r10, fp, pc}
 2931              	.LVL201:
 2932              	.L71:
 2933              		.loc 1 309 1 view .LVU954
 2934              		.align	2
 2935              	.L70:
 2936 038c 00000000 		.word	0
 2937 0390 0000A842 		.word	1118306304
 2938 0394 00000000 		.word	pitch_bend
 2939 0398 00000000 		.word	delay_
 2940 039c F1197605 		.word	91625969
 2941 03a0 00000000 		.word	master_tune
 2942              		.cfi_endproc
 2943              	.LFE4862:
 2945              		.section	.text._ZN7VASynth6NoteOnEhh,"ax",%progbits
 2946              		.align	1
 2947              		.p2align 2,,3
 2948              		.global	_ZN7VASynth6NoteOnEhh
 2949              		.syntax unified
 2950              		.thumb
 2951              		.thumb_func
 2953              	_ZN7VASynth6NoteOnEhh:
 2954              	.LVL202:
 2955              	.LFB4863:
 310:vasynth.cpp   **** 
 311:vasynth.cpp   **** void VASynth::NoteOn(uint8_t midi_note, uint8_t midi_velocity)
 312:vasynth.cpp   **** {	
 2956              		.loc 1 312 1 is_stmt 1 view -0
 2957              		.cfi_startproc
 2958              		@ args = 0, pretend = 0, frame = 8
 2959              		@ frame_needed = 0, uses_anonymous_args = 0
 313:vasynth.cpp   **** 	for (uint8_t i = 0; i < VOICES_MAX; i++)
 2960              		.loc 1 313 2 view .LVU956
 2961              	.LBB619:
 2962              		.loc 1 313 24 view .LVU957
 2963              	.LBE619:
 312:vasynth.cpp   **** 	for (uint8_t i = 0; i < VOICES_MAX; i++)
 2964              		.loc 1 312 1 is_stmt 0 view .LVU958
 2965 0000 70B5     		push	{r4, r5, r6, lr}
 2966              		.cfi_def_cfa_offset 16
ARM GAS  /var/folders/kw/h2sg8jtn02b91cpsjc1nlpg80000gn/T//cc850yBR.s 			page 77


 2967              		.cfi_offset 4, -16
 2968              		.cfi_offset 5, -12
 2969              		.cfi_offset 6, -8
 2970              		.cfi_offset 14, -4
 2971 0002 4FF0080C 		mov	ip, #8
 2972 0006 0446     		mov	r4, r0
 2973 0008 2DED048B 		vpush.64	{d8, d9}
 2974              		.cfi_def_cfa_offset 32
 2975              		.cfi_offset 80, -32
 2976              		.cfi_offset 81, -28
 2977              		.cfi_offset 82, -24
 2978              		.cfi_offset 83, -20
 2979 000c 82B0     		sub	sp, sp, #8
 2980              		.cfi_def_cfa_offset 40
 2981 000e 90F88A30 		ldrb	r3, [r0, #138]	@ zero_extendqisi2
 312:vasynth.cpp   **** 	for (uint8_t i = 0; i < VOICES_MAX; i++)
 2982              		.loc 1 312 1 view .LVU959
 2983 0012 0192     		str	r2, [sp, #4]
 2984              	.LVL203:
 2985              	.L75:
 2986              	.LBB636:
 314:vasynth.cpp   **** 	{
 315:vasynth.cpp   **** 		osc_next_ = (osc_next_ + 1) % VOICES_MAX;
 2987              		.loc 1 315 3 is_stmt 1 view .LVU960
 313:vasynth.cpp   **** 	{
 2988              		.loc 1 313 2 view .LVU961
 313:vasynth.cpp   **** 	{
 2989              		.loc 1 313 24 view .LVU962
 2990              		.loc 1 315 26 is_stmt 0 view .LVU963
 2991 0014 0133     		adds	r3, r3, #1
 313:vasynth.cpp   **** 	{
 2992              		.loc 1 313 24 view .LVU964
 2993 0016 0CF1FF32 		add	r2, ip, #-1
 2994              		.loc 1 315 31 view .LVU965
 2995 001a 03F00705 		and	r5, r3, #7
 316:vasynth.cpp   **** 
 317:vasynth.cpp   **** 		if(note_midi_[osc_next_] == 0)
 2996              		.loc 1 317 26 view .LVU966
 2997 001e 6019     		adds	r0, r4, r5
 315:vasynth.cpp   **** 
 2998              		.loc 1 315 13 view .LVU967
 2999 0020 2B46     		mov	r3, r5
 3000              		.loc 1 317 3 is_stmt 1 view .LVU968
 3001 0022 90F88B60 		ldrb	r6, [r0, #139]	@ zero_extendqisi2
 3002 0026 46B1     		cbz	r6, .L78
 313:vasynth.cpp   **** 	{
 3003              		.loc 1 313 24 is_stmt 0 discriminator 2 view .LVU969
 3004 0028 12F0FF0C 		ands	ip, r2, #255
 3005              	.LVL204:
 313:vasynth.cpp   **** 	{
 3006              		.loc 1 313 24 discriminator 2 view .LVU970
 3007 002c F2D1     		bne	.L75
 3008 002e 84F88A50 		strb	r5, [r4, #138]
 3009              	.LBE636:
 318:vasynth.cpp   **** 		{
 319:vasynth.cpp   **** 			note_midi_[osc_next_] = midi_note;
 320:vasynth.cpp   **** 			note_freq_[osc_next_] = mtof(note_midi_[osc_next_]);
ARM GAS  /var/folders/kw/h2sg8jtn02b91cpsjc1nlpg80000gn/T//cc850yBR.s 			page 78


 321:vasynth.cpp   **** 			bender_offset[osc_next_] = ((note_freq_[osc_next_]) - (mtof(note_midi_[osc_next_] + 1)));
 322:vasynth.cpp   **** 			velocity[osc_next_] = ((float)midi_velocity / MIDI_VELOCITY_MAX);
 323:vasynth.cpp   **** 			break;
 324:vasynth.cpp   **** 		}
 325:vasynth.cpp   **** 	}
 326:vasynth.cpp   **** }	
 3010              		.loc 1 326 1 view .LVU971
 3011 0032 02B0     		add	sp, sp, #8
 3012              		.cfi_remember_state
 3013              		.cfi_def_cfa_offset 32
 3014              		@ sp needed
 3015 0034 BDEC048B 		vldm	sp!, {d8-d9}
 3016              		.cfi_restore 82
 3017              		.cfi_restore 83
 3018              		.cfi_restore 80
 3019              		.cfi_restore 81
 3020              		.cfi_def_cfa_offset 16
 3021 0038 70BD     		pop	{r4, r5, r6, pc}
 3022              	.LVL205:
 3023              	.L78:
 3024              		.cfi_restore_state
 3025              	.LBB637:
 320:vasynth.cpp   **** 			bender_offset[osc_next_] = ((note_freq_[osc_next_]) - (mtof(note_midi_[osc_next_] + 1)));
 3026              		.loc 1 320 32 view .LVU972
 3027 003a 07EE901A 		vmov	s15, r1	@ int
 3028              	.LBB620:
 3029              	.LBB621:
  67:../../DaisySP/Source/Utility/dsp.h **** }
  68:../../DaisySP/Source/Utility/dsp.h **** 
  69:../../DaisySP/Source/Utility/dsp.h **** /** From Musicdsp.org "Fast power and root estimates for 32bit floats)
  70:../../DaisySP/Source/Utility/dsp.h **** Original code by Stefan Stenzel
  71:../../DaisySP/Source/Utility/dsp.h **** These are approximations
  72:../../DaisySP/Source/Utility/dsp.h **** */
  73:../../DaisySP/Source/Utility/dsp.h **** inline float fastpower(float f, int n)
  74:../../DaisySP/Source/Utility/dsp.h **** {
  75:../../DaisySP/Source/Utility/dsp.h ****     long *lp, l;
  76:../../DaisySP/Source/Utility/dsp.h ****     lp = (long *)(&f);
  77:../../DaisySP/Source/Utility/dsp.h ****     l  = *lp;
  78:../../DaisySP/Source/Utility/dsp.h ****     l -= 0x3F800000;
  79:../../DaisySP/Source/Utility/dsp.h ****     l <<= (n - 1);
  80:../../DaisySP/Source/Utility/dsp.h ****     l += 0x3F800000;
  81:../../DaisySP/Source/Utility/dsp.h ****     *lp = l;
  82:../../DaisySP/Source/Utility/dsp.h ****     return f;
  83:../../DaisySP/Source/Utility/dsp.h **** }
  84:../../DaisySP/Source/Utility/dsp.h **** 
  85:../../DaisySP/Source/Utility/dsp.h **** inline float fastroot(float f, int n)
  86:../../DaisySP/Source/Utility/dsp.h **** {
  87:../../DaisySP/Source/Utility/dsp.h ****     long *lp, l;
  88:../../DaisySP/Source/Utility/dsp.h ****     lp = (long *)(&f);
  89:../../DaisySP/Source/Utility/dsp.h ****     l  = *lp;
  90:../../DaisySP/Source/Utility/dsp.h ****     l -= 0x3F800000;
  91:../../DaisySP/Source/Utility/dsp.h ****     l >>= (n - 1);
  92:../../DaisySP/Source/Utility/dsp.h ****     l += 0x3F800000;
  93:../../DaisySP/Source/Utility/dsp.h ****     *lp = l;
  94:../../DaisySP/Source/Utility/dsp.h ****     return f;
  95:../../DaisySP/Source/Utility/dsp.h **** }
  96:../../DaisySP/Source/Utility/dsp.h **** 
ARM GAS  /var/folders/kw/h2sg8jtn02b91cpsjc1nlpg80000gn/T//cc850yBR.s 			page 79


  97:../../DaisySP/Source/Utility/dsp.h **** /** Significantly more efficient than fmodf(x, 1.0f) for calculating
  98:../../DaisySP/Source/Utility/dsp.h ****  *  the decimal part of a floating point value.
  99:../../DaisySP/Source/Utility/dsp.h ****  */
 100:../../DaisySP/Source/Utility/dsp.h **** inline float fastmod1f(float x)
 101:../../DaisySP/Source/Utility/dsp.h **** {
 102:../../DaisySP/Source/Utility/dsp.h ****     return x - static_cast<int>(x);
 103:../../DaisySP/Source/Utility/dsp.h **** }
 104:../../DaisySP/Source/Utility/dsp.h **** 
 105:../../DaisySP/Source/Utility/dsp.h **** /** From http://openaudio.blogspot.com/2017/02/faster-log10-and-pow.html
 106:../../DaisySP/Source/Utility/dsp.h **** No approximation, pow10f(x) gives a 90% speed increase over powf(10.f, x)
 107:../../DaisySP/Source/Utility/dsp.h **** */
 108:../../DaisySP/Source/Utility/dsp.h **** inline float pow10f(float f)
 109:../../DaisySP/Source/Utility/dsp.h **** {
 110:../../DaisySP/Source/Utility/dsp.h ****     return expf(2.302585092994046f * f);
 111:../../DaisySP/Source/Utility/dsp.h **** }
 112:../../DaisySP/Source/Utility/dsp.h **** 
 113:../../DaisySP/Source/Utility/dsp.h **** /* Original code for fastlog2f by Dr. Paul Beckmann from the ARM community forum, adapted from the 
 114:../../DaisySP/Source/Utility/dsp.h **** About 25% performance increase over std::log10f
 115:../../DaisySP/Source/Utility/dsp.h **** */
 116:../../DaisySP/Source/Utility/dsp.h **** inline float fastlog2f(float f)
 117:../../DaisySP/Source/Utility/dsp.h **** {
 118:../../DaisySP/Source/Utility/dsp.h ****     float frac;
 119:../../DaisySP/Source/Utility/dsp.h ****     int   exp;
 120:../../DaisySP/Source/Utility/dsp.h ****     frac = frexpf(fabsf(f), &exp);
 121:../../DaisySP/Source/Utility/dsp.h ****     f    = 1.23149591368684f;
 122:../../DaisySP/Source/Utility/dsp.h ****     f *= frac;
 123:../../DaisySP/Source/Utility/dsp.h ****     f += -4.11852516267426f;
 124:../../DaisySP/Source/Utility/dsp.h ****     f *= frac;
 125:../../DaisySP/Source/Utility/dsp.h ****     f += 6.02197014179219f;
 126:../../DaisySP/Source/Utility/dsp.h ****     f *= frac;
 127:../../DaisySP/Source/Utility/dsp.h ****     f += -3.13396450166353f;
 128:../../DaisySP/Source/Utility/dsp.h ****     f += exp;
 129:../../DaisySP/Source/Utility/dsp.h ****     return (f);
 130:../../DaisySP/Source/Utility/dsp.h **** }
 131:../../DaisySP/Source/Utility/dsp.h **** 
 132:../../DaisySP/Source/Utility/dsp.h **** inline float fastlog10f(float f)
 133:../../DaisySP/Source/Utility/dsp.h **** {
 134:../../DaisySP/Source/Utility/dsp.h ****     return fastlog2f(f) * 0.3010299956639812f;
 135:../../DaisySP/Source/Utility/dsp.h **** }
 136:../../DaisySP/Source/Utility/dsp.h **** 
 137:../../DaisySP/Source/Utility/dsp.h **** /** Midi to frequency helper
 138:../../DaisySP/Source/Utility/dsp.h **** */
 139:../../DaisySP/Source/Utility/dsp.h **** inline float mtof(float m)
 140:../../DaisySP/Source/Utility/dsp.h **** {
 141:../../DaisySP/Source/Utility/dsp.h ****     return powf(2, (m - 69.0f) / 12.0f) * 440.0f;
 3030              		.loc 5 141 23 view .LVU973
 3031 003e DFED249A 		vldr.32	s19, .L79
 3032              		.loc 5 141 16 view .LVU974
 3033 0042 B2EE089A 		vmov.f32	s18, #1.2e+1
 3034 0046 84F88A50 		strb	r5, [r4, #138]
 3035              	.LBE621:
 3036              	.LBE620:
 319:vasynth.cpp   **** 			note_freq_[osc_next_] = mtof(note_midi_[osc_next_]);
 3037              		.loc 1 319 4 is_stmt 1 view .LVU975
 320:vasynth.cpp   **** 			bender_offset[osc_next_] = ((note_freq_[osc_next_]) - (mtof(note_midi_[osc_next_] + 1)));
 3038              		.loc 1 320 32 is_stmt 0 view .LVU976
 3039 004a F8EE670A 		vcvt.f32.u32	s1, s15
ARM GAS  /var/folders/kw/h2sg8jtn02b91cpsjc1nlpg80000gn/T//cc850yBR.s 			page 80


 319:vasynth.cpp   **** 			note_freq_[osc_next_] = mtof(note_midi_[osc_next_]);
 3040              		.loc 1 319 26 view .LVU977
 3041 004e 80F88B10 		strb	r1, [r0, #139]
 3042              	.LBB626:
 3043              	.LBB622:
 3044              		.loc 5 141 16 view .LVU978
 3045 0052 B0EE000A 		vmov.f32	s0, #2.0e+0
 3046              	.LBE622:
 3047              	.LBE626:
 320:vasynth.cpp   **** 			bender_offset[osc_next_] = ((note_freq_[osc_next_]) - (mtof(note_midi_[osc_next_] + 1)));
 3048              		.loc 1 320 4 is_stmt 1 view .LVU979
 3049              	.LVL206:
 3050              	.LBB627:
 3051              	.LBI620:
 139:../../DaisySP/Source/Utility/dsp.h **** {
 3052              		.loc 5 139 14 view .LVU980
 3053              	.LBB623:
 3054              		.loc 5 141 5 view .LVU981
 3055              		.loc 5 141 43 is_stmt 0 view .LVU982
 3056 0056 DFED1F8A 		vldr.32	s17, .L79+4
 3057              	.LBE623:
 3058              	.LBE627:
 320:vasynth.cpp   **** 			bender_offset[osc_next_] = ((note_freq_[osc_next_]) - (mtof(note_midi_[osc_next_] + 1)));
 3059              		.loc 1 320 26 view .LVU983
 3060 005a 04EB8505 		add	r5, r4, r5, lsl #2
 3061              	.LBB628:
 3062              	.LBB624:
 3063              		.loc 5 141 23 view .LVU984
 3064 005e 70EEE90A 		vsub.f32	s1, s1, s19
 3065              		.loc 5 141 16 view .LVU985
 3066 0062 C0EE890A 		vdiv.f32	s1, s1, s18
 3067 0066 FFF7FEFF 		bl	powf
 3068              	.LVL207:
 3069              		.loc 5 141 16 view .LVU986
 3070 006a F0EE407A 		vmov.f32	s15, s0
 3071              	.LBE624:
 3072              	.LBE628:
 3073              	.LBB629:
 3074              	.LBB630:
 3075 006e B0EE000A 		vmov.f32	s0, #2.0e+0
 3076              	.LBE630:
 3077              	.LBE629:
 3078              	.LBB633:
 3079              	.LBB625:
 3080              		.loc 5 141 43 view .LVU987
 3081 0072 67EEA87A 		vmul.f32	s15, s15, s17
 3082              	.LBE625:
 3083              	.LBE633:
 320:vasynth.cpp   **** 			bender_offset[osc_next_] = ((note_freq_[osc_next_]) - (mtof(note_midi_[osc_next_] + 1)));
 3084              		.loc 1 320 26 view .LVU988
 3085 0076 C5ED257A 		vstr.32	s15, [r5, #148]
 321:vasynth.cpp   **** 			velocity[osc_next_] = ((float)midi_velocity / MIDI_VELOCITY_MAX);
 3086              		.loc 1 321 4 is_stmt 1 view .LVU989
 321:vasynth.cpp   **** 			velocity[osc_next_] = ((float)midi_velocity / MIDI_VELOCITY_MAX);
 3087              		.loc 1 321 44 is_stmt 0 view .LVU990
 3088 007a 94F88A30 		ldrb	r3, [r4, #138]	@ zero_extendqisi2
 321:vasynth.cpp   **** 			velocity[osc_next_] = ((float)midi_velocity / MIDI_VELOCITY_MAX);
ARM GAS  /var/folders/kw/h2sg8jtn02b91cpsjc1nlpg80000gn/T//cc850yBR.s 			page 81


 3089              		.loc 1 321 84 view .LVU991
 3090 007e E118     		adds	r1, r4, r3
 321:vasynth.cpp   **** 			velocity[osc_next_] = ((float)midi_velocity / MIDI_VELOCITY_MAX);
 3091              		.loc 1 321 53 view .LVU992
 3092 0080 04EB8302 		add	r2, r4, r3, lsl #2
 321:vasynth.cpp   **** 			velocity[osc_next_] = ((float)midi_velocity / MIDI_VELOCITY_MAX);
 3093              		.loc 1 321 84 view .LVU993
 3094 0084 91F88B30 		ldrb	r3, [r1, #139]	@ zero_extendqisi2
 321:vasynth.cpp   **** 			velocity[osc_next_] = ((float)midi_velocity / MIDI_VELOCITY_MAX);
 3095              		.loc 1 321 53 view .LVU994
 3096 0088 92ED258A 		vldr.32	s16, [r2, #148]
 3097              	.LVL208:
 3098              	.LBB634:
 3099              	.LBI629:
 139:../../DaisySP/Source/Utility/dsp.h **** {
 3100              		.loc 5 139 14 is_stmt 1 view .LVU995
 3101              	.LBB631:
 3102              		.loc 5 141 5 view .LVU996
 3103              	.LBE631:
 3104              	.LBE634:
 321:vasynth.cpp   **** 			velocity[osc_next_] = ((float)midi_velocity / MIDI_VELOCITY_MAX);
 3105              		.loc 1 321 86 is_stmt 0 view .LVU997
 3106 008c 0133     		adds	r3, r3, #1
 3107 008e 00EE903A 		vmov	s1, r3	@ int
 321:vasynth.cpp   **** 			velocity[osc_next_] = ((float)midi_velocity / MIDI_VELOCITY_MAX);
 3108              		.loc 1 321 63 view .LVU998
 3109 0092 F8EEE00A 		vcvt.f32.s32	s1, s1
 3110              	.LBB635:
 3111              	.LBB632:
 3112              		.loc 5 141 23 view .LVU999
 3113 0096 70EEE90A 		vsub.f32	s1, s1, s19
 3114              		.loc 5 141 16 view .LVU1000
 3115 009a C0EE890A 		vdiv.f32	s1, s1, s18
 3116 009e FFF7FEFF 		bl	powf
 3117              	.LVL209:
 3118              		.loc 5 141 16 view .LVU1001
 3119              	.LBE632:
 3120              	.LBE635:
 322:vasynth.cpp   **** 			break;
 3121              		.loc 1 322 27 view .LVU1002
 3122 00a2 DDED017A 		vldr.32	s15, [sp, #4]	@ int
 322:vasynth.cpp   **** 			break;
 3123              		.loc 1 322 48 view .LVU1003
 3124 00a6 DFED0C6A 		vldr.32	s13, .L79+8
 3125 00aa 94F88A30 		ldrb	r3, [r4, #138]	@ zero_extendqisi2
 322:vasynth.cpp   **** 			break;
 3126              		.loc 1 322 27 view .LVU1004
 3127 00ae F8EE677A 		vcvt.f32.u32	s15, s15
 3128 00b2 04EB8304 		add	r4, r4, r3, lsl #2
 3129              	.LVL210:
 321:vasynth.cpp   **** 			velocity[osc_next_] = ((float)midi_velocity / MIDI_VELOCITY_MAX);
 3130              		.loc 1 321 56 view .LVU1005
 3131 00b6 A0EE688A 		vfms.f32	s16, s0, s17
 322:vasynth.cpp   **** 			break;
 3132              		.loc 1 322 48 view .LVU1006
 3133 00ba 87EEA67A 		vdiv.f32	s14, s15, s13
 321:vasynth.cpp   **** 			velocity[osc_next_] = ((float)midi_velocity / MIDI_VELOCITY_MAX);
ARM GAS  /var/folders/kw/h2sg8jtn02b91cpsjc1nlpg80000gn/T//cc850yBR.s 			page 82


 3134              		.loc 1 321 29 view .LVU1007
 3135 00be 84ED3D8A 		vstr.32	s16, [r4, #244]
 322:vasynth.cpp   **** 			break;
 3136              		.loc 1 322 4 is_stmt 1 view .LVU1008
 322:vasynth.cpp   **** 			break;
 3137              		.loc 1 322 24 is_stmt 0 view .LVU1009
 3138 00c2 84ED357A 		vstr.32	s14, [r4, #212]
 323:vasynth.cpp   **** 		}
 3139              		.loc 1 323 4 is_stmt 1 view .LVU1010
 3140              	.LBE637:
 3141              		.loc 1 326 1 is_stmt 0 view .LVU1011
 3142 00c6 02B0     		add	sp, sp, #8
 3143              		.cfi_def_cfa_offset 32
 3144              		@ sp needed
 3145 00c8 BDEC048B 		vldm	sp!, {d8-d9}
 3146              		.cfi_restore 82
 3147              		.cfi_restore 83
 3148              		.cfi_restore 80
 3149              		.cfi_restore 81
 3150              		.cfi_def_cfa_offset 16
 3151 00cc 70BD     		pop	{r4, r5, r6, pc}
 3152              	.L80:
 3153 00ce 00BF     		.align	2
 3154              	.L79:
 3155 00d0 00008A42 		.word	1116340224
 3156 00d4 0000DC43 		.word	1138491392
 3157 00d8 0000FE42 		.word	1123942400
 3158              		.cfi_endproc
 3159              	.LFE4863:
 3161              		.section	.text._ZN7VASynth7NoteOffEh,"ax",%progbits
 3162              		.align	1
 3163              		.p2align 2,,3
 3164              		.global	_ZN7VASynth7NoteOffEh
 3165              		.syntax unified
 3166              		.thumb
 3167              		.thumb_func
 3169              	_ZN7VASynth7NoteOffEh:
 3170              	.LVL211:
 3171              	.LFB4864:
 327:vasynth.cpp   **** 
 328:vasynth.cpp   **** void VASynth::NoteOff(uint8_t midi_note)
 329:vasynth.cpp   **** {
 3172              		.loc 1 329 1 is_stmt 1 view -0
 3173              		.cfi_startproc
 3174              		@ args = 0, pretend = 0, frame = 0
 3175              		@ frame_needed = 0, uses_anonymous_args = 0
 3176              		@ link register save eliminated.
 330:vasynth.cpp   **** 	for (uint8_t i = 0; i < VOICES_MAX; i++)
 3177              		.loc 1 330 2 view .LVU1013
 3178              	.LBB638:
 3179              		.loc 1 330 24 view .LVU1014
 3180 0000 00F18B03 		add	r3, r0, #139
 3181 0004 9330     		adds	r0, r0, #147
 3182              	.LVL212:
 3183              	.L83:
 331:vasynth.cpp   **** 	{
 332:vasynth.cpp   **** 		if (note_midi_[i] == midi_note)
ARM GAS  /var/folders/kw/h2sg8jtn02b91cpsjc1nlpg80000gn/T//cc850yBR.s 			page 83


 3184              		.loc 1 332 3 view .LVU1015
 330:vasynth.cpp   **** 	for (uint8_t i = 0; i < VOICES_MAX; i++)
 3185              		.loc 1 330 2 view .LVU1016
 3186              		.loc 1 332 19 is_stmt 0 view .LVU1017
 3187 0006 13F8012B 		ldrb	r2, [r3], #1	@ zero_extendqisi2
 3188              	.LVL213:
 330:vasynth.cpp   **** 	for (uint8_t i = 0; i < VOICES_MAX; i++)
 3189              		.loc 1 330 24 is_stmt 1 view .LVU1018
 3190              		.loc 1 332 3 is_stmt 0 view .LVU1019
 3191 000a 8A42     		cmp	r2, r1
 3192 000c 02D1     		bne	.L82
 333:vasynth.cpp   **** 		{
 334:vasynth.cpp   **** 			note_midi_[i] = 0;
 3193              		.loc 1 334 4 is_stmt 1 view .LVU1020
 3194              		.loc 1 334 18 is_stmt 0 view .LVU1021
 3195 000e 0022     		movs	r2, #0
 3196 0010 03F8012C 		strb	r2, [r3, #-1]
 3197              	.L82:
 330:vasynth.cpp   **** 	{
 3198              		.loc 1 330 24 discriminator 2 view .LVU1022
 3199 0014 8342     		cmp	r3, r0
 3200 0016 F6D1     		bne	.L83
 3201              	.LBE638:
 335:vasynth.cpp   **** 		}
 336:vasynth.cpp   **** 	}
 337:vasynth.cpp   **** }	
 3202              		.loc 1 337 1 view .LVU1023
 3203 0018 7047     		bx	lr
 3204              		.cfi_endproc
 3205              	.LFE4864:
 3207 001a 00BF     		.section	.text._ZN7VASynth9PitchBendEs,"ax",%progbits
 3208              		.align	1
 3209              		.p2align 2,,3
 3210              		.global	_ZN7VASynth9PitchBendEs
 3211              		.syntax unified
 3212              		.thumb
 3213              		.thumb_func
 3215              	_ZN7VASynth9PitchBendEs:
 3216              	.LVL214:
 3217              	.LFB4865:
 338:vasynth.cpp   **** 
 339:vasynth.cpp   **** void VASynth::PitchBend(int16_t data)
 340:vasynth.cpp   **** {
 3218              		.loc 1 340 1 is_stmt 1 view -0
 3219              		.cfi_startproc
 3220              		@ args = 0, pretend = 0, frame = 0
 3221              		@ frame_needed = 0, uses_anonymous_args = 0
 3222              		@ link register save eliminated.
 341:vasynth.cpp   **** 	pitch_bend = 1.0f - (2.0f * ((float)data / 8192.0f));
 3223              		.loc 1 341 2 view .LVU1025
 3224              		.loc 1 341 43 is_stmt 0 view .LVU1026
 3225 0000 07EE101A 		vmov	s14, r1	@ int
 3226              		.loc 1 341 20 view .LVU1027
 3227 0004 F0EE006A 		vmov.f32	s13, #2.0e+0
 3228 0008 F7EE007A 		vmov.f32	s15, #1.0e+0
 3229              		.loc 1 341 13 view .LVU1028
 3230 000c 034B     		ldr	r3, .L86
ARM GAS  /var/folders/kw/h2sg8jtn02b91cpsjc1nlpg80000gn/T//cc850yBR.s 			page 84


 3231              		.loc 1 341 43 view .LVU1029
 3232 000e BAEEE97A 		vcvt.f32.s32	s14, s14, #13
 3233              		.loc 1 341 20 view .LVU1030
 3234 0012 E7EE667A 		vfms.f32	s15, s14, s13
 3235              		.loc 1 341 13 view .LVU1031
 3236 0016 C3ED007A 		vstr.32	s15, [r3]
 342:vasynth.cpp   **** }	
 3237              		.loc 1 342 1 view .LVU1032
 3238 001a 7047     		bx	lr
 3239              	.L87:
 3240              		.align	2
 3241              	.L86:
 3242 001c 00000000 		.word	pitch_bend
 3243              		.cfi_endproc
 3244              	.LFE4865:
 3246              		.section	.text._ZN7VASynth13ProgramChangeEh,"ax",%progbits
 3247              		.align	1
 3248              		.p2align 2,,3
 3249              		.global	_ZN7VASynth13ProgramChangeEh
 3250              		.syntax unified
 3251              		.thumb
 3252              		.thumb_func
 3254              	_ZN7VASynth13ProgramChangeEh:
 3255              	.LVL215:
 3256              	.LFB4866:
 343:vasynth.cpp   **** 
 344:vasynth.cpp   **** void VASynth::ProgramChange(uint8_t data)
 345:vasynth.cpp   **** {
 3257              		.loc 1 345 1 is_stmt 1 view -0
 3258              		.cfi_startproc
 3259              		@ args = 0, pretend = 0, frame = 0
 3260              		@ frame_needed = 0, uses_anonymous_args = 0
 3261              		@ link register save eliminated.
 346:vasynth.cpp   **** 	param_= data;
 3262              		.loc 1 346 2 view .LVU1034
 3263              		.loc 1 346 8 is_stmt 0 view .LVU1035
 3264 0000 014B     		ldr	r3, .L89
 3265 0002 1970     		strb	r1, [r3]
 347:vasynth.cpp   **** }
 3266              		.loc 1 347 1 view .LVU1036
 3267 0004 7047     		bx	lr
 3268              	.L90:
 3269 0006 00BF     		.align	2
 3270              	.L89:
 3271 0008 00000000 		.word	param_
 3272              		.cfi_endproc
 3273              	.LFE4866:
 3275              		.section	.text._ZN7VASynth10SaveToLiveEP14VASynthSetting,"ax",%progbits
 3276              		.align	1
 3277              		.p2align 2,,3
 3278              		.global	_ZN7VASynth10SaveToLiveEP14VASynthSetting
 3279              		.syntax unified
 3280              		.thumb
 3281              		.thumb_func
 3283              	_ZN7VASynth10SaveToLiveEP14VASynthSetting:
 3284              	.LVL216:
 3285              	.LFB4869:
ARM GAS  /var/folders/kw/h2sg8jtn02b91cpsjc1nlpg80000gn/T//cc850yBR.s 			page 85


 348:vasynth.cpp   **** 
 349:vasynth.cpp   **** // Flash handling - load and save
 350:vasynth.cpp   **** // 8MB of flash
 351:vasynth.cpp   **** // 4kB blocks
 352:vasynth.cpp   **** // assume our settings < 4kB, so put one patch per block
 353:vasynth.cpp   **** #define FLASH_BLOCK 4096
 354:vasynth.cpp   **** 
 355:vasynth.cpp   **** uint8_t DSY_QSPI_BSS qspi_buffer[FLASH_BLOCK * 16];
 356:vasynth.cpp   ****  
 357:vasynth.cpp   **** void VASynth::FlashLoad(uint8_t aSlot)
 358:vasynth.cpp   **** {
 359:vasynth.cpp   **** 	VASynthSetting vaload;
 360:vasynth.cpp   **** 
 361:vasynth.cpp   ****     size_t size = sizeof(VASynthSetting);
 362:vasynth.cpp   ****     
 363:vasynth.cpp   **** 	//memcpy(*dest, *src, sizet);
 364:vasynth.cpp   **** 	memcpy(&vaload, &qspi_buffer[aSlot * FLASH_BLOCK], size);
 365:vasynth.cpp   **** 
 366:vasynth.cpp   **** 	SaveToLive(&vaload);
 367:vasynth.cpp   **** }
 368:vasynth.cpp   **** 
 369:vasynth.cpp   **** 
 370:vasynth.cpp   **** 
 371:vasynth.cpp   **** void VASynth::FlashSave(uint8_t aSlot)
 372:vasynth.cpp   **** {
 373:vasynth.cpp   **** 	VASynthSetting vasave;
 374:vasynth.cpp   **** 
 375:vasynth.cpp   **** 	LiveToSave(&vasave);
 376:vasynth.cpp   **** 
 377:vasynth.cpp   **** 	size_t start_address = (size_t)qspi_buffer;
 378:vasynth.cpp   **** 
 379:vasynth.cpp   **** 	size_t size = sizeof(VASynthSetting);
 380:vasynth.cpp   ****     
 381:vasynth.cpp   **** 	size_t slot_address = start_address + (aSlot * FLASH_BLOCK);
 382:vasynth.cpp   **** 
 383:vasynth.cpp   ****     hardware.qspi.Erase(slot_address, slot_address + size);
 384:vasynth.cpp   ****     hardware.qspi.Write(slot_address, size, (uint8_t*)&vasave);
 385:vasynth.cpp   **** 
 386:vasynth.cpp   **** }	
 387:vasynth.cpp   **** 
 388:vasynth.cpp   **** void VASynth::SaveToLive(VASynthSetting *vas)
 389:vasynth.cpp   **** {
 3286              		.loc 1 389 1 is_stmt 1 view -0
 3287              		.cfi_startproc
 3288              		@ args = 0, pretend = 0, frame = 0
 3289              		@ frame_needed = 0, uses_anonymous_args = 0
 390:vasynth.cpp   **** 	gPlay = PLAY_OFF;
 3290              		.loc 1 390 2 view .LVU1038
 389:vasynth.cpp   **** 	gPlay = PLAY_OFF;
 3291              		.loc 1 389 1 is_stmt 0 view .LVU1039
 3292 0000 10B5     		push	{r4, lr}
 3293              		.cfi_def_cfa_offset 8
 3294              		.cfi_offset 4, -8
 3295              		.cfi_offset 14, -4
 3296              		.loc 1 390 8 view .LVU1040
 3297 0002 0022     		movs	r2, #0
 3298 0004 464C     		ldr	r4, .L93
ARM GAS  /var/folders/kw/h2sg8jtn02b91cpsjc1nlpg80000gn/T//cc850yBR.s 			page 86


 3299 0006 2270     		strb	r2, [r4]
 391:vasynth.cpp   **** 	
 392:vasynth.cpp   **** 	waveform_ = vas->waveform;
 3300              		.loc 1 392 2 is_stmt 1 view .LVU1041
 3301              		.loc 1 392 19 is_stmt 0 view .LVU1042
 3302 0008 91F800C0 		ldrb	ip, [r1]	@ zero_extendqisi2
 3303              		.loc 1 392 12 view .LVU1043
 3304 000c 80F804C0 		strb	ip, [r0, #4]
 393:vasynth.cpp   **** 	osc_mix_ = vas->osc_mix;
 3305              		.loc 1 393 2 is_stmt 1 view .LVU1044
 3306              		.loc 1 393 18 is_stmt 0 view .LVU1045
 3307 0010 D1F804C0 		ldr	ip, [r1, #4]	@ float
 3308              		.loc 1 393 11 view .LVU1046
 3309 0014 C0F808C0 		str	ip, [r0, #8]	@ float
 394:vasynth.cpp   **** 	detune_ = vas->detune;
 3310              		.loc 1 394 2 is_stmt 1 view .LVU1047
 3311              		.loc 1 394 17 is_stmt 0 view .LVU1048
 3312 0018 D1F808C0 		ldr	ip, [r1, #8]	@ float
 3313              		.loc 1 394 10 view .LVU1049
 3314 001c C0F80CC0 		str	ip, [r0, #12]	@ float
 395:vasynth.cpp   **** 	osc_pw_ = vas->osc_pw;
 3315              		.loc 1 395 2 is_stmt 1 view .LVU1050
 3316              		.loc 1 395 17 is_stmt 0 view .LVU1051
 3317 0020 D1F80CC0 		ldr	ip, [r1, #12]	@ float
 3318              		.loc 1 395 10 view .LVU1052
 3319 0024 C0F810C0 		str	ip, [r0, #16]	@ float
 396:vasynth.cpp   **** 
 397:vasynth.cpp   **** 	osc2_waveform_ = vas->osc2_waveform;
 3320              		.loc 1 397 2 is_stmt 1 view .LVU1053
 3321              		.loc 1 397 24 is_stmt 0 view .LVU1054
 3322 0028 91F810C0 		ldrb	ip, [r1, #16]	@ zero_extendqisi2
 3323              		.loc 1 397 17 view .LVU1055
 3324 002c 80F814C0 		strb	ip, [r0, #20]
 398:vasynth.cpp   **** 	osc2_detune_ = vas->osc2_detune;
 3325              		.loc 1 398 2 is_stmt 1 view .LVU1056
 3326              		.loc 1 398 22 is_stmt 0 view .LVU1057
 3327 0030 D1F814C0 		ldr	ip, [r1, #20]	@ float
 3328              		.loc 1 398 15 view .LVU1058
 3329 0034 C0F818C0 		str	ip, [r0, #24]	@ float
 399:vasynth.cpp   **** 	osc2_transpose_ = vas->osc2_transpose;
 3330              		.loc 1 399 2 is_stmt 1 view .LVU1059
 3331              		.loc 1 399 25 is_stmt 0 view .LVU1060
 3332 0038 D1F818C0 		ldr	ip, [r1, #24]	@ float
 3333              		.loc 1 399 18 view .LVU1061
 3334 003c C0F81CC0 		str	ip, [r0, #28]	@ float
 400:vasynth.cpp   **** 	osc2_pw_ = vas->osc2_pw;
 3335              		.loc 1 400 2 is_stmt 1 view .LVU1062
 3336              		.loc 1 400 18 is_stmt 0 view .LVU1063
 3337 0040 D1F81CC0 		ldr	ip, [r1, #28]	@ float
 3338              		.loc 1 400 11 view .LVU1064
 3339 0044 C0F820C0 		str	ip, [r0, #32]	@ float
 401:vasynth.cpp   **** 	
 402:vasynth.cpp   **** 	eg_a_attack_ = vas->eg_a_attack;
 3340              		.loc 1 402 2 is_stmt 1 view .LVU1065
 3341              		.loc 1 402 22 is_stmt 0 view .LVU1066
 3342 0048 D1F820C0 		ldr	ip, [r1, #32]	@ float
 3343              		.loc 1 402 15 view .LVU1067
ARM GAS  /var/folders/kw/h2sg8jtn02b91cpsjc1nlpg80000gn/T//cc850yBR.s 			page 87


 3344 004c C0F824C0 		str	ip, [r0, #36]	@ float
 403:vasynth.cpp   **** 	eg_a_decay_ = vas->eg_a_decay;
 3345              		.loc 1 403 2 is_stmt 1 view .LVU1068
 3346              		.loc 1 403 21 is_stmt 0 view .LVU1069
 3347 0050 D1F824C0 		ldr	ip, [r1, #36]	@ float
 3348              		.loc 1 403 14 view .LVU1070
 3349 0054 C0F828C0 		str	ip, [r0, #40]	@ float
 404:vasynth.cpp   **** 	eg_a_sustain_ = vas->eg_a_sustain; // level
 3350              		.loc 1 404 2 is_stmt 1 view .LVU1071
 3351              		.loc 1 404 23 is_stmt 0 view .LVU1072
 3352 0058 D1F828C0 		ldr	ip, [r1, #40]	@ float
 3353              		.loc 1 404 16 view .LVU1073
 3354 005c C0F82CC0 		str	ip, [r0, #44]	@ float
 405:vasynth.cpp   **** 	eg_a_release_ = vas->eg_a_release;
 3355              		.loc 1 405 2 is_stmt 1 view .LVU1074
