ARM GAS  /var/folders/kw/h2sg8jtn02b91cpsjc1nlpg80000gn/T//cccUH3U8.s 			page 1


   1              		.cpu cortex-m7
   2              		.arch armv7e-m
   3              		.fpu fpv5-d16
   4              		.eabi_attribute 28, 1
   5              		.eabi_attribute 20, 1
   6              		.eabi_attribute 21, 1
   7              		.eabi_attribute 23, 3
   8              		.eabi_attribute 24, 1
   9              		.eabi_attribute 25, 1
  10              		.eabi_attribute 26, 1
  11              		.eabi_attribute 30, 2
  12              		.eabi_attribute 34, 1
  13              		.eabi_attribute 18, 4
  14              		.file	"main.cpp"
  15              		.text
  16              	.Ltext0:
  17              		.cfi_sections	.debug_frame
  18              		.section	.text._ZN5daisy9DaisySeedD2Ev,"axG",%progbits,_ZN5daisy9DaisySeedD5Ev,comdat
  19              		.align	1
  20              		.p2align 2,,3
  21              		.weak	_ZN5daisy9DaisySeedD2Ev
  22              		.syntax unified
  23              		.thumb
  24              		.thumb_func
  26              	_ZN5daisy9DaisySeedD2Ev:
  27              	.LVL0:
  28              	.LFB2556:
  29              		.file 1 "../../libDaisy/src/daisy_seed.h"
   1:../../libDaisy/src/daisy_seed.h **** #pragma once
   2:../../libDaisy/src/daisy_seed.h **** #ifndef DSY_SEED_H
   3:../../libDaisy/src/daisy_seed.h **** #define DSY_SEED_H
   4:../../libDaisy/src/daisy_seed.h **** 
   5:../../libDaisy/src/daisy_seed.h **** #include "daisy.h"
   6:../../libDaisy/src/daisy_seed.h **** 
   7:../../libDaisy/src/daisy_seed.h **** //Uncomment this out if you're still using the rev2 hardware
   8:../../libDaisy/src/daisy_seed.h **** //#define SEED_REV2
   9:../../libDaisy/src/daisy_seed.h **** 
  10:../../libDaisy/src/daisy_seed.h **** namespace daisy
  11:../../libDaisy/src/daisy_seed.h **** {
  12:../../libDaisy/src/daisy_seed.h **** /**
  13:../../libDaisy/src/daisy_seed.h ****    @brief This is the higher-level interface for the Daisy board. \n 
  14:../../libDaisy/src/daisy_seed.h ****     All basic peripheral configuration/initialization is setup here. \n
  15:../../libDaisy/src/daisy_seed.h **** 
  16:../../libDaisy/src/daisy_seed.h ****    @ingroup boards
  17:../../libDaisy/src/daisy_seed.h **** */
  18:../../libDaisy/src/daisy_seed.h **** class DaisySeed
  19:../../libDaisy/src/daisy_seed.h **** {
  20:../../libDaisy/src/daisy_seed.h ****   public:
  21:../../libDaisy/src/daisy_seed.h ****     DaisySeed() {}
  22:../../libDaisy/src/daisy_seed.h ****     ~DaisySeed() {}
  30              		.loc 1 22 5 view -0
  31              		.cfi_startproc
  32              		@ args = 0, pretend = 0, frame = 0
  33              		@ frame_needed = 0, uses_anonymous_args = 0
  34              		@ link register save eliminated.
  35              	.LBB301:
  36              	.LBI301:
ARM GAS  /var/folders/kw/h2sg8jtn02b91cpsjc1nlpg80000gn/T//cccUH3U8.s 			page 2


  37              		.file 2 "../../libDaisy/src/sys/system.h"
   1:../../libDaisy/src/sys/system.h **** #ifndef DSY_SYSTEM_H
   2:../../libDaisy/src/sys/system.h **** #define DSY_SYSTEM_H
   3:../../libDaisy/src/sys/system.h **** 
   4:../../libDaisy/src/sys/system.h **** #ifndef UNIT_TEST // for unit tests, a dummy implementation is provided below
   5:../../libDaisy/src/sys/system.h **** 
   6:../../libDaisy/src/sys/system.h **** #include <cstdint>
   7:../../libDaisy/src/sys/system.h **** #include "per/tim.h"
   8:../../libDaisy/src/sys/system.h **** 
   9:../../libDaisy/src/sys/system.h **** namespace daisy
  10:../../libDaisy/src/sys/system.h **** {
  11:../../libDaisy/src/sys/system.h **** /** A handle for interacting with the Core System.
  12:../../libDaisy/src/sys/system.h ****  ** This includes the Clock tree, MPU, global DMA initialization,
  13:../../libDaisy/src/sys/system.h ****  ** cache handling, and any other necessary global initiailzation
  14:../../libDaisy/src/sys/system.h ****  **
  15:../../libDaisy/src/sys/system.h ****  ** @author shensley
  16:../../libDaisy/src/sys/system.h ****  ** @ingroup system
  17:../../libDaisy/src/sys/system.h ****  */
  18:../../libDaisy/src/sys/system.h **** class System
  19:../../libDaisy/src/sys/system.h **** {
  20:../../libDaisy/src/sys/system.h ****   public:
  21:../../libDaisy/src/sys/system.h ****     /** Contains settings for initializing the System */
  22:../../libDaisy/src/sys/system.h ****     struct Config
  23:../../libDaisy/src/sys/system.h ****     {
  24:../../libDaisy/src/sys/system.h ****         /** Specifies the system clock frequency that feeds APB/AHB clocks, etc. */
  25:../../libDaisy/src/sys/system.h ****         enum class SysClkFreq
  26:../../libDaisy/src/sys/system.h ****         {
  27:../../libDaisy/src/sys/system.h ****             FREQ_400MHZ,
  28:../../libDaisy/src/sys/system.h ****             FREQ_480MHZ,
  29:../../libDaisy/src/sys/system.h ****         };
  30:../../libDaisy/src/sys/system.h **** 
  31:../../libDaisy/src/sys/system.h ****         /** Method to call on the struct to set to defaults
  32:../../libDaisy/src/sys/system.h ****          ** CPU Freq set to 400MHz
  33:../../libDaisy/src/sys/system.h ****          ** Cache Enabled
  34:../../libDaisy/src/sys/system.h ****          ** */
  35:../../libDaisy/src/sys/system.h ****         void Defaults()
  36:../../libDaisy/src/sys/system.h ****         {
  37:../../libDaisy/src/sys/system.h ****             cpu_freq    = SysClkFreq::FREQ_400MHZ;
  38:../../libDaisy/src/sys/system.h ****             use_dcache  = true;
  39:../../libDaisy/src/sys/system.h ****             use_icache  = true;
  40:../../libDaisy/src/sys/system.h ****             skip_clocks = false;
  41:../../libDaisy/src/sys/system.h ****         }
  42:../../libDaisy/src/sys/system.h **** 
  43:../../libDaisy/src/sys/system.h ****         /** Method to call on the struct to set to boost mode:
  44:../../libDaisy/src/sys/system.h ****          ** CPU Freq set to 480MHz
  45:../../libDaisy/src/sys/system.h ****          ** Cache Enabled
  46:../../libDaisy/src/sys/system.h ****          ** */
  47:../../libDaisy/src/sys/system.h ****         void Boost()
  48:../../libDaisy/src/sys/system.h ****         {
  49:../../libDaisy/src/sys/system.h ****             cpu_freq    = SysClkFreq::FREQ_480MHZ;
  50:../../libDaisy/src/sys/system.h ****             use_dcache  = true;
  51:../../libDaisy/src/sys/system.h ****             use_icache  = true;
  52:../../libDaisy/src/sys/system.h ****             skip_clocks = false;
  53:../../libDaisy/src/sys/system.h ****         }
  54:../../libDaisy/src/sys/system.h **** 
  55:../../libDaisy/src/sys/system.h ****         SysClkFreq cpu_freq;
  56:../../libDaisy/src/sys/system.h ****         bool       use_dcache;
ARM GAS  /var/folders/kw/h2sg8jtn02b91cpsjc1nlpg80000gn/T//cccUH3U8.s 			page 3


  57:../../libDaisy/src/sys/system.h ****         bool       use_icache;
  58:../../libDaisy/src/sys/system.h ****         bool       skip_clocks;
  59:../../libDaisy/src/sys/system.h ****     };
  60:../../libDaisy/src/sys/system.h **** 
  61:../../libDaisy/src/sys/system.h ****     /** Describes the different regions of memory available to the Daisy */
  62:../../libDaisy/src/sys/system.h ****     enum MemoryRegion
  63:../../libDaisy/src/sys/system.h ****     {
  64:../../libDaisy/src/sys/system.h ****         INTERNAL_FLASH = 0,
  65:../../libDaisy/src/sys/system.h ****         ITCMRAM,
  66:../../libDaisy/src/sys/system.h ****         DTCMRAM,
  67:../../libDaisy/src/sys/system.h ****         SRAM_D1,
  68:../../libDaisy/src/sys/system.h ****         SRAM_D2,
  69:../../libDaisy/src/sys/system.h ****         SRAM_D3,
  70:../../libDaisy/src/sys/system.h ****         SDRAM,
  71:../../libDaisy/src/sys/system.h ****         QSPI,
  72:../../libDaisy/src/sys/system.h ****         INVALID_ADDRESS,
  73:../../libDaisy/src/sys/system.h ****     };
  74:../../libDaisy/src/sys/system.h **** 
  75:../../libDaisy/src/sys/system.h ****     /** Bootloader struct for controlling bootloading parameters */
  76:../../libDaisy/src/sys/system.h ****     struct BootInfo
  77:../../libDaisy/src/sys/system.h ****     {
  78:../../libDaisy/src/sys/system.h ****         enum class Type : uint32_t
  79:../../libDaisy/src/sys/system.h ****         {
  80:../../libDaisy/src/sys/system.h ****             INVALID      = 0x00000000,
  81:../../libDaisy/src/sys/system.h ****             JUMP         = 0xDEADBEEF,
  82:../../libDaisy/src/sys/system.h ****             SKIP_TIMEOUT = 0x5AFEB007,
  83:../../libDaisy/src/sys/system.h ****             INF_TIMEOUT  = 0xB0074EFA,
  84:../../libDaisy/src/sys/system.h ****         } status;
  85:../../libDaisy/src/sys/system.h ****         uint32_t data;
  86:../../libDaisy/src/sys/system.h ****         enum class Version : uint32_t
  87:../../libDaisy/src/sys/system.h ****         {
  88:../../libDaisy/src/sys/system.h ****             LT_v6_0 = 0, // Less than v6.0
  89:../../libDaisy/src/sys/system.h ****             NONE,        // No bootloader present
  90:../../libDaisy/src/sys/system.h ****             v6_0,        // v6.0
  91:../../libDaisy/src/sys/system.h ****             v6_1,        // v6.1 or greater
  92:../../libDaisy/src/sys/system.h ****             LAST
  93:../../libDaisy/src/sys/system.h ****         } version;
  94:../../libDaisy/src/sys/system.h ****     };
  95:../../libDaisy/src/sys/system.h **** 
  96:../../libDaisy/src/sys/system.h ****     System() {}
  97:../../libDaisy/src/sys/system.h ****     ~System() {}
  38              		.loc 2 97 5 view .LVU1
  39              		.loc 2 97 5 is_stmt 0 view .LVU2
  40              	.LBE301:
  41              	.LBB302:
  42              	.LBI302:
  43              		.file 3 "../../libDaisy/src/hid/usb.h"
   1:../../libDaisy/src/hid/usb.h **** #pragma once
   2:../../libDaisy/src/hid/usb.h **** #ifndef DSY_HID_USB_H
   3:../../libDaisy/src/hid/usb.h **** #define DSY_HID_USB_H
   4:../../libDaisy/src/hid/usb.h **** #include <stdint.h>
   5:../../libDaisy/src/hid/usb.h **** #include <stdlib.h>
   6:../../libDaisy/src/hid/usb.h **** 
   7:../../libDaisy/src/hid/usb.h **** namespace daisy
   8:../../libDaisy/src/hid/usb.h **** /** @addtogroup human_interface
   9:../../libDaisy/src/hid/usb.h ****     @{
  10:../../libDaisy/src/hid/usb.h **** */
ARM GAS  /var/folders/kw/h2sg8jtn02b91cpsjc1nlpg80000gn/T//cccUH3U8.s 			page 4


  11:../../libDaisy/src/hid/usb.h **** 
  12:../../libDaisy/src/hid/usb.h **** {
  13:../../libDaisy/src/hid/usb.h **** /** 
  14:../../libDaisy/src/hid/usb.h ****     @brief Interface for initializing and using the USB Peripherals on the daisy
  15:../../libDaisy/src/hid/usb.h ****     @author Stephen Hensley
  16:../../libDaisy/src/hid/usb.h ****     @date December 2019
  17:../../libDaisy/src/hid/usb.h **** */
  18:../../libDaisy/src/hid/usb.h **** class UsbHandle
  19:../../libDaisy/src/hid/usb.h **** {
  20:../../libDaisy/src/hid/usb.h ****   public:
  21:../../libDaisy/src/hid/usb.h ****     /** Return values for USBHandle Functions */
  22:../../libDaisy/src/hid/usb.h ****     enum class Result
  23:../../libDaisy/src/hid/usb.h ****     {
  24:../../libDaisy/src/hid/usb.h ****         OK,
  25:../../libDaisy/src/hid/usb.h ****         ERR,
  26:../../libDaisy/src/hid/usb.h ****     };
  27:../../libDaisy/src/hid/usb.h **** 
  28:../../libDaisy/src/hid/usb.h ****     /** Specified which of the two USB Peripherals to initialize. */
  29:../../libDaisy/src/hid/usb.h ****     enum UsbPeriph
  30:../../libDaisy/src/hid/usb.h ****     {
  31:../../libDaisy/src/hid/usb.h ****         FS_INTERNAL, /**< Internal pin */
  32:../../libDaisy/src/hid/usb.h ****         FS_EXTERNAL, /**< FS External D+ pin is Pin 38 (GPIO32). FS External D- pin is Pin 37 (GPIO
  33:../../libDaisy/src/hid/usb.h ****         FS_BOTH,     /**< Both */
  34:../../libDaisy/src/hid/usb.h ****     };
  35:../../libDaisy/src/hid/usb.h **** 
  36:../../libDaisy/src/hid/usb.h **** 
  37:../../libDaisy/src/hid/usb.h ****     /** Function called upon reception of a buffer */
  38:../../libDaisy/src/hid/usb.h ****     typedef void (*ReceiveCallback)(uint8_t* buff, uint32_t* len);
  39:../../libDaisy/src/hid/usb.h **** 
  40:../../libDaisy/src/hid/usb.h ****     UsbHandle() {}
  41:../../libDaisy/src/hid/usb.h **** 
  42:../../libDaisy/src/hid/usb.h ****     ~UsbHandle() {}
  44              		.loc 3 42 5 is_stmt 1 view .LVU3
  45              		.loc 3 42 5 is_stmt 0 view .LVU4
  46              	.LBE302:
  47              	.LBB303:
  48              	.LBI303:
  49              		.file 4 "../../libDaisy/src/per/adc.h"
   1:../../libDaisy/src/per/adc.h **** #pragma once
   2:../../libDaisy/src/per/adc.h **** #ifndef DSY_ADC_H
   3:../../libDaisy/src/per/adc.h **** #define DSY_ADC_H /**< Macro */
   4:../../libDaisy/src/per/adc.h **** #include <stdint.h>
   5:../../libDaisy/src/per/adc.h **** #include <stdlib.h>
   6:../../libDaisy/src/per/adc.h **** #include "daisy_core.h"
   7:../../libDaisy/src/per/adc.h **** #include "per/gpio.h"
   8:../../libDaisy/src/per/adc.h **** 
   9:../../libDaisy/src/per/adc.h **** #define DSY_ADC_MAX_CHANNELS 16 /**< Maximum number of ADC channels */
  10:../../libDaisy/src/per/adc.h **** 
  11:../../libDaisy/src/per/adc.h **** namespace daisy
  12:../../libDaisy/src/per/adc.h **** {
  13:../../libDaisy/src/per/adc.h **** /** @addtogroup per_analog
  14:../../libDaisy/src/per/adc.h ****     @{
  15:../../libDaisy/src/per/adc.h **** */
  16:../../libDaisy/src/per/adc.h **** 
  17:../../libDaisy/src/per/adc.h **** /* While there may not be many configuration options here,
  18:../../libDaisy/src/per/adc.h **** using a struct like this allows us to add more configuration
  19:../../libDaisy/src/per/adc.h **** later without breaking existing functionality.
ARM GAS  /var/folders/kw/h2sg8jtn02b91cpsjc1nlpg80000gn/T//cccUH3U8.s 			page 5


  20:../../libDaisy/src/per/adc.h **** */
  21:../../libDaisy/src/per/adc.h **** 
  22:../../libDaisy/src/per/adc.h **** /** @brief   Configuration Structure for an ADC Channel 
  23:../../libDaisy/src/per/adc.h ****  *  @details This can be used to configure a a single input, 
  24:../../libDaisy/src/per/adc.h ****  *           or a multiplexed input, allowing up to 8 inputs on 
  25:../../libDaisy/src/per/adc.h ****  *           one channel.
  26:../../libDaisy/src/per/adc.h ****  *  @note    Sharing data lines to multiple muxes _is_ possible, but
  27:../../libDaisy/src/per/adc.h ****  *           each channel sharing data lines must be set to the maximum
  28:../../libDaisy/src/per/adc.h ****  *           number of channels, even if some multiplexers have fewer
  29:../../libDaisy/src/per/adc.h ****  *           inputs connected.
  30:../../libDaisy/src/per/adc.h **** */
  31:../../libDaisy/src/per/adc.h **** struct AdcChannelConfig
  32:../../libDaisy/src/per/adc.h **** {
  33:../../libDaisy/src/per/adc.h ****     /** Which pin to use for multiplexing */
  34:../../libDaisy/src/per/adc.h ****     enum MuxPin
  35:../../libDaisy/src/per/adc.h ****     {
  36:../../libDaisy/src/per/adc.h ****         MUX_SEL_0,    /**< & */
  37:../../libDaisy/src/per/adc.h ****         MUX_SEL_1,    /**< & */
  38:../../libDaisy/src/per/adc.h ****         MUX_SEL_2,    /**< & */
  39:../../libDaisy/src/per/adc.h ****         MUX_SEL_LAST, /**< & */
  40:../../libDaisy/src/per/adc.h ****     };
  41:../../libDaisy/src/per/adc.h **** 
  42:../../libDaisy/src/per/adc.h ****     /** \brief per channel conversion speed added to fixed time based on bitdepth, etc. */
  43:../../libDaisy/src/per/adc.h ****     enum ConversionSpeed
  44:../../libDaisy/src/per/adc.h ****     {
  45:../../libDaisy/src/per/adc.h ****         SPEED_1CYCLES_5,
  46:../../libDaisy/src/per/adc.h ****         SPEED_2CYCLES_5,
  47:../../libDaisy/src/per/adc.h ****         SPEED_8CYCLES_5,
  48:../../libDaisy/src/per/adc.h ****         SPEED_16CYCLES_5,
  49:../../libDaisy/src/per/adc.h ****         SPEED_32CYCLES_5,
  50:../../libDaisy/src/per/adc.h ****         SPEED_64CYCLES_5,
  51:../../libDaisy/src/per/adc.h ****         SPEED_387CYCLES_5,
  52:../../libDaisy/src/per/adc.h ****         SPEED_810CYCLES_5,
  53:../../libDaisy/src/per/adc.h ****     };
  54:../../libDaisy/src/per/adc.h **** 
  55:../../libDaisy/src/per/adc.h ****     /** Initializes a single ADC pin as an ADC. 
  56:../../libDaisy/src/per/adc.h ****     \param pin Pin to init.
  57:../../libDaisy/src/per/adc.h ****     \param speed conversion speed for this pin defaults to 8.5 cycles
  58:../../libDaisy/src/per/adc.h ****      */
  59:../../libDaisy/src/per/adc.h ****     void InitSingle(dsy_gpio_pin pin, ConversionSpeed speed = SPEED_8CYCLES_5);
  60:../../libDaisy/src/per/adc.h **** 
  61:../../libDaisy/src/per/adc.h ****     /** 
  62:../../libDaisy/src/per/adc.h ****     Initializes a single ADC pin as a Multiplexed ADC.
  63:../../libDaisy/src/per/adc.h ****     Requires a CD405X Multiplexer connected to the pin.
  64:../../libDaisy/src/per/adc.h ****     You only need to supply the mux pins that are required,
  65:../../libDaisy/src/per/adc.h ****     e.g. a 4052 mux would only require mux_0 and mux_1.
  66:../../libDaisy/src/per/adc.h ****     Internal Callbacks handle the pin addressing.
  67:../../libDaisy/src/per/adc.h ****     \param adc_pin &
  68:../../libDaisy/src/per/adc.h ****     \param mux_channels must be 1-8
  69:../../libDaisy/src/per/adc.h ****     \param mux_0 First mux pin
  70:../../libDaisy/src/per/adc.h ****     \param mux_1 Second mux pin
  71:../../libDaisy/src/per/adc.h ****     \param mux_2 Third mux pin
  72:../../libDaisy/src/per/adc.h ****     \param speed conversion speed for this pin defaults to 8.5 cycles
  73:../../libDaisy/src/per/adc.h ****     */
  74:../../libDaisy/src/per/adc.h ****     void InitMux(dsy_gpio_pin    adc_pin,
  75:../../libDaisy/src/per/adc.h ****                  size_t          mux_channels,
  76:../../libDaisy/src/per/adc.h ****                  dsy_gpio_pin    mux_0,
ARM GAS  /var/folders/kw/h2sg8jtn02b91cpsjc1nlpg80000gn/T//cccUH3U8.s 			page 6


  77:../../libDaisy/src/per/adc.h ****                  dsy_gpio_pin    mux_1 = {DSY_GPIOX, 0},
  78:../../libDaisy/src/per/adc.h ****                  dsy_gpio_pin    mux_2 = {DSY_GPIOX, 0},
  79:../../libDaisy/src/per/adc.h ****                  ConversionSpeed speed = SPEED_8CYCLES_5);
  80:../../libDaisy/src/per/adc.h **** 
  81:../../libDaisy/src/per/adc.h ****     dsy_gpio        pin_;                   /**< & */
  82:../../libDaisy/src/per/adc.h ****     dsy_gpio        mux_pin_[MUX_SEL_LAST]; /**< & */
  83:../../libDaisy/src/per/adc.h ****     uint8_t         mux_channels_;          /**< & */
  84:../../libDaisy/src/per/adc.h ****     ConversionSpeed speed_;
  85:../../libDaisy/src/per/adc.h **** };
  86:../../libDaisy/src/per/adc.h **** 
  87:../../libDaisy/src/per/adc.h **** /**
  88:../../libDaisy/src/per/adc.h ****    @brief Handler for analog to digital conversion
  89:../../libDaisy/src/per/adc.h **** */
  90:../../libDaisy/src/per/adc.h **** class AdcHandle
  91:../../libDaisy/src/per/adc.h **** {
  92:../../libDaisy/src/per/adc.h ****   public:
  93:../../libDaisy/src/per/adc.h ****     /** Supported oversampling amounts */
  94:../../libDaisy/src/per/adc.h ****     enum OverSampling
  95:../../libDaisy/src/per/adc.h ****     {
  96:../../libDaisy/src/per/adc.h ****         OVS_NONE, /**< & */
  97:../../libDaisy/src/per/adc.h ****         OVS_4,    /**< & */
  98:../../libDaisy/src/per/adc.h ****         OVS_8,    /**< & */
  99:../../libDaisy/src/per/adc.h ****         OVS_16,   /**< & */
 100:../../libDaisy/src/per/adc.h ****         OVS_32,   /**< & */
 101:../../libDaisy/src/per/adc.h ****         OVS_64,   /**< & */
 102:../../libDaisy/src/per/adc.h ****         OVS_128,  /**< & */
 103:../../libDaisy/src/per/adc.h ****         OVS_256,  /**< & */
 104:../../libDaisy/src/per/adc.h ****         OVS_512,  /**< & */
 105:../../libDaisy/src/per/adc.h ****         OVS_1024, /**< & */
 106:../../libDaisy/src/per/adc.h ****         OVS_LAST, /**< & */
 107:../../libDaisy/src/per/adc.h ****     };
 108:../../libDaisy/src/per/adc.h **** 
 109:../../libDaisy/src/per/adc.h ****     AdcHandle() {}
 110:../../libDaisy/src/per/adc.h ****     ~AdcHandle() {}
  50              		.loc 4 110 5 is_stmt 1 view .LVU5
  51              		.loc 4 110 5 is_stmt 0 view .LVU6
  52              	.LBE303:
  53              	.LBB304:
  54              	.LBI304:
  55              		.file 5 "../../libDaisy/src/hid/audio.h"
   1:../../libDaisy/src/hid/audio.h **** #ifndef DSY_AUDIO_H
   2:../../libDaisy/src/hid/audio.h **** #define DSY_AUDIO_H /**< & */
   3:../../libDaisy/src/hid/audio.h **** 
   4:../../libDaisy/src/hid/audio.h **** #include "per/sai.h"
   5:../../libDaisy/src/hid/audio.h **** 
   6:../../libDaisy/src/hid/audio.h **** namespace daisy
   7:../../libDaisy/src/hid/audio.h **** {
   8:../../libDaisy/src/hid/audio.h **** /** @brief Audio Engine Handle
   9:../../libDaisy/src/hid/audio.h ****  *  @ingroup audio 
  10:../../libDaisy/src/hid/audio.h ****  *  @details This class allows for higher level access to an audio engine.
  11:../../libDaisy/src/hid/audio.h ****  *           If you're using a SOM like the DaisySeed or DaisyPatchSM (or any 
  12:../../libDaisy/src/hid/audio.h ****  *            board that includes one of those objects) then the intialization
  13:../../libDaisy/src/hid/audio.h ****  *            is already taken  care of.
  14:../../libDaisy/src/hid/audio.h ****  *           If you're setting up your own custom hardware, or need to make changes
  15:../../libDaisy/src/hid/audio.h ****  *           you will have to take the following steps:
  16:../../libDaisy/src/hid/audio.h ****  *             1. Create and Initialize an SaiHandle or two depending on your requirements
  17:../../libDaisy/src/hid/audio.h ****  *             2. Initialize the Audio Handle with the desired settings and the Initialized SaiHand
ARM GAS  /var/folders/kw/h2sg8jtn02b91cpsjc1nlpg80000gn/T//cccUH3U8.s 			page 7


  18:../../libDaisy/src/hid/audio.h ****  *             3. If the connected codec requires special configuration or initialization, do so
  19:../../libDaisy/src/hid/audio.h ****  *             4. Write a callback method using either the AudioCallback or the InterleavingAudioCa
  20:../../libDaisy/src/hid/audio.h ****  *             5. Start the Audio using one of the StartAudio function
  21:../../libDaisy/src/hid/audio.h ****  */
  22:../../libDaisy/src/hid/audio.h **** class AudioHandle
  23:../../libDaisy/src/hid/audio.h **** {
  24:../../libDaisy/src/hid/audio.h ****   public:
  25:../../libDaisy/src/hid/audio.h ****     /** Manually configurable details about the Audio Engine */
  26:../../libDaisy/src/hid/audio.h ****     /** TODO: Figure out how to get samplerate in here. */
  27:../../libDaisy/src/hid/audio.h ****     struct Config
  28:../../libDaisy/src/hid/audio.h ****     {
  29:../../libDaisy/src/hid/audio.h ****         /** number of samples to process per callback */
  30:../../libDaisy/src/hid/audio.h ****         size_t blocksize;
  31:../../libDaisy/src/hid/audio.h **** 
  32:../../libDaisy/src/hid/audio.h ****         /**< Sample rate of audio */
  33:../../libDaisy/src/hid/audio.h ****         SaiHandle::Config::SampleRate samplerate;
  34:../../libDaisy/src/hid/audio.h **** 
  35:../../libDaisy/src/hid/audio.h ****         /** factor for adjustment before and after callback for hardware that may have extra headro
  36:../../libDaisy/src/hid/audio.h ****         float postgain;
  37:../../libDaisy/src/hid/audio.h **** 
  38:../../libDaisy/src/hid/audio.h ****         /** factor for additional one-sided compensation to audio path for hardware that may
  39:../../libDaisy/src/hid/audio.h ****          *  have unequal input/output ranges
  40:../../libDaisy/src/hid/audio.h ****          */
  41:../../libDaisy/src/hid/audio.h ****         float output_compensation;
  42:../../libDaisy/src/hid/audio.h **** 
  43:../../libDaisy/src/hid/audio.h ****         /** Sets default values for config struct */
  44:../../libDaisy/src/hid/audio.h ****         Config()
  45:../../libDaisy/src/hid/audio.h ****         : blocksize(48),
  46:../../libDaisy/src/hid/audio.h ****           samplerate(SaiHandle::Config::SampleRate::SAI_48KHZ),
  47:../../libDaisy/src/hid/audio.h ****           postgain(1.f),
  48:../../libDaisy/src/hid/audio.h ****           output_compensation(1.f)
  49:../../libDaisy/src/hid/audio.h ****         {
  50:../../libDaisy/src/hid/audio.h ****         }
  51:../../libDaisy/src/hid/audio.h ****     };
  52:../../libDaisy/src/hid/audio.h **** 
  53:../../libDaisy/src/hid/audio.h ****     enum class Result
  54:../../libDaisy/src/hid/audio.h ****     {
  55:../../libDaisy/src/hid/audio.h ****         OK,
  56:../../libDaisy/src/hid/audio.h ****         ERR,
  57:../../libDaisy/src/hid/audio.h ****     };
  58:../../libDaisy/src/hid/audio.h **** 
  59:../../libDaisy/src/hid/audio.h ****     /** Non-Interleaving input buffer
  60:../../libDaisy/src/hid/audio.h ****      * Buffer arranged by float[chn][sample] 
  61:../../libDaisy/src/hid/audio.h ****      * const so that the user can't modify the input
  62:../../libDaisy/src/hid/audio.h ****      */
  63:../../libDaisy/src/hid/audio.h ****     typedef const float* const* InputBuffer;
  64:../../libDaisy/src/hid/audio.h **** 
  65:../../libDaisy/src/hid/audio.h ****     /** Non-Interleaving output buffer
  66:../../libDaisy/src/hid/audio.h ****      * Arranged by float[chn][sample] 
  67:../../libDaisy/src/hid/audio.h ****      */
  68:../../libDaisy/src/hid/audio.h ****     typedef float** OutputBuffer;
  69:../../libDaisy/src/hid/audio.h **** 
  70:../../libDaisy/src/hid/audio.h ****     /** Type for a Non-Interleaving audio callback 
  71:../../libDaisy/src/hid/audio.h ****      * Non-Interleaving audio callbacks in daisy will be of this type
  72:../../libDaisy/src/hid/audio.h ****      */
  73:../../libDaisy/src/hid/audio.h ****     typedef void (*AudioCallback)(InputBuffer  in,
  74:../../libDaisy/src/hid/audio.h ****                                   OutputBuffer out,
ARM GAS  /var/folders/kw/h2sg8jtn02b91cpsjc1nlpg80000gn/T//cccUH3U8.s 			page 8


  75:../../libDaisy/src/hid/audio.h ****                                   size_t       size);
  76:../../libDaisy/src/hid/audio.h **** 
  77:../../libDaisy/src/hid/audio.h ****     /** Interleaving Input buffer
  78:../../libDaisy/src/hid/audio.h ****      ** audio is prepared as { L0, R0, L1, R1, . . . LN, RN }]
  79:../../libDaisy/src/hid/audio.h ****      ** this is const, as the user shouldn't modify it
  80:../../libDaisy/src/hid/audio.h ****     */
  81:../../libDaisy/src/hid/audio.h ****     typedef const float* InterleavingInputBuffer;
  82:../../libDaisy/src/hid/audio.h **** 
  83:../../libDaisy/src/hid/audio.h ****     /** Interleaving Output buffer 
  84:../../libDaisy/src/hid/audio.h ****      ** audio is prepared as { L0, R0, L1, R1, . . . LN, RN }
  85:../../libDaisy/src/hid/audio.h ****     */
  86:../../libDaisy/src/hid/audio.h ****     typedef float* InterleavingOutputBuffer;
  87:../../libDaisy/src/hid/audio.h **** 
  88:../../libDaisy/src/hid/audio.h ****     /** Interleaving Audio Callback 
  89:../../libDaisy/src/hid/audio.h ****      * Interleaving audio callbacks in daisy must be of this type
  90:../../libDaisy/src/hid/audio.h ****      */
  91:../../libDaisy/src/hid/audio.h ****     typedef void (*InterleavingAudioCallback)(InterleavingInputBuffer  in,
  92:../../libDaisy/src/hid/audio.h ****                                               InterleavingOutputBuffer out,
  93:../../libDaisy/src/hid/audio.h ****                                               size_t                   size);
  94:../../libDaisy/src/hid/audio.h **** 
  95:../../libDaisy/src/hid/audio.h ****     AudioHandle() : pimpl_(nullptr) {}
  96:../../libDaisy/src/hid/audio.h ****     ~AudioHandle() {}
  56              		.loc 5 96 5 is_stmt 1 view .LVU7
  57              		.loc 5 96 5 is_stmt 0 view .LVU8
  58              	.LBE304:
  59              		.loc 1 22 19 view .LVU9
  60 0000 7047     		bx	lr
  61              		.cfi_endproc
  62              	.LFE2556:
  64              		.weak	_ZN5daisy9DaisySeedD1Ev
  65              		.thumb_set _ZN5daisy9DaisySeedD1Ev,_ZN5daisy9DaisySeedD2Ev
  66 0002 00BF     		.section	.text._ZN7VASynthD2Ev,"axG",%progbits,_ZN7VASynthD5Ev,comdat
  67              		.align	1
  68              		.p2align 2,,3
  69              		.weak	_ZN7VASynthD2Ev
  70              		.syntax unified
  71              		.thumb
  72              		.thumb_func
  74              	_ZN7VASynthD2Ev:
  75              	.LVL1:
  76              	.LFB4851:
  77              		.file 6 "vasynth.h"
   1:vasynth.h     **** #pragma once
   2:vasynth.h     **** #ifndef DSY_VAVOICE_H
   3:vasynth.h     **** #define DSY_VAVOICE_H
   4:vasynth.h     **** 
   5:vasynth.h     **** #include "daisysp.h"
   6:vasynth.h     **** 
   7:vasynth.h     **** #include "main.h"
   8:vasynth.h     **** 
   9:vasynth.h     **** // preset
  10:vasynth.h     **** #define PRESET_MAX 2
  11:vasynth.h     **** 
  12:vasynth.h     **** // waveforms
  13:vasynth.h     **** #define WAVE_TRI 1
  14:vasynth.h     **** #define WAVE_SAW 2
  15:vasynth.h     **** #define WAVE_SQUARE 4
ARM GAS  /var/folders/kw/h2sg8jtn02b91cpsjc1nlpg80000gn/T//cccUH3U8.s 			page 9


  16:vasynth.h     **** #define WAVE_POLYBLEP_SAW 6 
  17:vasynth.h     **** 
  18:vasynth.h     **** using namespace daisy;
  19:vasynth.h     **** using namespace daisysp;
  20:vasynth.h     **** 
  21:vasynth.h     **** typedef struct
  22:vasynth.h     **** {
  23:vasynth.h     **** 	// config
  24:vasynth.h     **** 	uint8_t waveform;
  25:vasynth.h     **** 	float osc_mix;
  26:vasynth.h     **** 	float detune;
  27:vasynth.h     **** 	float osc_pw;
  28:vasynth.h     **** 
  29:vasynth.h     **** 	uint8_t osc2_waveform;
  30:vasynth.h     **** 	float osc2_detune;
  31:vasynth.h     **** 	float osc2_transpose;
  32:vasynth.h     **** 	float osc2_pw;
  33:vasynth.h     **** 	
  34:vasynth.h     **** 	float eg_a_attack;
  35:vasynth.h     **** 	float eg_a_decay;
  36:vasynth.h     **** 	float eg_a_sustain; // level
  37:vasynth.h     **** 	float eg_a_release;
  38:vasynth.h     **** 	float eg_f_attack;
  39:vasynth.h     **** 	float eg_f_decay;
  40:vasynth.h     **** 	float eg_f_sustain; // level
  41:vasynth.h     **** 	float eg_f_release;
  42:vasynth.h     **** 	
  43:vasynth.h     **** 	uint8_t lfo_waveform;
  44:vasynth.h     **** 	float lfo_freq;
  45:vasynth.h     **** 	float lfo_amp;
  46:vasynth.h     **** 
  47:vasynth.h     **** 	uint8_t pwmlfo_waveform;
  48:vasynth.h     **** 	float pwmlfo_freq;
  49:vasynth.h     **** 	float pwmlfo_amp;
  50:vasynth.h     **** 
  51:vasynth.h     **** 	uint8_t pwm2lfo_waveform;
  52:vasynth.h     **** 	float pwm2lfo_freq;
  53:vasynth.h     **** 	float pwm2lfo_amp;
  54:vasynth.h     **** 	
  55:vasynth.h     **** 	uint8_t vcavcflfo_waveform;
  56:vasynth.h     **** 	float vcavcflfo_freq;
  57:vasynth.h     **** 	float vcavcflfo_amp;
  58:vasynth.h     **** 
  59:vasynth.h     **** 	float vcf_kbd_follow;
  60:vasynth.h     **** 	float env_kbd_follow;
  61:vasynth.h     **** 
  62:vasynth.h     **** 	float filter_res;
  63:vasynth.h     **** 	float filter_cutoff;
  64:vasynth.h     **** 	float eg_f_amount;
  65:vasynth.h     **** 	uint8_t vel_select;
  66:vasynth.h     **** 	uint8_t midi_channel;
  67:vasynth.h     **** } VASynthSetting;
  68:vasynth.h     **** 
  69:vasynth.h     **** class VASynth
  70:vasynth.h     **** {
  71:vasynth.h     **** 	public:
  72:vasynth.h     **** 
ARM GAS  /var/folders/kw/h2sg8jtn02b91cpsjc1nlpg80000gn/T//cccUH3U8.s 			page 10


  73:vasynth.h     ****     VASynth() {}
  74:vasynth.h     ****     ~VASynth() {}
  78              		.loc 6 74 5 is_stmt 1 view -0
  79              		.cfi_startproc
  80              		@ args = 0, pretend = 0, frame = 0
  81              		@ frame_needed = 0, uses_anonymous_args = 0
  82              		@ link register save eliminated.
  83              	.LBB305:
  84              	.LBI305:
  85              		.file 7 "../../DaisySP/Source/Synthesis/oscillator.h"
   1:../../DaisySP/Source/Synthesis/oscillator.h **** /*
   2:../../DaisySP/Source/Synthesis/oscillator.h **** Copyright (c) 2020 Electrosmith, Corp
   3:../../DaisySP/Source/Synthesis/oscillator.h **** 
   4:../../DaisySP/Source/Synthesis/oscillator.h **** Use of this source code is governed by an MIT-style
   5:../../DaisySP/Source/Synthesis/oscillator.h **** license that can be found in the LICENSE file or at
   6:../../DaisySP/Source/Synthesis/oscillator.h **** https://opensource.org/licenses/MIT.
   7:../../DaisySP/Source/Synthesis/oscillator.h **** */
   8:../../DaisySP/Source/Synthesis/oscillator.h **** 
   9:../../DaisySP/Source/Synthesis/oscillator.h **** #pragma once
  10:../../DaisySP/Source/Synthesis/oscillator.h **** #ifndef DSY_OSCILLATOR_H
  11:../../DaisySP/Source/Synthesis/oscillator.h **** #define DSY_OSCILLATOR_H
  12:../../DaisySP/Source/Synthesis/oscillator.h **** #include <stdint.h>
  13:../../DaisySP/Source/Synthesis/oscillator.h **** #include "Utility/dsp.h"
  14:../../DaisySP/Source/Synthesis/oscillator.h **** #ifdef __cplusplus
  15:../../DaisySP/Source/Synthesis/oscillator.h **** 
  16:../../DaisySP/Source/Synthesis/oscillator.h **** namespace daisysp
  17:../../DaisySP/Source/Synthesis/oscillator.h **** {
  18:../../DaisySP/Source/Synthesis/oscillator.h **** /** Synthesis of several waveforms, including polyBLEP bandlimited waveforms.
  19:../../DaisySP/Source/Synthesis/oscillator.h **** */
  20:../../DaisySP/Source/Synthesis/oscillator.h **** class Oscillator
  21:../../DaisySP/Source/Synthesis/oscillator.h **** {
  22:../../DaisySP/Source/Synthesis/oscillator.h ****   public:
  23:../../DaisySP/Source/Synthesis/oscillator.h ****     Oscillator() {}
  24:../../DaisySP/Source/Synthesis/oscillator.h ****     ~Oscillator() {}
  86              		.loc 7 24 5 view .LVU11
  87              		.loc 7 24 5 is_stmt 0 view .LVU12
  88              	.LBE305:
  89              	.LBB306:
  90              	.LBI306:
  91              		.loc 7 24 5 is_stmt 1 view .LVU13
  92              		.loc 7 24 5 is_stmt 0 view .LVU14
  93              	.LBE306:
  94              	.LBB307:
  95              	.LBI307:
  96              		.loc 7 24 5 is_stmt 1 view .LVU15
  97              		.loc 7 24 5 is_stmt 0 view .LVU16
  98              	.LBE307:
  99              	.LBB308:
 100              	.LBI308:
 101              		.loc 7 24 5 is_stmt 1 view .LVU17
 102              		.loc 7 24 5 is_stmt 0 view .LVU18
 103              	.LBE308:
 104              		.loc 6 74 17 view .LVU19
 105 0000 7047     		bx	lr
 106              		.cfi_endproc
 107              	.LFE4851:
 109              		.weak	_ZN7VASynthD1Ev
ARM GAS  /var/folders/kw/h2sg8jtn02b91cpsjc1nlpg80000gn/T//cccUH3U8.s 			page 11


 110              		.thumb_set _ZN7VASynthD1Ev,_ZN7VASynthD2Ev
 111 0002 00BF     		.section	.text._ZN5daisy11MidiHandlerINS_16MidiUsbTransportEED2Ev,"axG",%progbits,_ZN5daisy11MidiH
 112              		.align	1
 113              		.p2align 2,,3
 114              		.weak	_ZN5daisy11MidiHandlerINS_16MidiUsbTransportEED2Ev
 115              		.syntax unified
 116              		.thumb
 117              		.thumb_func
 119              	_ZN5daisy11MidiHandlerINS_16MidiUsbTransportEED2Ev:
 120              	.LVL2:
 121              	.LFB5463:
 122              		.file 8 "../../libDaisy/src/hid/midi.h"
   1:../../libDaisy/src/hid/midi.h **** #pragma once
   2:../../libDaisy/src/hid/midi.h **** #ifndef DSY_MIDI_H
   3:../../libDaisy/src/hid/midi.h **** #define DSY_MIDI_H
   4:../../libDaisy/src/hid/midi.h **** 
   5:../../libDaisy/src/hid/midi.h **** #include <stdint.h>
   6:../../libDaisy/src/hid/midi.h **** #include <stdlib.h>
   7:../../libDaisy/src/hid/midi.h **** #include <algorithm>
   8:../../libDaisy/src/hid/midi.h **** #include "per/uart.h"
   9:../../libDaisy/src/hid/midi.h **** #include "util/ringbuffer.h"
  10:../../libDaisy/src/hid/midi.h **** #include "util/FIFO.h"
  11:../../libDaisy/src/hid/midi.h **** #include "hid/midi_parser.h"
  12:../../libDaisy/src/hid/midi.h **** #include "hid/usb_midi.h"
  13:../../libDaisy/src/hid/midi.h **** #include "sys/dma.h"
  14:../../libDaisy/src/hid/midi.h **** #include "sys/system.h"
  15:../../libDaisy/src/hid/midi.h **** 
  16:../../libDaisy/src/hid/midi.h **** namespace daisy
  17:../../libDaisy/src/hid/midi.h **** {
  18:../../libDaisy/src/hid/midi.h **** /** @brief   Transport layer for sending and receiving MIDI data over UART
  19:../../libDaisy/src/hid/midi.h ****  *  @details This is the mode of communication used for TRS and DIN MIDI
  20:../../libDaisy/src/hid/midi.h ****  *           There is an additional 2kB of RAM data used within this class
  21:../../libDaisy/src/hid/midi.h ****  *           for processing bulk data from the UART peripheral
  22:../../libDaisy/src/hid/midi.h ****  *  @ingroup midi
  23:../../libDaisy/src/hid/midi.h **** */
  24:../../libDaisy/src/hid/midi.h **** class MidiUartTransport
  25:../../libDaisy/src/hid/midi.h **** {
  26:../../libDaisy/src/hid/midi.h ****   public:
  27:../../libDaisy/src/hid/midi.h ****     typedef void (*MidiRxParseCallback)(uint8_t* data,
  28:../../libDaisy/src/hid/midi.h ****                                         size_t   size,
  29:../../libDaisy/src/hid/midi.h ****                                         void*    context);
  30:../../libDaisy/src/hid/midi.h **** 
  31:../../libDaisy/src/hid/midi.h ****     MidiUartTransport() {}
  32:../../libDaisy/src/hid/midi.h ****     ~MidiUartTransport() {}
  33:../../libDaisy/src/hid/midi.h **** 
  34:../../libDaisy/src/hid/midi.h ****     /** @brief Configuration structure for UART MIDI */
  35:../../libDaisy/src/hid/midi.h ****     struct Config
  36:../../libDaisy/src/hid/midi.h ****     {
  37:../../libDaisy/src/hid/midi.h ****         UartHandler::Config::Peripheral periph;
  38:../../libDaisy/src/hid/midi.h ****         dsy_gpio_pin                    rx;
  39:../../libDaisy/src/hid/midi.h ****         dsy_gpio_pin                    tx;
  40:../../libDaisy/src/hid/midi.h **** 
  41:../../libDaisy/src/hid/midi.h ****         /** Pointer to buffer for DMA UART rx byte transfer in background.
  42:../../libDaisy/src/hid/midi.h ****          *
  43:../../libDaisy/src/hid/midi.h ****          *  @details By default this uses a shared buffer in DMA_BUFFER_MEM_SECTION,
  44:../../libDaisy/src/hid/midi.h ****          *           which can only be utilized for a single UART peripheral. To
  45:../../libDaisy/src/hid/midi.h ****          *           use MIDI with multiple UART peripherals, you must provide your own
ARM GAS  /var/folders/kw/h2sg8jtn02b91cpsjc1nlpg80000gn/T//cccUH3U8.s 			page 12


  46:../../libDaisy/src/hid/midi.h ****          *           buffer, allocated to a DMA-capable memory section.
  47:../../libDaisy/src/hid/midi.h ****          */
  48:../../libDaisy/src/hid/midi.h ****         uint8_t* rx_buffer;
  49:../../libDaisy/src/hid/midi.h **** 
  50:../../libDaisy/src/hid/midi.h ****         /** Size in bytes of rx_buffer.
  51:../../libDaisy/src/hid/midi.h ****          *
  52:../../libDaisy/src/hid/midi.h ****          *  @details This size determines the maximum Rx bytes readable by the UART in the backgrou
  53:../../libDaisy/src/hid/midi.h ****          *           By default it's set to the size of the default shared rx_buffer (256 bytes).
  54:../../libDaisy/src/hid/midi.h ****          *           While much smaller sizes can be used, data can get missed if the buffer is too
  55:../../libDaisy/src/hid/midi.h ****          */
  56:../../libDaisy/src/hid/midi.h ****         size_t rx_buffer_size;
  57:../../libDaisy/src/hid/midi.h **** 
  58:../../libDaisy/src/hid/midi.h ****         Config();
  59:../../libDaisy/src/hid/midi.h ****     };
  60:../../libDaisy/src/hid/midi.h **** 
  61:../../libDaisy/src/hid/midi.h ****     /** @brief Initialization of UART using config struct */
  62:../../libDaisy/src/hid/midi.h ****     inline void Init(Config config)
  63:../../libDaisy/src/hid/midi.h ****     {
  64:../../libDaisy/src/hid/midi.h ****         UartHandler::Config uart_config;
  65:../../libDaisy/src/hid/midi.h **** 
  66:../../libDaisy/src/hid/midi.h ****         //defaults
  67:../../libDaisy/src/hid/midi.h ****         uart_config.baudrate   = 31250;
  68:../../libDaisy/src/hid/midi.h ****         uart_config.stopbits   = UartHandler::Config::StopBits::BITS_1;
  69:../../libDaisy/src/hid/midi.h ****         uart_config.parity     = UartHandler::Config::Parity::NONE;
  70:../../libDaisy/src/hid/midi.h ****         uart_config.mode       = UartHandler::Config::Mode::TX_RX;
  71:../../libDaisy/src/hid/midi.h ****         uart_config.wordlength = UartHandler::Config::WordLength::BITS_8;
  72:../../libDaisy/src/hid/midi.h **** 
  73:../../libDaisy/src/hid/midi.h ****         //user settings
  74:../../libDaisy/src/hid/midi.h ****         uart_config.periph        = config.periph;
  75:../../libDaisy/src/hid/midi.h ****         uart_config.pin_config.rx = config.rx;
  76:../../libDaisy/src/hid/midi.h ****         uart_config.pin_config.tx = config.tx;
  77:../../libDaisy/src/hid/midi.h **** 
  78:../../libDaisy/src/hid/midi.h ****         rx_buffer      = config.rx_buffer;
  79:../../libDaisy/src/hid/midi.h ****         rx_buffer_size = config.rx_buffer_size;
  80:../../libDaisy/src/hid/midi.h **** 
  81:../../libDaisy/src/hid/midi.h ****         /** zero the buffer to ensure emptiness regardless of source memory */
  82:../../libDaisy/src/hid/midi.h ****         std::fill(rx_buffer, rx_buffer + rx_buffer_size, 0);
  83:../../libDaisy/src/hid/midi.h **** 
  84:../../libDaisy/src/hid/midi.h ****         uart_.Init(uart_config);
  85:../../libDaisy/src/hid/midi.h ****     }
  86:../../libDaisy/src/hid/midi.h **** 
  87:../../libDaisy/src/hid/midi.h ****     /** @brief Start the UART peripheral in listening mode.
  88:../../libDaisy/src/hid/midi.h ****      *  This will fill an internal data structure in the background */
  89:../../libDaisy/src/hid/midi.h ****     inline void StartRx(MidiRxParseCallback parse_callback, void* context)
  90:../../libDaisy/src/hid/midi.h ****     {
  91:../../libDaisy/src/hid/midi.h ****         parse_context_  = context;
  92:../../libDaisy/src/hid/midi.h ****         parse_callback_ = parse_callback;
  93:../../libDaisy/src/hid/midi.h ****         dsy_dma_clear_cache_for_buffer((uint8_t*)this,
  94:../../libDaisy/src/hid/midi.h ****                                        sizeof(MidiUartTransport));
  95:../../libDaisy/src/hid/midi.h ****         uart_.DmaListenStart(
  96:../../libDaisy/src/hid/midi.h ****             rx_buffer, rx_buffer_size, MidiUartTransport::rxCallback, this);
  97:../../libDaisy/src/hid/midi.h ****     }
  98:../../libDaisy/src/hid/midi.h **** 
  99:../../libDaisy/src/hid/midi.h ****     /** @brief returns whether the UART peripheral is actively listening in the background or not *
 100:../../libDaisy/src/hid/midi.h ****     inline bool RxActive() { return uart_.IsListening(); }
 101:../../libDaisy/src/hid/midi.h **** 
 102:../../libDaisy/src/hid/midi.h ****     /** @brief This is a no-op for UART transport - Rx is via DMA callback with circular buffer */
ARM GAS  /var/folders/kw/h2sg8jtn02b91cpsjc1nlpg80000gn/T//cccUH3U8.s 			page 13


 103:../../libDaisy/src/hid/midi.h ****     inline void FlushRx() {}
 104:../../libDaisy/src/hid/midi.h **** 
 105:../../libDaisy/src/hid/midi.h ****     /** @brief sends the buffer of bytes out of the UART peripheral */
 106:../../libDaisy/src/hid/midi.h ****     inline void Tx(uint8_t* buff, size_t size) { uart_.PollTx(buff, size); }
 107:../../libDaisy/src/hid/midi.h **** 
 108:../../libDaisy/src/hid/midi.h ****   private:
 109:../../libDaisy/src/hid/midi.h ****     UartHandler         uart_;
 110:../../libDaisy/src/hid/midi.h ****     uint8_t*            rx_buffer;
 111:../../libDaisy/src/hid/midi.h ****     size_t              rx_buffer_size;
 112:../../libDaisy/src/hid/midi.h ****     void*               parse_context_;
 113:../../libDaisy/src/hid/midi.h ****     MidiRxParseCallback parse_callback_;
 114:../../libDaisy/src/hid/midi.h **** 
 115:../../libDaisy/src/hid/midi.h ****     /** Static callback for Uart MIDI that occurs when
 116:../../libDaisy/src/hid/midi.h ****          *  new data is available from the peripheral.
 117:../../libDaisy/src/hid/midi.h ****          *  The new data is transferred from the peripheral to the
 118:../../libDaisy/src/hid/midi.h ****          *  MIDI instance's byte FIFO that feeds the MIDI parser.
 119:../../libDaisy/src/hid/midi.h ****          *
 120:../../libDaisy/src/hid/midi.h ****          *  TODO: Handle UartHandler errors better/at all.
 121:../../libDaisy/src/hid/midi.h ****          *  (If there is a UART error, there's not really any recovery
 122:../../libDaisy/src/hid/midi.h ****          *  option at the moment)
 123:../../libDaisy/src/hid/midi.h ****          */
 124:../../libDaisy/src/hid/midi.h ****     static void rxCallback(uint8_t*            data,
 125:../../libDaisy/src/hid/midi.h ****                            size_t              size,
 126:../../libDaisy/src/hid/midi.h ****                            void*               context,
 127:../../libDaisy/src/hid/midi.h ****                            UartHandler::Result res)
 128:../../libDaisy/src/hid/midi.h ****     {
 129:../../libDaisy/src/hid/midi.h ****         /** Read context as transport type */
 130:../../libDaisy/src/hid/midi.h ****         MidiUartTransport* transport
 131:../../libDaisy/src/hid/midi.h ****             = reinterpret_cast<MidiUartTransport*>(context);
 132:../../libDaisy/src/hid/midi.h ****         if(res == UartHandler::Result::OK)
 133:../../libDaisy/src/hid/midi.h ****         {
 134:../../libDaisy/src/hid/midi.h ****             if(transport->parse_callback_)
 135:../../libDaisy/src/hid/midi.h ****             {
 136:../../libDaisy/src/hid/midi.h ****                 transport->parse_callback_(
 137:../../libDaisy/src/hid/midi.h ****                     data, size, transport->parse_context_);
 138:../../libDaisy/src/hid/midi.h ****             }
 139:../../libDaisy/src/hid/midi.h ****         }
 140:../../libDaisy/src/hid/midi.h ****     }
 141:../../libDaisy/src/hid/midi.h **** };
 142:../../libDaisy/src/hid/midi.h **** 
 143:../../libDaisy/src/hid/midi.h **** /**
 144:../../libDaisy/src/hid/midi.h ****     @brief Simple MIDI Handler \n
 145:../../libDaisy/src/hid/midi.h ****     Parses bytes from an input into valid MidiEvents. \n
 146:../../libDaisy/src/hid/midi.h ****     The MidiEvents fill a FIFO queue that the user can pop messages from.
 147:../../libDaisy/src/hid/midi.h ****     @author shensley
 148:../../libDaisy/src/hid/midi.h ****     @date March 2020
 149:../../libDaisy/src/hid/midi.h ****     @ingroup midi
 150:../../libDaisy/src/hid/midi.h **** */
 151:../../libDaisy/src/hid/midi.h **** template <typename Transport>
 152:../../libDaisy/src/hid/midi.h **** class MidiHandler
 153:../../libDaisy/src/hid/midi.h **** {
 154:../../libDaisy/src/hid/midi.h ****   public:
 155:../../libDaisy/src/hid/midi.h ****     MidiHandler() {}
 156:../../libDaisy/src/hid/midi.h ****     ~MidiHandler() {}
 123              		.loc 8 156 5 is_stmt 1 view -0
 124              		.cfi_startproc
 125              		@ args = 0, pretend = 0, frame = 0
ARM GAS  /var/folders/kw/h2sg8jtn02b91cpsjc1nlpg80000gn/T//cccUH3U8.s 			page 14


 126              		@ frame_needed = 0, uses_anonymous_args = 0
 127              		@ link register save eliminated.
 128              	.LBB309:
 129              	.LBI309:
 130              		.file 9 "../../libDaisy/src/util/FIFO.h"
   1:../../libDaisy/src/util/FIFO.h **** #pragma once
   2:../../libDaisy/src/util/FIFO.h **** 
   3:../../libDaisy/src/util/FIFO.h **** #include <stdint.h>
   4:../../libDaisy/src/util/FIFO.h **** #include <stddef.h>
   5:../../libDaisy/src/util/FIFO.h **** #include <initializer_list>
   6:../../libDaisy/src/util/FIFO.h **** 
   7:../../libDaisy/src/util/FIFO.h **** namespace daisy
   8:../../libDaisy/src/util/FIFO.h **** {
   9:../../libDaisy/src/util/FIFO.h **** /** Capacity-independent base class for FIFO. Use FIFO instead. */
  10:../../libDaisy/src/util/FIFO.h **** template <typename T>
  11:../../libDaisy/src/util/FIFO.h **** class FIFOBase
  12:../../libDaisy/src/util/FIFO.h **** {
  13:../../libDaisy/src/util/FIFO.h ****   protected:
  14:../../libDaisy/src/util/FIFO.h ****     FIFOBase(T* buffer, size_t bufferSize)
  15:../../libDaisy/src/util/FIFO.h ****     : buffer_(buffer), bufferSize_(bufferSize), bufferIn_(0), bufferOut_(0)
  16:../../libDaisy/src/util/FIFO.h ****     {
  17:../../libDaisy/src/util/FIFO.h ****     }
  18:../../libDaisy/src/util/FIFO.h **** 
  19:../../libDaisy/src/util/FIFO.h ****     FIFOBase(T* buffer, size_t bufferSize, std::initializer_list<T> valuesToAdd)
  20:../../libDaisy/src/util/FIFO.h ****     : buffer_(buffer), bufferSize_(bufferSize), bufferIn_(0), bufferOut_(0)
  21:../../libDaisy/src/util/FIFO.h ****     {
  22:../../libDaisy/src/util/FIFO.h ****         PushBack(valuesToAdd);
  23:../../libDaisy/src/util/FIFO.h ****     }
  24:../../libDaisy/src/util/FIFO.h **** 
  25:../../libDaisy/src/util/FIFO.h ****   public:
  26:../../libDaisy/src/util/FIFO.h ****     /** Copies all elements from another FIFO */
  27:../../libDaisy/src/util/FIFO.h ****     FIFOBase<T>& operator=(const FIFOBase<T>& other)
  28:../../libDaisy/src/util/FIFO.h ****     {
  29:../../libDaisy/src/util/FIFO.h ****         bufferIn_ = bufferOut_ = 0;
  30:../../libDaisy/src/util/FIFO.h ****         if(!other.IsEmpty())
  31:../../libDaisy/src/util/FIFO.h ****         {
  32:../../libDaisy/src/util/FIFO.h ****             int readPtr = other.bufferOut_;
  33:../../libDaisy/src/util/FIFO.h ****             while((readPtr != other.bufferIn_) && (bufferIn_ < bufferSize_))
  34:../../libDaisy/src/util/FIFO.h ****             {
  35:../../libDaisy/src/util/FIFO.h ****                 buffer_[bufferIn_++] = other.buffer_[readPtr++];
  36:../../libDaisy/src/util/FIFO.h ****                 if(readPtr >= other.bufferSize_)
  37:../../libDaisy/src/util/FIFO.h ****                     readPtr -= other.bufferSize_;
  38:../../libDaisy/src/util/FIFO.h ****             }
  39:../../libDaisy/src/util/FIFO.h ****         }
  40:../../libDaisy/src/util/FIFO.h ****         return *this;
  41:../../libDaisy/src/util/FIFO.h ****     }
  42:../../libDaisy/src/util/FIFO.h ****     ~FIFOBase() {}
  43:../../libDaisy/src/util/FIFO.h **** 
  44:../../libDaisy/src/util/FIFO.h ****     /** Removes all elements from the FIFO */
  45:../../libDaisy/src/util/FIFO.h ****     void Clear() { bufferIn_ = bufferOut_ = 0; }
  46:../../libDaisy/src/util/FIFO.h **** 
  47:../../libDaisy/src/util/FIFO.h ****     /** Adds an element to the back of the buffer, returning true on
  48:../../libDaisy/src/util/FIFO.h ****         success */
  49:../../libDaisy/src/util/FIFO.h ****     bool PushBack(const T& elementToAdd)
  50:../../libDaisy/src/util/FIFO.h ****     {
  51:../../libDaisy/src/util/FIFO.h ****         if(!IsFull())
  52:../../libDaisy/src/util/FIFO.h ****         {
ARM GAS  /var/folders/kw/h2sg8jtn02b91cpsjc1nlpg80000gn/T//cccUH3U8.s 			page 15


  53:../../libDaisy/src/util/FIFO.h ****             buffer_[bufferIn_++] = elementToAdd;
  54:../../libDaisy/src/util/FIFO.h ****             if(bufferIn_ >= bufferSize_)
  55:../../libDaisy/src/util/FIFO.h ****                 bufferIn_ -= bufferSize_;
  56:../../libDaisy/src/util/FIFO.h ****             return true;
  57:../../libDaisy/src/util/FIFO.h ****         }
  58:../../libDaisy/src/util/FIFO.h ****         return false;
  59:../../libDaisy/src/util/FIFO.h ****     }
  60:../../libDaisy/src/util/FIFO.h **** 
  61:../../libDaisy/src/util/FIFO.h ****     /** Adds multiple elements and returns the number of elements that were added */
  62:../../libDaisy/src/util/FIFO.h ****     int PushBack(std::initializer_list<T> valuesToAdd)
  63:../../libDaisy/src/util/FIFO.h ****     {
  64:../../libDaisy/src/util/FIFO.h ****         int numAdded = 0;
  65:../../libDaisy/src/util/FIFO.h ****         for(const auto& v : valuesToAdd)
  66:../../libDaisy/src/util/FIFO.h ****         {
  67:../../libDaisy/src/util/FIFO.h ****             if(IsFull())
  68:../../libDaisy/src/util/FIFO.h ****                 return numAdded;
  69:../../libDaisy/src/util/FIFO.h **** 
  70:../../libDaisy/src/util/FIFO.h ****             PushBack(v);
  71:../../libDaisy/src/util/FIFO.h ****             numAdded++;
  72:../../libDaisy/src/util/FIFO.h ****         }
  73:../../libDaisy/src/util/FIFO.h ****         return numAdded;
  74:../../libDaisy/src/util/FIFO.h ****     }
  75:../../libDaisy/src/util/FIFO.h **** 
  76:../../libDaisy/src/util/FIFO.h ****     /** returns a reference to the last element */
  77:../../libDaisy/src/util/FIFO.h ****     T& Back()
  78:../../libDaisy/src/util/FIFO.h ****     {
  79:../../libDaisy/src/util/FIFO.h ****         if(IsEmpty())
  80:../../libDaisy/src/util/FIFO.h ****             // invalid, but better not pass a temporary T() object as a reference...
  81:../../libDaisy/src/util/FIFO.h ****             return buffer_[0];
  82:../../libDaisy/src/util/FIFO.h ****         int idx = bufferIn_ - 1;
  83:../../libDaisy/src/util/FIFO.h ****         if(idx < 0)
  84:../../libDaisy/src/util/FIFO.h ****             idx += bufferSize_;
  85:../../libDaisy/src/util/FIFO.h ****         return buffer_[idx];
  86:../../libDaisy/src/util/FIFO.h ****     }
  87:../../libDaisy/src/util/FIFO.h **** 
  88:../../libDaisy/src/util/FIFO.h ****     /** returns a reference to the last element */
  89:../../libDaisy/src/util/FIFO.h ****     const T& Back() const
  90:../../libDaisy/src/util/FIFO.h ****     {
  91:../../libDaisy/src/util/FIFO.h ****         if(IsEmpty())
  92:../../libDaisy/src/util/FIFO.h ****             // invalid, but better not pass a temporary T() object as a reference...
  93:../../libDaisy/src/util/FIFO.h ****             return buffer_[0];
  94:../../libDaisy/src/util/FIFO.h ****         int idx = bufferIn_ - 1;
  95:../../libDaisy/src/util/FIFO.h ****         if(idx < 0)
  96:../../libDaisy/src/util/FIFO.h ****             idx += bufferSize_;
  97:../../libDaisy/src/util/FIFO.h ****         return buffer_[idx];
  98:../../libDaisy/src/util/FIFO.h ****     }
  99:../../libDaisy/src/util/FIFO.h **** 
 100:../../libDaisy/src/util/FIFO.h ****     /** removes and returns an element from the front of the buffer */
 101:../../libDaisy/src/util/FIFO.h ****     T PopFront()
 102:../../libDaisy/src/util/FIFO.h ****     {
 103:../../libDaisy/src/util/FIFO.h ****         if(IsEmpty())
 104:../../libDaisy/src/util/FIFO.h ****             return T();
 105:../../libDaisy/src/util/FIFO.h ****         else
 106:../../libDaisy/src/util/FIFO.h ****         {
 107:../../libDaisy/src/util/FIFO.h ****             const auto result = buffer_[bufferOut_];
 108:../../libDaisy/src/util/FIFO.h ****             bufferOut_++;
 109:../../libDaisy/src/util/FIFO.h ****             if(bufferOut_ >= bufferSize_)
ARM GAS  /var/folders/kw/h2sg8jtn02b91cpsjc1nlpg80000gn/T//cccUH3U8.s 			page 16


 110:../../libDaisy/src/util/FIFO.h ****                 bufferOut_ -= bufferSize_;
 111:../../libDaisy/src/util/FIFO.h ****             return result;
 112:../../libDaisy/src/util/FIFO.h ****         }
 113:../../libDaisy/src/util/FIFO.h ****     }
 114:../../libDaisy/src/util/FIFO.h **** 
 115:../../libDaisy/src/util/FIFO.h ****     /** returns a copy of the first element */
 116:../../libDaisy/src/util/FIFO.h ****     T& Front()
 117:../../libDaisy/src/util/FIFO.h ****     {
 118:../../libDaisy/src/util/FIFO.h ****         if(IsEmpty())
 119:../../libDaisy/src/util/FIFO.h ****             // invalid, but better not pass a temporary T() object as a reference...
 120:../../libDaisy/src/util/FIFO.h ****             return buffer_[0];
 121:../../libDaisy/src/util/FIFO.h ****         return buffer_[bufferOut_];
 122:../../libDaisy/src/util/FIFO.h ****     }
 123:../../libDaisy/src/util/FIFO.h **** 
 124:../../libDaisy/src/util/FIFO.h ****     /** returns a reference to the first element */
 125:../../libDaisy/src/util/FIFO.h ****     const T& Front() const
 126:../../libDaisy/src/util/FIFO.h ****     {
 127:../../libDaisy/src/util/FIFO.h ****         if(IsEmpty())
 128:../../libDaisy/src/util/FIFO.h ****             // invalid, but better not pass a temporary T() object as a reference...
 129:../../libDaisy/src/util/FIFO.h ****             return buffer_[0];
 130:../../libDaisy/src/util/FIFO.h ****         return buffer_[bufferOut_];
 131:../../libDaisy/src/util/FIFO.h ****     }
 132:../../libDaisy/src/util/FIFO.h **** 
 133:../../libDaisy/src/util/FIFO.h ****     /** Returns true if the buffer contains an element equal to the provided value */
 134:../../libDaisy/src/util/FIFO.h ****     bool Contains(const T& element)
 135:../../libDaisy/src/util/FIFO.h ****     {
 136:../../libDaisy/src/util/FIFO.h ****         auto idx = bufferOut_;
 137:../../libDaisy/src/util/FIFO.h ****         while(idx != bufferIn_)
 138:../../libDaisy/src/util/FIFO.h ****         {
 139:../../libDaisy/src/util/FIFO.h ****             if(buffer_[idx] == element)
 140:../../libDaisy/src/util/FIFO.h ****                 return true;
 141:../../libDaisy/src/util/FIFO.h ****             idx++;
 142:../../libDaisy/src/util/FIFO.h ****             if(idx >= bufferSize_)
 143:../../libDaisy/src/util/FIFO.h ****                 idx -= bufferSize_;
 144:../../libDaisy/src/util/FIFO.h ****         }
 145:../../libDaisy/src/util/FIFO.h ****         return false;
 146:../../libDaisy/src/util/FIFO.h ****     }
 147:../../libDaisy/src/util/FIFO.h **** 
 148:../../libDaisy/src/util/FIFO.h ****     /** Returns the number of elements in the buffer that are equal to the provided value */
 149:../../libDaisy/src/util/FIFO.h ****     size_t CountEqualTo(const T& element)
 150:../../libDaisy/src/util/FIFO.h ****     {
 151:../../libDaisy/src/util/FIFO.h ****         size_t result = 0;
 152:../../libDaisy/src/util/FIFO.h ****         size_t idx    = bufferOut_;
 153:../../libDaisy/src/util/FIFO.h ****         while(idx != bufferIn_)
 154:../../libDaisy/src/util/FIFO.h ****         {
 155:../../libDaisy/src/util/FIFO.h ****             if(buffer_[idx] == element)
 156:../../libDaisy/src/util/FIFO.h ****                 result++;
 157:../../libDaisy/src/util/FIFO.h ****             idx++;
 158:../../libDaisy/src/util/FIFO.h ****             if(idx >= bufferSize_)
 159:../../libDaisy/src/util/FIFO.h ****                 idx -= bufferSize_;
 160:../../libDaisy/src/util/FIFO.h ****         }
 161:../../libDaisy/src/util/FIFO.h ****         return result;
 162:../../libDaisy/src/util/FIFO.h ****     }
 163:../../libDaisy/src/util/FIFO.h **** 
 164:../../libDaisy/src/util/FIFO.h ****     /** returns true, if the buffer is empty */
 165:../../libDaisy/src/util/FIFO.h ****     bool IsEmpty() const { return bufferIn_ == bufferOut_; }
 166:../../libDaisy/src/util/FIFO.h **** 
ARM GAS  /var/folders/kw/h2sg8jtn02b91cpsjc1nlpg80000gn/T//cccUH3U8.s 			page 17


 167:../../libDaisy/src/util/FIFO.h ****     /** returns true, if the buffer is Full */
 168:../../libDaisy/src/util/FIFO.h ****     bool IsFull() const { return GetNumElements() == bufferSize_ - 1; }
 169:../../libDaisy/src/util/FIFO.h **** 
 170:../../libDaisy/src/util/FIFO.h ****     /** returns the number of elements in the buffer */
 171:../../libDaisy/src/util/FIFO.h ****     size_t GetNumElements() const
 172:../../libDaisy/src/util/FIFO.h ****     {
 173:../../libDaisy/src/util/FIFO.h ****         int32_t numElements = bufferIn_ - bufferOut_;
 174:../../libDaisy/src/util/FIFO.h ****         if(numElements < 0)
 175:../../libDaisy/src/util/FIFO.h ****             numElements += bufferSize_;
 176:../../libDaisy/src/util/FIFO.h ****         return size_t(numElements);
 177:../../libDaisy/src/util/FIFO.h ****     }
 178:../../libDaisy/src/util/FIFO.h **** 
 179:../../libDaisy/src/util/FIFO.h ****     /** inserts an element "idx" positions behind the first element and returns true if successful 
 180:../../libDaisy/src/util/FIFO.h ****     bool Insert(size_t idx, const T& element)
 181:../../libDaisy/src/util/FIFO.h ****     {
 182:../../libDaisy/src/util/FIFO.h ****         if(idx > GetNumElements())
 183:../../libDaisy/src/util/FIFO.h ****             return false;
 184:../../libDaisy/src/util/FIFO.h ****         if(IsFull())
 185:../../libDaisy/src/util/FIFO.h ****             return false;
 186:../../libDaisy/src/util/FIFO.h ****         if(idx == GetNumElements())
 187:../../libDaisy/src/util/FIFO.h ****         {
 188:../../libDaisy/src/util/FIFO.h ****             PushBack(element);
 189:../../libDaisy/src/util/FIFO.h ****             return true;
 190:../../libDaisy/src/util/FIFO.h ****         }
 191:../../libDaisy/src/util/FIFO.h ****         // copy last element
 192:../../libDaisy/src/util/FIFO.h ****         PushBack(Back());
 193:../../libDaisy/src/util/FIFO.h ****         // move remaining elements: n => n+1
 194:../../libDaisy/src/util/FIFO.h ****         for(int i = GetNumElements() - 2; i > int(idx); i--)
 195:../../libDaisy/src/util/FIFO.h ****             (*this)[i] = (*this)[i - 1];
 196:../../libDaisy/src/util/FIFO.h ****         // insert element
 197:../../libDaisy/src/util/FIFO.h ****         (*this)[idx] = element;
 198:../../libDaisy/src/util/FIFO.h ****         return true;
 199:../../libDaisy/src/util/FIFO.h ****     }
 200:../../libDaisy/src/util/FIFO.h **** 
 201:../../libDaisy/src/util/FIFO.h ****     /** removes the element "idx" positions behind the first element 
 202:../../libDaisy/src/util/FIFO.h ****      *  and returns true if successful */
 203:../../libDaisy/src/util/FIFO.h ****     bool Remove(size_t idx)
 204:../../libDaisy/src/util/FIFO.h ****     {
 205:../../libDaisy/src/util/FIFO.h ****         if(idx >= GetNumElements())
 206:../../libDaisy/src/util/FIFO.h ****             return false;
 207:../../libDaisy/src/util/FIFO.h **** 
 208:../../libDaisy/src/util/FIFO.h ****         size_t index = bufferOut_ + idx;
 209:../../libDaisy/src/util/FIFO.h ****         if(index >= bufferSize_)
 210:../../libDaisy/src/util/FIFO.h ****             index -= bufferSize_;
 211:../../libDaisy/src/util/FIFO.h ****         size_t nextIndex = index + 1;
 212:../../libDaisy/src/util/FIFO.h ****         if(nextIndex >= bufferSize_)
 213:../../libDaisy/src/util/FIFO.h ****             nextIndex -= bufferSize_;
 214:../../libDaisy/src/util/FIFO.h **** 
 215:../../libDaisy/src/util/FIFO.h ****         while(nextIndex != bufferIn_)
 216:../../libDaisy/src/util/FIFO.h ****         {
 217:../../libDaisy/src/util/FIFO.h ****             buffer_[index] = buffer_[nextIndex];
 218:../../libDaisy/src/util/FIFO.h ****             index++;
 219:../../libDaisy/src/util/FIFO.h ****             nextIndex++;
 220:../../libDaisy/src/util/FIFO.h ****             if(index >= bufferSize_)
 221:../../libDaisy/src/util/FIFO.h ****                 index -= bufferSize_;
 222:../../libDaisy/src/util/FIFO.h ****             if(nextIndex >= bufferSize_)
 223:../../libDaisy/src/util/FIFO.h ****                 nextIndex -= bufferSize_;
ARM GAS  /var/folders/kw/h2sg8jtn02b91cpsjc1nlpg80000gn/T//cccUH3U8.s 			page 18


 224:../../libDaisy/src/util/FIFO.h ****         }
 225:../../libDaisy/src/util/FIFO.h **** 
 226:../../libDaisy/src/util/FIFO.h ****         int32_t nextBufferIn = int32_t(bufferIn_) - 1;
 227:../../libDaisy/src/util/FIFO.h ****         if(nextBufferIn < 0)
 228:../../libDaisy/src/util/FIFO.h ****             nextBufferIn += bufferSize_;
 229:../../libDaisy/src/util/FIFO.h ****         bufferIn_ = size_t(nextBufferIn);
 230:../../libDaisy/src/util/FIFO.h **** 
 231:../../libDaisy/src/util/FIFO.h ****         return true;
 232:../../libDaisy/src/util/FIFO.h ****     }
 233:../../libDaisy/src/util/FIFO.h **** 
 234:../../libDaisy/src/util/FIFO.h ****     /** removes all elements from the buffer for which
 235:../../libDaisy/src/util/FIFO.h ****         (buffer(index) == element) returns true and returns the number of
 236:../../libDaisy/src/util/FIFO.h ****         elements that were removed. */
 237:../../libDaisy/src/util/FIFO.h ****     size_t RemoveAllEqualTo(const T& element)
 238:../../libDaisy/src/util/FIFO.h ****     {
 239:../../libDaisy/src/util/FIFO.h ****         size_t numRemoved = 0;
 240:../../libDaisy/src/util/FIFO.h ****         int    idx        = GetNumElements() - 1;
 241:../../libDaisy/src/util/FIFO.h ****         while(idx >= 0)
 242:../../libDaisy/src/util/FIFO.h ****         {
 243:../../libDaisy/src/util/FIFO.h ****             if((*this)[idx] == element)
 244:../../libDaisy/src/util/FIFO.h ****             {
 245:../../libDaisy/src/util/FIFO.h ****                 numRemoved++;
 246:../../libDaisy/src/util/FIFO.h ****                 Remove(idx);
 247:../../libDaisy/src/util/FIFO.h ****                 // was that the last element?
 248:../../libDaisy/src/util/FIFO.h ****                 if(idx == int(GetNumElements()) - 1)
 249:../../libDaisy/src/util/FIFO.h ****                     idx--;
 250:../../libDaisy/src/util/FIFO.h ****             }
 251:../../libDaisy/src/util/FIFO.h ****             else
 252:../../libDaisy/src/util/FIFO.h ****                 idx--;
 253:../../libDaisy/src/util/FIFO.h ****         }
 254:../../libDaisy/src/util/FIFO.h ****         return numRemoved;
 255:../../libDaisy/src/util/FIFO.h ****     }
 256:../../libDaisy/src/util/FIFO.h **** 
 257:../../libDaisy/src/util/FIFO.h ****     /** returns the element "idx" positions behind the first element */
 258:../../libDaisy/src/util/FIFO.h ****     T& operator[](size_t idx)
 259:../../libDaisy/src/util/FIFO.h ****     {
 260:../../libDaisy/src/util/FIFO.h ****         if(idx >= GetNumElements())
 261:../../libDaisy/src/util/FIFO.h ****             // invalid, but better not pass a temporary T() object as a reference...
 262:../../libDaisy/src/util/FIFO.h ****             return buffer_[0];
 263:../../libDaisy/src/util/FIFO.h **** 
 264:../../libDaisy/src/util/FIFO.h ****         size_t index = bufferOut_ + idx;
 265:../../libDaisy/src/util/FIFO.h ****         if(index >= bufferSize_)
 266:../../libDaisy/src/util/FIFO.h ****             index -= bufferSize_;
 267:../../libDaisy/src/util/FIFO.h ****         return buffer_[index];
 268:../../libDaisy/src/util/FIFO.h ****     }
 269:../../libDaisy/src/util/FIFO.h **** 
 270:../../libDaisy/src/util/FIFO.h ****     /** returns the element "idx" positions behind the first element */
 271:../../libDaisy/src/util/FIFO.h ****     const T& operator[](size_t idx) const
 272:../../libDaisy/src/util/FIFO.h ****     {
 273:../../libDaisy/src/util/FIFO.h ****         if(idx >= GetNumElements())
 274:../../libDaisy/src/util/FIFO.h ****             // invalid, but better not pass a temporary T() object as a reference...
 275:../../libDaisy/src/util/FIFO.h ****             return buffer_[0];
 276:../../libDaisy/src/util/FIFO.h **** 
 277:../../libDaisy/src/util/FIFO.h ****         size_t index = bufferOut_ + idx;
 278:../../libDaisy/src/util/FIFO.h ****         if(index >= bufferSize_)
 279:../../libDaisy/src/util/FIFO.h ****             index -= bufferSize_;
 280:../../libDaisy/src/util/FIFO.h ****         return buffer_[index];
ARM GAS  /var/folders/kw/h2sg8jtn02b91cpsjc1nlpg80000gn/T//cccUH3U8.s 			page 19


 281:../../libDaisy/src/util/FIFO.h ****     }
 282:../../libDaisy/src/util/FIFO.h **** 
 283:../../libDaisy/src/util/FIFO.h ****     /** returns the total capacity */
 284:../../libDaisy/src/util/FIFO.h ****     size_t GetCapacity() const { return bufferSize_ - 1; }
 285:../../libDaisy/src/util/FIFO.h **** 
 286:../../libDaisy/src/util/FIFO.h ****   private:
 287:../../libDaisy/src/util/FIFO.h ****     FIFOBase(const FIFOBase<T>&) {} // non copyable
 288:../../libDaisy/src/util/FIFO.h **** 
 289:../../libDaisy/src/util/FIFO.h ****   private:
 290:../../libDaisy/src/util/FIFO.h ****     T*           buffer_;
 291:../../libDaisy/src/util/FIFO.h ****     const size_t bufferSize_;
 292:../../libDaisy/src/util/FIFO.h ****     size_t       bufferIn_;
 293:../../libDaisy/src/util/FIFO.h ****     size_t       bufferOut_;
 294:../../libDaisy/src/util/FIFO.h **** };
 295:../../libDaisy/src/util/FIFO.h **** 
 296:../../libDaisy/src/util/FIFO.h **** /** A simple FIFO ring buffer with a fixed size. */
 297:../../libDaisy/src/util/FIFO.h **** template <typename T, size_t capacity>
 298:../../libDaisy/src/util/FIFO.h **** class FIFO : public FIFOBase<T>
 131              		.loc 9 298 7 view .LVU21
 132              	.LBB310:
 133              	.LBI310:
  42:../../libDaisy/src/util/FIFO.h **** 
 134              		.loc 9 42 5 view .LVU22
  42:../../libDaisy/src/util/FIFO.h **** 
 135              		.loc 9 42 5 is_stmt 0 view .LVU23
 136              	.LBE310:
 137              	.LBE309:
 138              	.LBB311:
 139              	.LBI311:
 140              		.file 10 "../../libDaisy/src/hid/midi_parser.h"
   1:../../libDaisy/src/hid/midi_parser.h **** #pragma once
   2:../../libDaisy/src/hid/midi_parser.h **** #ifndef DSY_MIDI_PARSER_H
   3:../../libDaisy/src/hid/midi_parser.h **** #define DSY_MIDI_PARSER_H
   4:../../libDaisy/src/hid/midi_parser.h **** 
   5:../../libDaisy/src/hid/midi_parser.h **** #include <stdint.h>
   6:../../libDaisy/src/hid/midi_parser.h **** #include <stdlib.h>
   7:../../libDaisy/src/hid/midi_parser.h **** #include "hid/MidiEvent.h"
   8:../../libDaisy/src/hid/midi_parser.h **** 
   9:../../libDaisy/src/hid/midi_parser.h **** namespace daisy
  10:../../libDaisy/src/hid/midi_parser.h **** {
  11:../../libDaisy/src/hid/midi_parser.h **** /** @brief   Utility class for parsing raw byte streams into MIDI messages
  12:../../libDaisy/src/hid/midi_parser.h ****  *  @details Implemented as a state machine designed to parse one byte at a time
  13:../../libDaisy/src/hid/midi_parser.h ****  *  @ingroup midi
  14:../../libDaisy/src/hid/midi_parser.h ****  */
  15:../../libDaisy/src/hid/midi_parser.h **** class MidiParser
  16:../../libDaisy/src/hid/midi_parser.h **** {
  17:../../libDaisy/src/hid/midi_parser.h ****   public:
  18:../../libDaisy/src/hid/midi_parser.h ****     MidiParser(){};
  19:../../libDaisy/src/hid/midi_parser.h ****     ~MidiParser() {}
 141              		.loc 10 19 5 is_stmt 1 view .LVU24
 142              		.loc 10 19 5 is_stmt 0 view .LVU25
 143              	.LBE311:
 144              	.LBB312:
 145              	.LBI312:
 146              		.file 11 "../../libDaisy/src/hid/usb_midi.h"
   1:../../libDaisy/src/hid/usb_midi.h **** #pragma once
   2:../../libDaisy/src/hid/usb_midi.h **** #ifndef __DSY_MIDIUSBTRANSPORT_H__
ARM GAS  /var/folders/kw/h2sg8jtn02b91cpsjc1nlpg80000gn/T//cccUH3U8.s 			page 20


   3:../../libDaisy/src/hid/usb_midi.h **** #define __DSY_MIDIUSBTRANSPORT_H__
   4:../../libDaisy/src/hid/usb_midi.h **** 
   5:../../libDaisy/src/hid/usb_midi.h **** #include "hid/usb.h"
   6:../../libDaisy/src/hid/usb_midi.h **** #include "sys/system.h"
   7:../../libDaisy/src/hid/usb_midi.h **** #include "util/ringbuffer.h"
   8:../../libDaisy/src/hid/usb_midi.h **** 
   9:../../libDaisy/src/hid/usb_midi.h **** namespace daisy
  10:../../libDaisy/src/hid/usb_midi.h **** {
  11:../../libDaisy/src/hid/usb_midi.h **** /** @brief USB Transport for MIDI
  12:../../libDaisy/src/hid/usb_midi.h ****  *  @ingroup midi
  13:../../libDaisy/src/hid/usb_midi.h ****  */
  14:../../libDaisy/src/hid/usb_midi.h **** class MidiUsbTransport
  15:../../libDaisy/src/hid/usb_midi.h **** {
  16:../../libDaisy/src/hid/usb_midi.h ****   public:
  17:../../libDaisy/src/hid/usb_midi.h ****     typedef void (*MidiRxParseCallback)(uint8_t* data,
  18:../../libDaisy/src/hid/usb_midi.h ****                                         size_t   size,
  19:../../libDaisy/src/hid/usb_midi.h ****                                         void*    context);
  20:../../libDaisy/src/hid/usb_midi.h **** 
  21:../../libDaisy/src/hid/usb_midi.h ****     struct Config
  22:../../libDaisy/src/hid/usb_midi.h ****     {
  23:../../libDaisy/src/hid/usb_midi.h ****         enum Periph
  24:../../libDaisy/src/hid/usb_midi.h ****         {
  25:../../libDaisy/src/hid/usb_midi.h ****             INTERNAL = 0,
  26:../../libDaisy/src/hid/usb_midi.h ****             EXTERNAL
  27:../../libDaisy/src/hid/usb_midi.h ****         };
  28:../../libDaisy/src/hid/usb_midi.h **** 
  29:../../libDaisy/src/hid/usb_midi.h ****         Periph periph;
  30:../../libDaisy/src/hid/usb_midi.h **** 
  31:../../libDaisy/src/hid/usb_midi.h ****         /**
  32:../../libDaisy/src/hid/usb_midi.h ****          * When sending MIDI messages immediately back-to-back in user code,
  33:../../libDaisy/src/hid/usb_midi.h ****          * sometimes the USB CDC driver is still "busy".
  34:../../libDaisy/src/hid/usb_midi.h ****          *
  35:../../libDaisy/src/hid/usb_midi.h ****          * This option configures the number of times to retry a Tx after
  36:../../libDaisy/src/hid/usb_midi.h ****          * delaying for 100 microseconds (default = 3 retries).
  37:../../libDaisy/src/hid/usb_midi.h ****          *
  38:../../libDaisy/src/hid/usb_midi.h ****          * If you set this to zero, Tx will not retry so the attempt will block
  39:../../libDaisy/src/hid/usb_midi.h ****          * for slightly less time, but transmit can fail if the Tx state is busy.
  40:../../libDaisy/src/hid/usb_midi.h ****          */
  41:../../libDaisy/src/hid/usb_midi.h ****         uint8_t tx_retry_count;
  42:../../libDaisy/src/hid/usb_midi.h **** 
  43:../../libDaisy/src/hid/usb_midi.h ****         Config() : periph(INTERNAL), tx_retry_count(3) {}
  44:../../libDaisy/src/hid/usb_midi.h ****     };
  45:../../libDaisy/src/hid/usb_midi.h **** 
  46:../../libDaisy/src/hid/usb_midi.h ****     void Init(Config config);
  47:../../libDaisy/src/hid/usb_midi.h **** 
  48:../../libDaisy/src/hid/usb_midi.h ****     void StartRx(MidiRxParseCallback callback, void* context);
  49:../../libDaisy/src/hid/usb_midi.h ****     bool RxActive();
  50:../../libDaisy/src/hid/usb_midi.h ****     void FlushRx();
  51:../../libDaisy/src/hid/usb_midi.h ****     void Tx(uint8_t* buffer, size_t size);
  52:../../libDaisy/src/hid/usb_midi.h **** 
  53:../../libDaisy/src/hid/usb_midi.h ****     class Impl;
  54:../../libDaisy/src/hid/usb_midi.h **** 
  55:../../libDaisy/src/hid/usb_midi.h ****     MidiUsbTransport() : pimpl_(nullptr) {}
  56:../../libDaisy/src/hid/usb_midi.h ****     ~MidiUsbTransport() {}
 147              		.loc 11 56 5 is_stmt 1 view .LVU26
 148              		.loc 11 56 5 is_stmt 0 view .LVU27
 149              	.LBE312:
ARM GAS  /var/folders/kw/h2sg8jtn02b91cpsjc1nlpg80000gn/T//cccUH3U8.s 			page 21


 150              		.loc 8 156 21 view .LVU28
 151 0000 7047     		bx	lr
 152              		.cfi_endproc
 153              	.LFE5463:
 155              		.weak	_ZN5daisy11MidiHandlerINS_16MidiUsbTransportEED1Ev
 156              		.thumb_set _ZN5daisy11MidiHandlerINS_16MidiUsbTransportEED1Ev,_ZN5daisy11MidiHandlerINS_16MidiUsbT
 157 0002 00BF     		.section	.text._ZN7daisysp9DelayLineIfLj48000EED2Ev,"axG",%progbits,_ZN7daisysp9DelayLineIfLj48000
 158              		.align	1
 159              		.p2align 2,,3
 160              		.weak	_ZN7daisysp9DelayLineIfLj48000EED2Ev
 161              		.syntax unified
 162              		.thumb
 163              		.thumb_func
 165              	_ZN7daisysp9DelayLineIfLj48000EED2Ev:
 166              	.LVL3:
 167              	.LFB5466:
 168              		.file 12 "../../DaisySP/Source/Utility/delayline.h"
   1:../../DaisySP/Source/Utility/delayline.h **** /*
   2:../../DaisySP/Source/Utility/delayline.h **** Copyright (c) 2020 Electrosmith, Corp
   3:../../DaisySP/Source/Utility/delayline.h **** 
   4:../../DaisySP/Source/Utility/delayline.h **** Use of this source code is governed by an MIT-style
   5:../../DaisySP/Source/Utility/delayline.h **** license that can be found in the LICENSE file or at
   6:../../DaisySP/Source/Utility/delayline.h **** https://opensource.org/licenses/MIT.
   7:../../DaisySP/Source/Utility/delayline.h **** */
   8:../../DaisySP/Source/Utility/delayline.h **** 
   9:../../DaisySP/Source/Utility/delayline.h **** #pragma once
  10:../../DaisySP/Source/Utility/delayline.h **** #ifndef DSY_DELAY_H
  11:../../DaisySP/Source/Utility/delayline.h **** #define DSY_DELAY_H
  12:../../DaisySP/Source/Utility/delayline.h **** #include <stdlib.h>
  13:../../DaisySP/Source/Utility/delayline.h **** #include <stdint.h>
  14:../../DaisySP/Source/Utility/delayline.h **** namespace daisysp
  15:../../DaisySP/Source/Utility/delayline.h **** {
  16:../../DaisySP/Source/Utility/delayline.h **** /** Simple Delay line.
  17:../../DaisySP/Source/Utility/delayline.h **** November 2019
  18:../../DaisySP/Source/Utility/delayline.h **** 
  19:../../DaisySP/Source/Utility/delayline.h **** Converted to Template December 2019
  20:../../DaisySP/Source/Utility/delayline.h **** 
  21:../../DaisySP/Source/Utility/delayline.h **** declaration example: (1 second of floats)
  22:../../DaisySP/Source/Utility/delayline.h **** 
  23:../../DaisySP/Source/Utility/delayline.h **** DelayLine<float, SAMPLE_RATE> del;
  24:../../DaisySP/Source/Utility/delayline.h **** 
  25:../../DaisySP/Source/Utility/delayline.h **** By: shensley
  26:../../DaisySP/Source/Utility/delayline.h **** */
  27:../../DaisySP/Source/Utility/delayline.h **** template <typename T, size_t max_size>
  28:../../DaisySP/Source/Utility/delayline.h **** class DelayLine
  29:../../DaisySP/Source/Utility/delayline.h **** {
  30:../../DaisySP/Source/Utility/delayline.h ****   public:
  31:../../DaisySP/Source/Utility/delayline.h ****     DelayLine() {}
  32:../../DaisySP/Source/Utility/delayline.h ****     ~DelayLine() {}
 169              		.loc 12 32 5 is_stmt 1 view -0
 170              		.cfi_startproc
 171              		@ args = 0, pretend = 0, frame = 0
 172              		@ frame_needed = 0, uses_anonymous_args = 0
 173              		@ link register save eliminated.
 174              		.loc 12 32 19 is_stmt 0 view .LVU30
 175 0000 7047     		bx	lr
 176              		.cfi_endproc
ARM GAS  /var/folders/kw/h2sg8jtn02b91cpsjc1nlpg80000gn/T//cccUH3U8.s 			page 22


 177              	.LFE5466:
 179              		.weak	_ZN7daisysp9DelayLineIfLj48000EED1Ev
 180              		.thumb_set _ZN7daisysp9DelayLineIfLj48000EED1Ev,_ZN7daisysp9DelayLineIfLj48000EED2Ev
 181 0002 00BF     		.section	.text._Z13AudioCallbackPKfPfj,"ax",%progbits
 182              		.align	1
 183              		.p2align 2,,3
 184              		.global	_Z13AudioCallbackPKfPfj
 185              		.syntax unified
 186              		.thumb
 187              		.thumb_func
 189              	_Z13AudioCallbackPKfPfj:
 190              	.LVL4:
 191              	.LFB4853:
 192              		.file 13 "main.cpp"
   1:main.cpp      **** /*
   2:main.cpp      **** This code is a modification of OscPocketD/VASynth, created by Staffan Melin, staffan.melin@oscillat
   3:main.cpp      **** It was later modified by (Steven @moonfriendsynth) to work with the Daisy Pod.
   4:main.cpp      **** I (Christopher @Nettech15) have modified it further to run on the Daisy Seed without the use of the
   5:main.cpp      **** Synth parameters are now controlled by a Miditech i2-61 midi keyboard.
   6:main.cpp      **** Feel free to copy, modify, and improve this code to match your equipment and sound requirements.
   7:main.cpp      **** */
   8:main.cpp      **** 
   9:main.cpp      **** #include "daisy_seed.h"
  10:main.cpp      **** #include "daisysp.h"
  11:main.cpp      **** 
  12:main.cpp      **** #include "main.h"
  13:main.cpp      **** #include "vasynth.h"
  14:main.cpp      **** 
  15:main.cpp      **** using namespace daisy;
  16:main.cpp      **** using namespace daisysp;
  17:main.cpp      **** 
  18:main.cpp      **** // globals
  19:main.cpp      **** DaisySeed hardware;
  20:main.cpp      **** MidiUsbHandler midi;
  21:main.cpp      **** float sysSampleRate;
  22:main.cpp      **** float sysCallbackRate;
  23:main.cpp      **** extern uint8_t preset_max;
  24:main.cpp      **** extern VASynthSetting preset_setting[PRESET_MAX];
  25:main.cpp      **** 
  26:main.cpp      **** uint8_t param_;
  27:main.cpp      **** float pitch_bend = 1.0f;
  28:main.cpp      **** float master_tune = 0.0f;
  29:main.cpp      **** 
  30:main.cpp      **** // sound
  31:main.cpp      **** VASynth vasynth;
  32:main.cpp      **** uint8_t gPlay = PLAY_ON;
  33:main.cpp      **** 
  34:main.cpp      **** // fx
  35:main.cpp      **** DelayLine<float, DELAY_MAX> DSY_SDRAM_BSS delay_;
  36:main.cpp      **** 
  37:main.cpp      **** // sequencer
  38:main.cpp      **** void SequencerPlay(uint16_t);
  39:main.cpp      **** void SequencerRecord(uint8_t, uint8_t);
  40:main.cpp      **** void SeqTimer_Config(void);
  41:main.cpp      **** void writeSram(uint32_t, uint8_t);
  42:main.cpp      **** uint8_t readSram(uint32_t);
  43:main.cpp      **** void writeSramWord(uint32_t, uint16_t);
ARM GAS  /var/folders/kw/h2sg8jtn02b91cpsjc1nlpg80000gn/T//cccUH3U8.s 			page 23


  44:main.cpp      **** uint16_t readSramWord(uint32_t);
  45:main.cpp      **** 
  46:main.cpp      **** uint16_t seqclock = 0, seqtime = 0, seqmode = 0, seqmsg;
  47:main.cpp      **** uint16_t seqnote, seqvelocity;
  48:main.cpp      **** uint32_t seqmem = 0x00010000;
  49:main.cpp      **** 
  50:main.cpp      **** // audio callback
  51:main.cpp      **** 
  52:main.cpp      **** void AudioCallback(AudioHandle::InterleavingInputBuffer  in,
  53:main.cpp      ****                    AudioHandle::InterleavingOutputBuffer out,
  54:main.cpp      ****                    size_t                                size)
  55:main.cpp      **** {	
 193              		.loc 13 55 1 is_stmt 1 view -0
 194              		.cfi_startproc
 195              		@ args = 0, pretend = 0, frame = 8
 196              		@ frame_needed = 0, uses_anonymous_args = 0
  56:main.cpp      **** 	float voice_left, voice_right;
 197              		.loc 13 56 2 view .LVU32
  57:main.cpp      **** 	
  58:main.cpp      **** 	for (size_t n = 0; n < size; n += 2)
 198              		.loc 13 58 2 view .LVU33
 199              	.LBB313:
 200              		.loc 13 58 23 view .LVU34
 201 0000 AAB3     		cbz	r2, .L16
 202              	.LBE313:
  55:main.cpp      **** 	float voice_left, voice_right;
 203              		.loc 13 55 1 is_stmt 0 view .LVU35
 204 0002 2DE9F041 		push	{r4, r5, r6, r7, r8, lr}
 205              		.cfi_def_cfa_offset 24
 206              		.cfi_offset 4, -24
 207              		.cfi_offset 5, -20
 208              		.cfi_offset 6, -16
 209              		.cfi_offset 7, -12
 210              		.cfi_offset 8, -8
 211              		.cfi_offset 14, -4
 212 0006 1746     		mov	r7, r2
 213 0008 82B0     		sub	sp, sp, #8
 214              		.cfi_def_cfa_offset 32
 215 000a 0646     		mov	r6, r0
 216 000c 0C46     		mov	r4, r1
 217              	.LBB314:
 218              		.loc 13 58 14 view .LVU36
 219 000e 0025     		movs	r5, #0
 220 0010 DFF86080 		ldr	r8, .L20+4
 221 0014 07E0     		b	.L10
 222              	.LVL5:
 223              	.L8:
 224              		.loc 13 58 33 view .LVU37
 225 0016 0235     		adds	r5, r5, #2
 226              	.LVL6:
  59:main.cpp      **** 	{	
  60:main.cpp      **** 		if (gPlay == PLAY_ON)
  61:main.cpp      **** 		{			
  62:main.cpp      **** 			vasynth.Process(&voice_left, &voice_right);
  63:main.cpp      **** 			
  64:main.cpp      **** 			out[n] = voice_left + in[n];
  65:main.cpp      **** 			out[n + 1] = voice_right + in[n + 1];
ARM GAS  /var/folders/kw/h2sg8jtn02b91cpsjc1nlpg80000gn/T//cccUH3U8.s 			page 24


  66:main.cpp      **** 		} 
  67:main.cpp      **** 		else 
  68:main.cpp      **** 		{
  69:main.cpp      **** 			out[n] = 0;
 227              		.loc 13 69 11 view .LVU38
 228 0018 2360     		str	r3, [r4]	@ float
  70:main.cpp      **** 			out[n + 1] = 0;		
 229              		.loc 13 70 4 is_stmt 1 view .LVU39
 230              		.loc 13 70 15 is_stmt 0 view .LVU40
 231 001a 6360     		str	r3, [r4, #4]	@ float
  58:main.cpp      **** 	{	
 232              		.loc 13 58 2 is_stmt 1 view .LVU41
 233              	.LVL7:
  58:main.cpp      **** 	{	
 234              		.loc 13 58 23 view .LVU42
 235 001c 0836     		adds	r6, r6, #8
 236 001e AF42     		cmp	r7, r5
 237 0020 04F10804 		add	r4, r4, #8
 238 0024 20D9     		bls	.L19
 239              	.LVL8:
 240              	.L10:
  60:main.cpp      **** 		{			
 241              		.loc 13 60 3 view .LVU43
  69:main.cpp      **** 			out[n + 1] = 0;		
 242              		.loc 13 69 4 view .LVU44
  60:main.cpp      **** 		{			
 243              		.loc 13 60 3 is_stmt 0 view .LVU45
 244 0026 98F80010 		ldrb	r1, [r8]	@ zero_extendqisi2
  69:main.cpp      **** 			out[n + 1] = 0;		
 245              		.loc 13 69 11 view .LVU46
 246 002a 0023     		movs	r3, #0
  60:main.cpp      **** 		{			
 247              		.loc 13 60 3 view .LVU47
 248 002c 0129     		cmp	r1, #1
 249 002e F2D1     		bne	.L8
  62:main.cpp      **** 			
 250              		.loc 13 62 4 is_stmt 1 view .LVU48
  62:main.cpp      **** 			
 251              		.loc 13 62 19 is_stmt 0 view .LVU49
 252 0030 01AA     		add	r2, sp, #4
 253 0032 6946     		mov	r1, sp
 254 0034 0E48     		ldr	r0, .L20
  58:main.cpp      **** 	{	
 255              		.loc 13 58 33 view .LVU50
 256 0036 0235     		adds	r5, r5, #2
 257              	.LVL9:
  62:main.cpp      **** 			
 258              		.loc 13 62 19 view .LVU51
 259 0038 FFF7FEFF 		bl	_ZN7VASynth7ProcessEPfS0_
 260              	.LVL10:
  64:main.cpp      **** 			out[n + 1] = voice_right + in[n + 1];
 261              		.loc 13 64 4 is_stmt 1 view .LVU52
  64:main.cpp      **** 			out[n + 1] = voice_right + in[n + 1];
 262              		.loc 13 64 24 is_stmt 0 view .LVU53
 263 003c 96ED007A 		vldr.32	s14, [r6]
 264 0040 DDED007A 		vldr.32	s15, [sp]
  58:main.cpp      **** 	{	
ARM GAS  /var/folders/kw/h2sg8jtn02b91cpsjc1nlpg80000gn/T//cccUH3U8.s 			page 25


 265              		.loc 13 58 23 view .LVU54
 266 0044 AF42     		cmp	r7, r5
  65:main.cpp      **** 		} 
 267              		.loc 13 65 29 view .LVU55
 268 0046 DDED016A 		vldr.32	s13, [sp, #4]
  58:main.cpp      **** 	{	
 269              		.loc 13 58 23 view .LVU56
 270 004a 06F10806 		add	r6, r6, #8
  64:main.cpp      **** 			out[n + 1] = voice_right + in[n + 1];
 271              		.loc 13 64 24 view .LVU57
 272 004e 37EE277A 		vadd.f32	s14, s14, s15
  58:main.cpp      **** 	{	
 273              		.loc 13 58 23 view .LVU58
 274 0052 04F10804 		add	r4, r4, #8
  64:main.cpp      **** 			out[n + 1] = voice_right + in[n + 1];
 275              		.loc 13 64 11 view .LVU59
 276 0056 04ED027A 		vstr.32	s14, [r4, #-8]
  65:main.cpp      **** 		} 
 277              		.loc 13 65 4 is_stmt 1 view .LVU60
  65:main.cpp      **** 		} 
 278              		.loc 13 65 29 is_stmt 0 view .LVU61
 279 005a 56ED017A 		vldr.32	s15, [r6, #-4]
 280 005e 77EEA67A 		vadd.f32	s15, s15, s13
  65:main.cpp      **** 		} 
 281              		.loc 13 65 15 view .LVU62
 282 0062 44ED017A 		vstr.32	s15, [r4, #-4]
  58:main.cpp      **** 	{	
 283              		.loc 13 58 2 is_stmt 1 view .LVU63
 284              	.LVL11:
  58:main.cpp      **** 	{	
 285              		.loc 13 58 23 view .LVU64
 286 0066 DED8     		bhi	.L10
 287              	.L19:
  58:main.cpp      **** 	{	
 288              		.loc 13 58 23 is_stmt 0 view .LVU65
 289              	.LBE314:
  71:main.cpp      **** 		}		
  72:main.cpp      **** 	}
  73:main.cpp      **** }
 290              		.loc 13 73 1 view .LVU66
 291 0068 02B0     		add	sp, sp, #8
 292              		.cfi_def_cfa_offset 24
 293              		@ sp needed
 294 006a BDE8F081 		pop	{r4, r5, r6, r7, r8, pc}
 295              	.LVL12:
 296              	.L16:
 297              		.cfi_def_cfa_offset 0
 298              		.cfi_restore 4
 299              		.cfi_restore 5
 300              		.cfi_restore 6
 301              		.cfi_restore 7
 302              		.cfi_restore 8
 303              		.cfi_restore 14
 304              		.loc 13 73 1 view .LVU67
 305 006e 7047     		bx	lr
 306              	.L21:
 307              		.align	2
ARM GAS  /var/folders/kw/h2sg8jtn02b91cpsjc1nlpg80000gn/T//cccUH3U8.s 			page 26


 308              	.L20:
 309 0070 00000000 		.word	.LANCHOR1
 310 0074 00000000 		.word	.LANCHOR0
 311              		.cfi_endproc
 312              	.LFE4853:
 314              		.section	.text._Z13SequencerPlayt.part.0,"ax",%progbits
 315              		.align	1
 316              		.p2align 2,,3
 317              		.syntax unified
 318              		.thumb
 319              		.thumb_func
 321              	_Z13SequencerPlayt.part.0:
 322              	.LVL13:
 323              	.LFB5469:
  74:main.cpp      **** 
  75:main.cpp      **** // midi handler
  76:main.cpp      **** void HandleMidiMessage(MidiEvent m)
  77:main.cpp      **** {
  78:main.cpp      ****     switch(m.type)
  79:main.cpp      ****     {
  80:main.cpp      ****         case NoteOn:
  81:main.cpp      ****         {
  82:main.cpp      ****             NoteOnEvent p = m.AsNoteOn();
  83:main.cpp      ****             if ((vasynth.midi_channel_ == MIDI_CHANNEL_ALL) || (p.channel == vasynth.midi_channel_)
  84:main.cpp      **** 			{
  85:main.cpp      **** 				if(seqmode == 1)
  86:main.cpp      **** 				{
  87:main.cpp      **** 					SequencerRecord((p.note | 0x80), p.velocity);
  88:main.cpp      **** 				}
  89:main.cpp      **** 				vasynth.NoteOn(p.note, p.velocity);
  90:main.cpp      **** 				hardware.SetLed(true);
  91:main.cpp      **** 			}
  92:main.cpp      **** 	        break;
  93:main.cpp      ****         }
  94:main.cpp      ****         case NoteOff:
  95:main.cpp      ****         {
  96:main.cpp      ****             NoteOnEvent p = m.AsNoteOn();
  97:main.cpp      ****             if ((vasynth.midi_channel_ == MIDI_CHANNEL_ALL) || (p.channel == vasynth.midi_channel_)
  98:main.cpp      **** 			{
  99:main.cpp      **** 				if(seqmode == 1)
 100:main.cpp      **** 				{
 101:main.cpp      **** 					SequencerRecord(p.note, 0);
 102:main.cpp      **** 				}
 103:main.cpp      **** 				vasynth.NoteOff(p.note);
 104:main.cpp      **** 				hardware.SetLed(false);
 105:main.cpp      **** 			}			
 106:main.cpp      **** 	        break;
 107:main.cpp      ****         } 
 108:main.cpp      **** 		case PitchBend:
 109:main.cpp      ****         {
 110:main.cpp      ****             PitchBendEvent p = m.AsPitchBend();
 111:main.cpp      ****             if ((vasynth.midi_channel_ == MIDI_CHANNEL_ALL) || (p.channel == vasynth.midi_channel_)
 112:main.cpp      **** 			{
 113:main.cpp      **** 				vasynth.PitchBend(p.value);
 114:main.cpp      **** 			}			
 115:main.cpp      **** 	        break;
 116:main.cpp      ****         } 
ARM GAS  /var/folders/kw/h2sg8jtn02b91cpsjc1nlpg80000gn/T//cccUH3U8.s 			page 27


 117:main.cpp      ****         case ControlChange:
 118:main.cpp      ****         {
 119:main.cpp      ****             ControlChangeEvent p = m.AsControlChange();
 120:main.cpp      ****             switch(p.control_number)
 121:main.cpp      ****             {
 122:main.cpp      **** 				case 1: // Modulation Wheel
 123:main.cpp      **** 					vasynth.lfo_amp_ = ((float)p.value / 127.0f);
 124:main.cpp      ****                     vasynth.SetLFO();
 125:main.cpp      ****                     break;
 126:main.cpp      **** 				case 7: // Data Slider Default (Volume)
 127:main.cpp      **** 					switch(param_)
 128:main.cpp      **** 					{
 129:main.cpp      **** 						case 0: // This is set as the default parameter
 130:main.cpp      **** 						{
 131:main.cpp      **** 							master_tune = 1.0f - ((float)p.value / 64.0f);
 132:main.cpp      **** 							break;
 133:main.cpp      **** 						}
 134:main.cpp      **** 						case 1:
 135:main.cpp      **** 						{
 136:main.cpp      **** 							switch(p.value >> 5)
 137:main.cpp      **** 							{
 138:main.cpp      **** 								case 0:
 139:main.cpp      **** 									vasynth.waveform_ = WAVE_TRI;
 140:main.cpp      **** 									break;
 141:main.cpp      **** 								case 1:
 142:main.cpp      **** 									vasynth.waveform_ = WAVE_SAW;
 143:main.cpp      **** 									break;
 144:main.cpp      **** 								case 2:
 145:main.cpp      **** 									vasynth.waveform_ = WAVE_SQUARE;
 146:main.cpp      **** 									break;
 147:main.cpp      **** 								case 3:
 148:main.cpp      **** 									vasynth.waveform_ = WAVE_POLYBLEP_SAW;
 149:main.cpp      **** 									break;
 150:main.cpp      **** 							}
 151:main.cpp      **** 							vasynth.SetWaveform();
 152:main.cpp      **** 							break;
 153:main.cpp      **** 						}
 154:main.cpp      **** 						case 2:
 155:main.cpp      **** 						{
 156:main.cpp      **** 							switch(p.value >> 5)
 157:main.cpp      **** 							{
 158:main.cpp      **** 								case 0:
 159:main.cpp      **** 									vasynth.osc2_waveform_ = WAVE_TRI;
 160:main.cpp      **** 									break;
 161:main.cpp      **** 								case 1:
 162:main.cpp      **** 									vasynth.osc2_waveform_ = WAVE_SAW;
 163:main.cpp      **** 									break;
 164:main.cpp      **** 								case 2:
 165:main.cpp      **** 									vasynth.osc2_waveform_ = WAVE_SQUARE;
 166:main.cpp      **** 									break;
 167:main.cpp      **** 								case 3:
 168:main.cpp      **** 									vasynth.osc2_waveform_ = WAVE_POLYBLEP_SAW;
 169:main.cpp      **** 									break;
 170:main.cpp      **** 							}
 171:main.cpp      **** 							vasynth.SetWaveform();
 172:main.cpp      **** 							break;
 173:main.cpp      **** 						}
ARM GAS  /var/folders/kw/h2sg8jtn02b91cpsjc1nlpg80000gn/T//cccUH3U8.s 			page 28


 174:main.cpp      **** 						case 3:
 175:main.cpp      **** 						{
 176:main.cpp      **** 							vasynth.osc_mix_ = ((float)p.value / 127.0f);
 177:main.cpp      **** 							break;
 178:main.cpp      **** 						}
 179:main.cpp      **** 						case 4:
 180:main.cpp      **** 						{
 181:main.cpp      **** 							vasynth.osc2_detune_ = ((float)p.value / 255.0f);
 182:main.cpp      **** 							break;
 183:main.cpp      **** 						}
 184:main.cpp      **** 						case 5:
 185:main.cpp      **** 						{
 186:main.cpp      **** 							vasynth.osc2_transpose_ = (1.0f + ((float)p.value / 127.0f));
 187:main.cpp      **** 							break;
 188:main.cpp      **** 						}
 189:main.cpp      **** 						case 6:
 190:main.cpp      **** 						{
 191:main.cpp      **** 							vasynth.filter_res_ = ((float)p.value / 127.0f);
 192:main.cpp      ****                     		vasynth.SetFilter();
 193:main.cpp      **** 							break;
 194:main.cpp      **** 						}
 195:main.cpp      **** 						case 7:
 196:main.cpp      **** 						{
 197:main.cpp      **** 							vasynth.osc_pw_ = ((float)p.value / 255.0f);
 198:main.cpp      **** 							break;
 199:main.cpp      **** 						}
 200:main.cpp      **** 						case 8:
 201:main.cpp      **** 						{
 202:main.cpp      **** 							vasynth.osc2_pw_ = ((float)p.value / 255.0f);
 203:main.cpp      **** 							break;
 204:main.cpp      **** 						}
 205:main.cpp      **** 						case 9:
 206:main.cpp      **** 						{
 207:main.cpp      **** 							vasynth.eg_f_attack_ = ((float)p.value / 127.0f);
 208:main.cpp      **** 							vasynth.SetEG();
 209:main.cpp      **** 							break;
 210:main.cpp      **** 						}
 211:main.cpp      **** 						case 10:
 212:main.cpp      **** 						{
 213:main.cpp      **** 							vasynth.eg_f_decay_ = ((float)p.value / 127.0f);
 214:main.cpp      **** 							vasynth.SetEG();
 215:main.cpp      **** 							break;
 216:main.cpp      **** 						}
 217:main.cpp      **** 						case 11:
 218:main.cpp      **** 						{
 219:main.cpp      **** 							vasynth.eg_f_sustain_ = ((float)p.value / 127.0f);
 220:main.cpp      **** 							vasynth.SetEG();
 221:main.cpp      **** 							break;
 222:main.cpp      **** 						}
 223:main.cpp      **** 						case 12:
 224:main.cpp      **** 						{
 225:main.cpp      **** 							vasynth.eg_f_release_ = ((float)p.value / 127.0f);
 226:main.cpp      **** 							vasynth.SetEG();
 227:main.cpp      **** 							break;
 228:main.cpp      **** 						}
 229:main.cpp      **** 						case 13:
 230:main.cpp      **** 						{
ARM GAS  /var/folders/kw/h2sg8jtn02b91cpsjc1nlpg80000gn/T//cccUH3U8.s 			page 29


 231:main.cpp      **** 							vasynth.eg_a_attack_ = ((float)p.value / 127.0f);
 232:main.cpp      **** 							vasynth.SetEG();
 233:main.cpp      **** 							break;
 234:main.cpp      **** 						}
 235:main.cpp      **** 						case 14:
 236:main.cpp      **** 						{
 237:main.cpp      **** 							vasynth.eg_a_decay_ = ((float)p.value / 127.0f);
 238:main.cpp      **** 							vasynth.SetEG();
 239:main.cpp      **** 							break;
 240:main.cpp      **** 						}
 241:main.cpp      **** 						case 15:
 242:main.cpp      **** 						{
 243:main.cpp      **** 							vasynth.eg_a_sustain_ = ((float)p.value / 127.0f);
 244:main.cpp      **** 							vasynth.SetEG();
 245:main.cpp      **** 							break;
 246:main.cpp      **** 						}
 247:main.cpp      **** 						case 16:
 248:main.cpp      **** 						{
 249:main.cpp      **** 							vasynth.eg_a_release_ = ((float)p.value / 127.0f);
 250:main.cpp      **** 							vasynth.SetEG();
 251:main.cpp      **** 							break;
 252:main.cpp      **** 						}
 253:main.cpp      **** 						case 17:
 254:main.cpp      **** 						{
 255:main.cpp      **** 							vasynth.vcf_kbd_follow_= ((float)p.value / 127.0f);
 256:main.cpp      **** 							break;
 257:main.cpp      **** 						}
 258:main.cpp      **** 						case 18:
 259:main.cpp      **** 						{
 260:main.cpp      **** 							vasynth.env_kbd_follow_ = ((float)p.value / 127.0f);
 261:main.cpp      **** 							break;
 262:main.cpp      **** 						}
 263:main.cpp      **** 						case 19:
 264:main.cpp      **** 						{
 265:main.cpp      **** 							vasynth.vel_select_ = p.value >> 5;
 266:main.cpp      **** 							break;
 267:main.cpp      **** 						}
 268:main.cpp      **** 						case 20:
 269:main.cpp      **** 						{
 270:main.cpp      **** 							vasynth.eg_f_amount_ = ((float)p.value / 127.0f);
 271:main.cpp      **** 							break;
 272:main.cpp      **** 						}
 273:main.cpp      **** 						case 21:
 274:main.cpp      **** 						{
 275:main.cpp      **** 							vasynth.lfo_freq_ = ((float)p.value / 127.0f);
 276:main.cpp      **** 							vasynth.SetLFO();
 277:main.cpp      **** 							break;
 278:main.cpp      **** 						}
 279:main.cpp      **** 						case 22:
 280:main.cpp      **** 						{
 281:main.cpp      **** 							vasynth.pwmlfo_freq_ = ((float)p.value / 127.0f);
 282:main.cpp      **** 							vasynth.SetPWMLFO();
 283:main.cpp      **** 							break;
 284:main.cpp      **** 						}
 285:main.cpp      **** 						case 23:
 286:main.cpp      **** 						{
 287:main.cpp      **** 							vasynth.pwmlfo_amp_ = ((float)p.value / 511.0f);
ARM GAS  /var/folders/kw/h2sg8jtn02b91cpsjc1nlpg80000gn/T//cccUH3U8.s 			page 30


 288:main.cpp      **** 							vasynth.SetPWMLFO();
 289:main.cpp      **** 							break;
 290:main.cpp      **** 						}
 291:main.cpp      **** 						case 24:
 292:main.cpp      **** 						{
 293:main.cpp      **** 							vasynth.pwm2lfo_freq_ = ((float)p.value / 127.0f);
 294:main.cpp      **** 							vasynth.SetPWM2LFO();
 295:main.cpp      **** 							break;
 296:main.cpp      **** 						}
 297:main.cpp      **** 						case 25:
 298:main.cpp      **** 						{
 299:main.cpp      **** 							vasynth.pwm2lfo_amp_ = ((float)p.value / 511.0f);
 300:main.cpp      **** 							vasynth.SetPWM2LFO();
 301:main.cpp      **** 							break;
 302:main.cpp      **** 						}
 303:main.cpp      **** 						case 26:
 304:main.cpp      **** 						{
 305:main.cpp      **** 							vasynth.vcavcflfo_freq_ = ((float)p.value / 127.0f);
 306:main.cpp      **** 							vasynth.SetVCAVCFLFO();
 307:main.cpp      **** 							break;
 308:main.cpp      **** 						}
 309:main.cpp      **** 						case 27:
 310:main.cpp      **** 						{
 311:main.cpp      **** 							vasynth.vcavcflfo_amp_ = ((float)p.value / 127.0f);
 312:main.cpp      **** 							vasynth.SetVCAVCFLFO();
 313:main.cpp      **** 							break;
 314:main.cpp      **** 						}
 315:main.cpp      **** 						case 28:
 316:main.cpp      **** 						{
 317:main.cpp      **** 							switch(p.value >> 5)
 318:main.cpp      **** 							{
 319:main.cpp      **** 								case 0:
 320:main.cpp      **** 									vasynth.vcavcflfo_waveform_ = WAVE_TRI;
 321:main.cpp      **** 									break;
 322:main.cpp      **** 								case 1:
 323:main.cpp      **** 									vasynth.vcavcflfo_waveform_ = WAVE_SAW;
 324:main.cpp      **** 									break;
 325:main.cpp      **** 								case 2:
 326:main.cpp      **** 									vasynth.vcavcflfo_waveform_ = WAVE_SQUARE;
 327:main.cpp      **** 									break;
 328:main.cpp      **** 								case 3:
 329:main.cpp      **** 									vasynth.vcavcflfo_waveform_ = WAVE_POLYBLEP_SAW;
 330:main.cpp      **** 									break;
 331:main.cpp      **** 							}
 332:main.cpp      **** 							vasynth.SetVCAVCFLFO();
 333:main.cpp      **** 							break;
 334:main.cpp      **** 						}
 335:main.cpp      **** 					}
 336:main.cpp      **** 					break;
 337:main.cpp      ****                 default: break;
 338:main.cpp      ****             }
 339:main.cpp      ****             break;
 340:main.cpp      ****         }
 341:main.cpp      **** 		case ProgramChange:
 342:main.cpp      ****         {
 343:main.cpp      ****             ProgramChangeEvent p = m.AsProgramChange();
 344:main.cpp      ****             if ((vasynth.midi_channel_ == MIDI_CHANNEL_ALL) || (p.channel == vasynth.midi_channel_)
ARM GAS  /var/folders/kw/h2sg8jtn02b91cpsjc1nlpg80000gn/T//cccUH3U8.s 			page 31


 345:main.cpp      **** 			{
 346:main.cpp      **** 				if(p.program >= 29)
 347:main.cpp      **** 				{
 348:main.cpp      **** 					switch (p.program)
 349:main.cpp      **** 					{
 350:main.cpp      **** 						case 35:
 351:main.cpp      **** 						{
 352:main.cpp      **** 							// Sequencer Mode Record
 353:main.cpp      **** 							seqmode = 1;
 354:main.cpp      **** 							seqclock = 0;
 355:main.cpp      **** 							break;
 356:main.cpp      **** 						}
 357:main.cpp      **** 						case 36:
 358:main.cpp      **** 						{
 359:main.cpp      **** 							// Sequencer Mode Record End
 360:main.cpp      **** 							seqmode = 2;
 361:main.cpp      **** 							// Place a time-stamp and stop marker at the current position and stop the sequencer
 362:main.cpp      **** 							writeSramWord(seqmem, seqclock);
 363:main.cpp      **** 							seqmem++;
 364:main.cpp      **** 							seqmem++;
 365:main.cpp      **** 							writeSramWord(seqmem, 0xFFFF);
 366:main.cpp      **** 							seqmode = 0;
 367:main.cpp      **** 							seqclock = 0;
 368:main.cpp      **** 							seqmem = 0x00010000;
 369:main.cpp      **** 							break;
 370:main.cpp      **** 						}
 371:main.cpp      **** 						case 37:
 372:main.cpp      **** 						{
 373:main.cpp      **** 							// Sequencer Mode Stop
 374:main.cpp      **** 							seqmode = 0;
 375:main.cpp      **** 							seqclock = 0;
 376:main.cpp      **** 							seqmem = 0x00010000;
 377:main.cpp      **** 							break;
 378:main.cpp      **** 						}
 379:main.cpp      **** 						case 38:
 380:main.cpp      **** 						{
 381:main.cpp      **** 							// Sequencer Mode Play
 382:main.cpp      **** 							seqmode = 3;
 383:main.cpp      **** 							seqclock = 0;
 384:main.cpp      **** 							seqmem = 0x00010000;
 385:main.cpp      **** 							break;
 386:main.cpp      **** 						}
 387:main.cpp      **** 						case 39:
 388:main.cpp      **** 						{
 389:main.cpp      **** 							vasynth.FlashLoad(0);
 390:main.cpp      **** 							break;
 391:main.cpp      **** 						}
 392:main.cpp      **** 						case 40:
 393:main.cpp      **** 						{
 394:main.cpp      **** 							vasynth.FlashLoad(1);
 395:main.cpp      **** 							break;
 396:main.cpp      **** 						}
 397:main.cpp      **** 						case 41:
 398:main.cpp      **** 						{
 399:main.cpp      **** 							vasynth.FlashLoad(2);
 400:main.cpp      **** 							break;
 401:main.cpp      **** 						}
ARM GAS  /var/folders/kw/h2sg8jtn02b91cpsjc1nlpg80000gn/T//cccUH3U8.s 			page 32


 402:main.cpp      **** 						case 42:
 403:main.cpp      **** 						{
 404:main.cpp      **** 							vasynth.FlashLoad(3);
 405:main.cpp      **** 							break;
 406:main.cpp      **** 						}
 407:main.cpp      **** 						case 43:
 408:main.cpp      **** 						{
 409:main.cpp      **** 							vasynth.FlashLoad(4);
 410:main.cpp      **** 							break;
 411:main.cpp      **** 						}
 412:main.cpp      **** 						case 44:
 413:main.cpp      **** 						{
 414:main.cpp      **** 							vasynth.FlashLoad(5);
 415:main.cpp      **** 							break;
 416:main.cpp      **** 						}
 417:main.cpp      **** 						case 45:
 418:main.cpp      **** 						{
 419:main.cpp      **** 							vasynth.FlashLoad(6);
 420:main.cpp      **** 							break;
 421:main.cpp      **** 						}
 422:main.cpp      **** 						case 46:
 423:main.cpp      **** 						{
 424:main.cpp      **** 							vasynth.FlashLoad(7);
 425:main.cpp      **** 							break;
 426:main.cpp      **** 						}
 427:main.cpp      **** 						case 47:
 428:main.cpp      **** 						{
 429:main.cpp      **** 							vasynth.FlashLoad(8);
 430:main.cpp      **** 							break;
 431:main.cpp      **** 						}
 432:main.cpp      **** 						case 48:
 433:main.cpp      **** 						{
 434:main.cpp      **** 							vasynth.FlashLoad(9);
 435:main.cpp      **** 							break;
 436:main.cpp      **** 						}
 437:main.cpp      **** 						case 49:
 438:main.cpp      **** 						{
 439:main.cpp      **** 							vasynth.FlashSave(0);
 440:main.cpp      **** 							break;
 441:main.cpp      **** 						}
 442:main.cpp      **** 						case 50:
 443:main.cpp      **** 						{
 444:main.cpp      **** 							vasynth.FlashSave(1);
 445:main.cpp      **** 							break;
 446:main.cpp      **** 						}
 447:main.cpp      **** 						case 51:
 448:main.cpp      **** 						{
 449:main.cpp      **** 							vasynth.FlashSave(2);
 450:main.cpp      **** 							break;
 451:main.cpp      **** 						}
 452:main.cpp      **** 						case 52:
 453:main.cpp      **** 						{
 454:main.cpp      **** 							vasynth.FlashSave(3);
 455:main.cpp      **** 							break;
 456:main.cpp      **** 						}
 457:main.cpp      **** 						case 53:
 458:main.cpp      **** 						{
ARM GAS  /var/folders/kw/h2sg8jtn02b91cpsjc1nlpg80000gn/T//cccUH3U8.s 			page 33


 459:main.cpp      **** 							vasynth.FlashSave(4);
 460:main.cpp      **** 							break;
 461:main.cpp      **** 						}
 462:main.cpp      **** 						case 54:
 463:main.cpp      **** 						{
 464:main.cpp      **** 							vasynth.FlashSave(5);
 465:main.cpp      **** 							break;
 466:main.cpp      **** 						}
 467:main.cpp      **** 						case 55:
 468:main.cpp      **** 						{
 469:main.cpp      **** 							vasynth.FlashSave(6);
 470:main.cpp      **** 							break;
 471:main.cpp      **** 						}
 472:main.cpp      **** 						case 56:
 473:main.cpp      **** 						{
 474:main.cpp      **** 							vasynth.FlashSave(7);
 475:main.cpp      **** 							break;
 476:main.cpp      **** 						}
 477:main.cpp      **** 						case 57:
 478:main.cpp      **** 						{
 479:main.cpp      **** 							vasynth.FlashSave(8);
 480:main.cpp      **** 							break;
 481:main.cpp      **** 						}
 482:main.cpp      **** 						case 58:
 483:main.cpp      **** 						{
 484:main.cpp      **** 							vasynth.FlashSave(9);
 485:main.cpp      **** 							break;
 486:main.cpp      **** 						}
 487:main.cpp      **** 					}
 488:main.cpp      **** 				}	
 489:main.cpp      **** 				else
 490:main.cpp      **** 				{
 491:main.cpp      **** 					vasynth.ProgramChange(p.program);
 492:main.cpp      **** 					break;				
 493:main.cpp      **** 				}
 494:main.cpp      **** 			}    
 495:main.cpp      ****         }
 496:main.cpp      ****         default: break;
 497:main.cpp      ****     }
 498:main.cpp      **** }
 499:main.cpp      **** 
 500:main.cpp      **** void SequencerPlay(uint16_t modenum)
 324              		.loc 13 500 6 is_stmt 1 view -0
 325              		.cfi_startproc
 326              		@ args = 0, pretend = 0, frame = 0
 327              		@ frame_needed = 0, uses_anonymous_args = 0
 501:main.cpp      **** {
 502:main.cpp      **** 	if(modenum == 0)
 503:main.cpp      **** 	{
 504:main.cpp      **** 		seqclock = 0;
 505:main.cpp      **** 		seqmem = 0x00010000;
 506:main.cpp      **** 		return;
 507:main.cpp      **** 	}
 508:main.cpp      **** 	
 509:main.cpp      **** 	if(modenum == 3)
 328              		.loc 13 509 2 view .LVU69
 329 0000 0328     		cmp	r0, #3
ARM GAS  /var/folders/kw/h2sg8jtn02b91cpsjc1nlpg80000gn/T//cccUH3U8.s 			page 34


 500:main.cpp      **** {
 330              		.loc 13 500 6 is_stmt 0 view .LVU70
 331 0002 2DE9F84F 		push	{r3, r4, r5, r6, r7, r8, r9, r10, fp, lr}
 332              		.cfi_def_cfa_offset 40
 333              		.cfi_offset 3, -40
 334              		.cfi_offset 4, -36
 335              		.cfi_offset 5, -32
 336              		.cfi_offset 6, -28
 337              		.cfi_offset 7, -24
 338              		.cfi_offset 8, -20
 339              		.cfi_offset 9, -16
 340              		.cfi_offset 10, -12
 341              		.cfi_offset 11, -8
 342              		.cfi_offset 14, -4
 343              		.loc 13 509 2 view .LVU71
 344 0006 08D0     		beq	.L31
 510:main.cpp      **** 	{
 511:main.cpp      **** 		/* Read the time-stamp from SRAM and compare to seqclock*/
 512:main.cpp      **** 		seqtime = readSramWord(seqmem);
 513:main.cpp      **** 		
 514:main.cpp      **** 		while(seqtime == seqclock)
 515:main.cpp      **** 		{
 516:main.cpp      **** 			/* Move pointer to note data */
 517:main.cpp      **** 			seqmem++;
 518:main.cpp      **** 			seqmem++;
 519:main.cpp      **** 			
 520:main.cpp      **** 			/* Read the note from SRAM */
 521:main.cpp      **** 			seqnote = readSram(seqmem);
 522:main.cpp      **** 			seqmsg = seqnote & 0x80;
 523:main.cpp      **** 			seqnote = seqnote & 0x7F;
 524:main.cpp      **** 			seqmem++;
 525:main.cpp      **** 		
 526:main.cpp      **** 			/* Read the velocity from SRAM */
 527:main.cpp      **** 			seqvelocity = readSram(seqmem);
 528:main.cpp      **** 			seqmem++;
 529:main.cpp      **** 			
 530:main.cpp      **** 			if(seqvelocity == 0xFF)
 531:main.cpp      **** 			{
 532:main.cpp      **** 				/* End of sequence reached, reset the position to the beginning and restart */
 533:main.cpp      **** 				seqclock = 0;
 534:main.cpp      **** 				seqmem = 0x00010000;
 535:main.cpp      **** 				return;
 536:main.cpp      **** 			}
 537:main.cpp      **** 			
 538:main.cpp      **** 			if(seqmsg)
 539:main.cpp      **** 			{
 540:main.cpp      **** 				/* Play the note */
 541:main.cpp      **** 				vasynth.NoteOn(seqnote, seqvelocity);
 542:main.cpp      **** 			}
 543:main.cpp      **** 			else
 544:main.cpp      **** 			{
 545:main.cpp      **** 				/* Stop the note */
 546:main.cpp      **** 				vasynth.NoteOff(seqnote);
 547:main.cpp      **** 			}
 548:main.cpp      **** 			
 549:main.cpp      **** 			/* Check to see if there are other events at the current sequencer clock */
 550:main.cpp      **** 			seqtime = readSramWord(seqmem);
ARM GAS  /var/folders/kw/h2sg8jtn02b91cpsjc1nlpg80000gn/T//cccUH3U8.s 			page 35


 551:main.cpp      **** 		}
 552:main.cpp      **** 	}
 553:main.cpp      **** 	
 554:main.cpp      **** 	/* All events processed so increment the sequencer clock */
 555:main.cpp      **** 	seqclock++;
 345              		.loc 13 555 10 view .LVU72
 346 0008 DFF8BC90 		ldr	r9, .L34+24
 347 000c B9F80010 		ldrh	r1, [r9]
 348              	.LVL14:
 349              	.L24:
 350              		.loc 13 555 2 is_stmt 1 view .LVU73
 351              		.loc 13 555 10 is_stmt 0 view .LVU74
 352 0010 0131     		adds	r1, r1, #1
 353 0012 A9F80010 		strh	r1, [r9]	@ movhi
 556:main.cpp      **** }
 354              		.loc 13 556 1 view .LVU75
 355 0016 BDE8F88F 		pop	{r3, r4, r5, r6, r7, r8, r9, r10, fp, pc}
 356              	.LVL15:
 357              	.L31:
 512:main.cpp      **** 		
 358              		.loc 13 512 3 is_stmt 1 view .LVU76
 512:main.cpp      **** 		
 359              		.loc 13 512 25 is_stmt 0 view .LVU77
 360 001a 254C     		ldr	r4, .L34
 514:main.cpp      **** 		{
 361              		.loc 13 514 17 view .LVU78
 362 001c DFF8A890 		ldr	r9, .L34+24
 512:main.cpp      **** 		
 363              		.loc 13 512 25 view .LVU79
 364 0020 2368     		ldr	r3, [r4]
 365              	.LVL16:
 366              	.LBB315:
 367              	.LBI315:
 557:main.cpp      **** 
 558:main.cpp      **** void SequencerRecord(uint8_t recnote, uint8_t recvelocity)
 559:main.cpp      **** {
 560:main.cpp      **** 	/* Write the timestamp to SRAM */
 561:main.cpp      **** 	writeSramWord(seqmem, seqclock);
 562:main.cpp      **** 	seqmem++;
 563:main.cpp      **** 	seqmem++;
 564:main.cpp      **** 		
 565:main.cpp      **** 	/* Write the note to SRAM */
 566:main.cpp      **** 	writeSram(seqmem, recnote);
 567:main.cpp      **** 	seqmem++;
 568:main.cpp      **** 		
 569:main.cpp      **** 	/* Write the velocity to SRAM */
 570:main.cpp      **** 	writeSram(seqmem, recvelocity);
 571:main.cpp      **** 	seqmem++;
 572:main.cpp      **** 	
 573:main.cpp      **** 	if(seqmem > 0x7FFF8)
 574:main.cpp      **** 	{
 575:main.cpp      **** 		/* There is no more memory left for the sequencer to use */
 576:main.cpp      **** 		/* Place a timestamp and stop marker at the current position and select stop mode */
 577:main.cpp      **** 		writeSramWord(seqmem, seqclock);
 578:main.cpp      **** 		seqmem++;
 579:main.cpp      **** 		seqmem++;
 580:main.cpp      **** 		writeSramWord(seqmem, 0xFFFF);
ARM GAS  /var/folders/kw/h2sg8jtn02b91cpsjc1nlpg80000gn/T//cccUH3U8.s 			page 36


 581:main.cpp      **** 		seqmode = 0;
 582:main.cpp      **** 		seqclock = 0;
 583:main.cpp      **** 		seqmem = 0x00010000;
 584:main.cpp      **** 	}
 585:main.cpp      **** }
 586:main.cpp      **** 
 587:main.cpp      **** /* SRAM memory handling routines */
 588:main.cpp      **** void writeSram(uint32_t l_addr, uint8_t l_data)
 589:main.cpp      **** {
 590:main.cpp      ****   /* Pointer write on specific location of backup SRAM */
 591:main.cpp      ****   *(volatile uint8_t *) (WRITE_READ_SRAM_ADDR + l_addr) = l_data;
 592:main.cpp      **** }
 593:main.cpp      **** 
 594:main.cpp      **** uint8_t readSram(uint32_t l_addr)
 595:main.cpp      **** {
 596:main.cpp      ****   uint8_t i_retval;
 597:main.cpp      **** 	
 598:main.cpp      ****   /* Pointer write from specific location of backup SRAM */
 599:main.cpp      ****   i_retval =  *(volatile uint8_t *) (WRITE_READ_SRAM_ADDR + l_addr);
 600:main.cpp      **** 	
 601:main.cpp      ****   return i_retval;
 602:main.cpp      **** }
 603:main.cpp      **** 
 604:main.cpp      **** void writeSramWord(uint32_t l_addr_w, uint16_t l_data_w)
 605:main.cpp      **** {
 606:main.cpp      ****   /* Pointer write on specific location of backup SRAM */
 607:main.cpp      ****   *(volatile uint16_t *) (WRITE_READ_SRAM_ADDR + l_addr_w) = l_data_w;
 608:main.cpp      **** }
 609:main.cpp      **** 
 610:main.cpp      **** uint16_t readSramWord(uint32_t l_addr_w)
 368              		.loc 13 610 10 is_stmt 1 view .LVU80
 369              	.LBB316:
 611:main.cpp      **** {
 612:main.cpp      ****   uint16_t i_retval_w;
 370              		.loc 13 612 3 view .LVU81
 613:main.cpp      **** 	
 614:main.cpp      ****   /* Pointer write from specific location of backup SRAM */
 615:main.cpp      ****   i_retval_w =  *(volatile uint16_t *) (WRITE_READ_SRAM_ADDR + l_addr_w);
 371              		.loc 13 615 3 view .LVU82
 372              	.LBE316:
 373              	.LBE315:
 514:main.cpp      **** 		{
 374              		.loc 13 514 17 is_stmt 0 view .LVU83
 375 0022 B9F80010 		ldrh	r1, [r9]
 376              	.LBB319:
 377              	.LBB317:
 378              		.loc 13 615 62 view .LVU84
 379 0026 03F10052 		add	r2, r3, #536870912
 380              	.LBE317:
 381              	.LBE319:
 512:main.cpp      **** 		
 382              		.loc 13 512 11 view .LVU85
 383 002a 224D     		ldr	r5, .L34+4
 384              	.LBB320:
 385              	.LBB318:
 386              		.loc 13 615 14 view .LVU86
 387 002c 1288     		ldrh	r2, [r2]
ARM GAS  /var/folders/kw/h2sg8jtn02b91cpsjc1nlpg80000gn/T//cccUH3U8.s 			page 37


 388 002e 92B2     		uxth	r2, r2
 389              	.LVL17:
 616:main.cpp      **** 	
 617:main.cpp      ****   return i_retval_w;
 390              		.loc 13 617 3 is_stmt 1 view .LVU87
 391              		.loc 13 617 3 is_stmt 0 view .LVU88
 392              	.LBE318:
 393              	.LBE320:
 514:main.cpp      **** 		{
 394              		.loc 13 514 17 view .LVU89
 395 0030 8A42     		cmp	r2, r1
 512:main.cpp      **** 		
 396              		.loc 13 512 11 view .LVU90
 397 0032 2A80     		strh	r2, [r5]	@ movhi
 514:main.cpp      **** 		{
 398              		.loc 13 514 3 is_stmt 1 view .LVU91
 514:main.cpp      **** 		{
 399              		.loc 13 514 17 view .LVU92
 400 0034 ECD1     		bne	.L24
 401 0036 DFF89480 		ldr	r8, .L34+28
 402 003a 1F4F     		ldr	r7, .L34+8
 403 003c 1F4E     		ldr	r6, .L34+12
 404 003e 0BE0     		b	.L29
 405              	.LVL18:
 406              	.L33:
 541:main.cpp      **** 			}
 407              		.loc 13 541 19 is_stmt 0 view .LVU93
 408 0040 FFF7FEFF 		bl	_ZN7VASynth6NoteOnEhh
 409              	.LVL19:
 410              	.L28:
 550:main.cpp      **** 		}
 411              		.loc 13 550 4 is_stmt 1 view .LVU94
 550:main.cpp      **** 		}
 412              		.loc 13 550 26 is_stmt 0 view .LVU95
 413 0044 2368     		ldr	r3, [r4]
 414              	.LVL20:
 415              	.LBB321:
 416              	.LBI321:
 610:main.cpp      **** {
 417              		.loc 13 610 10 is_stmt 1 view .LVU96
 418              	.LBB322:
 612:main.cpp      **** 	
 419              		.loc 13 612 3 view .LVU97
 615:main.cpp      **** 	
 420              		.loc 13 615 3 view .LVU98
 421              	.LBE322:
 422              	.LBE321:
 514:main.cpp      **** 		{
 423              		.loc 13 514 17 is_stmt 0 view .LVU99
 424 0046 B9F80010 		ldrh	r1, [r9]
 425              	.LBB324:
 426              	.LBB323:
 615:main.cpp      **** 	
 427              		.loc 13 615 62 view .LVU100
 428 004a 03F10052 		add	r2, r3, #536870912
 615:main.cpp      **** 	
 429              		.loc 13 615 14 view .LVU101
ARM GAS  /var/folders/kw/h2sg8jtn02b91cpsjc1nlpg80000gn/T//cccUH3U8.s 			page 38


 430 004e 1288     		ldrh	r2, [r2]
 431 0050 92B2     		uxth	r2, r2
 432              	.LVL21:
 433              		.loc 13 617 3 is_stmt 1 view .LVU102
 434              		.loc 13 617 3 is_stmt 0 view .LVU103
 435              	.LBE323:
 436              	.LBE324:
 514:main.cpp      **** 		{
 437              		.loc 13 514 17 view .LVU104
 438 0052 9142     		cmp	r1, r2
 550:main.cpp      **** 		}
 439              		.loc 13 550 12 view .LVU105
 440 0054 2A80     		strh	r2, [r5]	@ movhi
 514:main.cpp      **** 		{
 441              		.loc 13 514 3 is_stmt 1 view .LVU106
 514:main.cpp      **** 		{
 442              		.loc 13 514 17 view .LVU107
 443 0056 DBD1     		bne	.L24
 444              	.L29:
 517:main.cpp      **** 			seqmem++;
 445              		.loc 13 517 4 view .LVU108
 518:main.cpp      **** 			
 446              		.loc 13 518 4 view .LVU109
 538:main.cpp      **** 			{
 447              		.loc 13 538 4 view .LVU110
 541:main.cpp      **** 			}
 448              		.loc 13 541 5 view .LVU111
 546:main.cpp      **** 			}
 449              		.loc 13 546 5 view .LVU112
 518:main.cpp      **** 			
 450              		.loc 13 518 10 is_stmt 0 view .LVU113
 451 0058 981C     		adds	r0, r3, #2
 452              	.LBB325:
 453              	.LBB326:
 599:main.cpp      **** 	
 454              		.loc 13 599 59 view .LVU114
 455 005a 194A     		ldr	r2, .L34+16
 456              	.LBE326:
 457              	.LBE325:
 524:main.cpp      **** 		
 458              		.loc 13 524 10 view .LVU115
 459 005c D91C     		adds	r1, r3, #3
 460              	.LBB329:
 461              	.LBB330:
 599:main.cpp      **** 	
 462              		.loc 13 599 59 view .LVU116
 463 005e DFF870A0 		ldr	r10, .L34+32
 464              	.LBE330:
 465              	.LBE329:
 518:main.cpp      **** 			
 466              		.loc 13 518 10 view .LVU117
 467 0062 2060     		str	r0, [r4]
 521:main.cpp      **** 			seqmsg = seqnote & 0x80;
 468              		.loc 13 521 4 is_stmt 1 view .LVU118
 469              	.LVL22:
 470              	.LBB333:
 471              	.LBI325:
ARM GAS  /var/folders/kw/h2sg8jtn02b91cpsjc1nlpg80000gn/T//cccUH3U8.s 			page 39


 594:main.cpp      **** {
 472              		.loc 13 594 9 view .LVU119
 473              	.LBB327:
 596:main.cpp      **** 	
 474              		.loc 13 596 3 view .LVU120
 599:main.cpp      **** 	
 475              		.loc 13 599 3 view .LVU121
 599:main.cpp      **** 	
 476              		.loc 13 599 12 is_stmt 0 view .LVU122
 477 0064 9A5C     		ldrb	r2, [r3, r2]	@ zero_extendqisi2
 478              	.LBE327:
 479              	.LBE333:
 524:main.cpp      **** 		
 480              		.loc 13 524 10 view .LVU123
 481 0066 2160     		str	r1, [r4]
 528:main.cpp      **** 			
 482              		.loc 13 528 10 view .LVU124
 483 0068 191D     		adds	r1, r3, #4
 484 006a 02F07F0C 		and	ip, r2, #127
 522:main.cpp      **** 			seqnote = seqnote & 0x7F;
 485              		.loc 13 522 21 view .LVU125
 486 006e 02F0800B 		and	fp, r2, #128
 487              	.LBB334:
 488              	.LBB328:
 599:main.cpp      **** 	
 489              		.loc 13 599 12 view .LVU126
 490 0072 5FFA82FE 		uxtb	lr, r2
 491              	.LVL23:
 601:main.cpp      **** }
 492              		.loc 13 601 3 is_stmt 1 view .LVU127
 601:main.cpp      **** }
 493              		.loc 13 601 3 is_stmt 0 view .LVU128
 494              	.LBE328:
 495              	.LBE334:
 522:main.cpp      **** 			seqnote = seqnote & 0x7F;
 496              		.loc 13 522 4 is_stmt 1 view .LVU129
 541:main.cpp      **** 			}
 497              		.loc 13 541 19 is_stmt 0 view .LVU130
 498 0076 1348     		ldr	r0, .L34+20
 522:main.cpp      **** 			seqnote = seqnote & 0x7F;
 499              		.loc 13 522 21 view .LVU131
 500 0078 A8F800B0 		strh	fp, [r8]	@ movhi
 523:main.cpp      **** 			seqmem++;
 501              		.loc 13 523 4 is_stmt 1 view .LVU132
 523:main.cpp      **** 			seqmem++;
 502              		.loc 13 523 22 is_stmt 0 view .LVU133
 503 007c A7F800C0 		strh	ip, [r7]	@ movhi
 524:main.cpp      **** 		
 504              		.loc 13 524 4 is_stmt 1 view .LVU134
 527:main.cpp      **** 			seqmem++;
 505              		.loc 13 527 4 view .LVU135
 506              	.LVL24:
 507              	.LBB335:
 508              	.LBI329:
 594:main.cpp      **** {
 509              		.loc 13 594 9 view .LVU136
 510              	.LBB331:
ARM GAS  /var/folders/kw/h2sg8jtn02b91cpsjc1nlpg80000gn/T//cccUH3U8.s 			page 40


 596:main.cpp      **** 	
 511              		.loc 13 596 3 view .LVU137
 599:main.cpp      **** 	
 512              		.loc 13 599 3 view .LVU138
 599:main.cpp      **** 	
 513              		.loc 13 599 12 is_stmt 0 view .LVU139
 514 0080 13F80A20 		ldrb	r2, [r3, r10]	@ zero_extendqisi2
 515              	.LBE331:
 516              	.LBE335:
 528:main.cpp      **** 			
 517              		.loc 13 528 10 view .LVU140
 518 0084 2160     		str	r1, [r4]
 519              	.LVL25:
 541:main.cpp      **** 			}
 520              		.loc 13 541 19 view .LVU141
 521 0086 6146     		mov	r1, ip
 527:main.cpp      **** 			seqmem++;
 522              		.loc 13 527 26 view .LVU142
 523 0088 1346     		mov	r3, r2
 524              	.LVL26:
 525              	.LBB336:
 526              	.LBB332:
 599:main.cpp      **** 	
 527              		.loc 13 599 12 view .LVU143
 528 008a D2B2     		uxtb	r2, r2
 529              	.LVL27:
 601:main.cpp      **** }
 530              		.loc 13 601 3 is_stmt 1 view .LVU144
 601:main.cpp      **** }
 531              		.loc 13 601 3 is_stmt 0 view .LVU145
 532              	.LBE332:
 533              	.LBE336:
 530:main.cpp      **** 			{
 534              		.loc 13 530 4 view .LVU146
 535 008c FF2B     		cmp	r3, #255
 527:main.cpp      **** 			seqmem++;
 536              		.loc 13 527 16 view .LVU147
 537 008e 3380     		strh	r3, [r6]	@ movhi
 528:main.cpp      **** 			
 538              		.loc 13 528 4 is_stmt 1 view .LVU148
 530:main.cpp      **** 			{
 539              		.loc 13 530 4 view .LVU149
 540 0090 06D0     		beq	.L32
 538:main.cpp      **** 			{
 541              		.loc 13 538 4 is_stmt 0 view .LVU150
 542 0092 1EF0800F 		tst	lr, #128
 543 0096 D3D1     		bne	.L33
 546:main.cpp      **** 			}
 544              		.loc 13 546 20 view .LVU151
 545 0098 0A48     		ldr	r0, .L34+20
 546 009a FFF7FEFF 		bl	_ZN7VASynth7NoteOffEh
 547              	.LVL28:
 548 009e D1E7     		b	.L28
 549              	.L32:
 533:main.cpp      **** 				seqmem = 0x00010000;
 550              		.loc 13 533 5 is_stmt 1 view .LVU152
 533:main.cpp      **** 				seqmem = 0x00010000;
ARM GAS  /var/folders/kw/h2sg8jtn02b91cpsjc1nlpg80000gn/T//cccUH3U8.s 			page 41


 551              		.loc 13 533 14 is_stmt 0 view .LVU153
 552 00a0 0022     		movs	r2, #0
 534:main.cpp      **** 				return;
 553              		.loc 13 534 12 view .LVU154
 554 00a2 4FF48033 		mov	r3, #65536
 533:main.cpp      **** 				seqmem = 0x00010000;
 555              		.loc 13 533 14 view .LVU155
 556 00a6 A9F80020 		strh	r2, [r9]	@ movhi
 534:main.cpp      **** 				return;
 557              		.loc 13 534 5 is_stmt 1 view .LVU156
 534:main.cpp      **** 				return;
 558              		.loc 13 534 12 is_stmt 0 view .LVU157
 559 00aa 2360     		str	r3, [r4]
 535:main.cpp      **** 			}
 560              		.loc 13 535 5 is_stmt 1 view .LVU158
 556:main.cpp      **** 
 561              		.loc 13 556 1 is_stmt 0 view .LVU159
 562 00ac BDE8F88F 		pop	{r3, r4, r5, r6, r7, r8, r9, r10, fp, pc}
 563              	.L35:
 564              		.align	2
 565              	.L34:
 566 00b0 00000000 		.word	.LANCHOR2
 567 00b4 00000000 		.word	.LANCHOR3
 568 00b8 00000000 		.word	.LANCHOR6
 569 00bc 00000000 		.word	.LANCHOR7
 570 00c0 02000020 		.word	536870914
 571 00c4 00000000 		.word	.LANCHOR1
 572 00c8 00000000 		.word	.LANCHOR4
 573 00cc 00000000 		.word	.LANCHOR5
 574 00d0 03000020 		.word	536870915
 575              		.cfi_endproc
 576              	.LFE5469:
 578              		.section	.text._ZN5daisy11MidiHandlerINS_16MidiUsbTransportEE13ParseCallbackEPhjPv,"axG",%progbits
 579              		.align	1
 580              		.p2align 2,,3
 581              		.weak	_ZN5daisy11MidiHandlerINS_16MidiUsbTransportEE13ParseCallbackEPhjPv
 582              		.syntax unified
 583              		.thumb
 584              		.thumb_func
 586              	_ZN5daisy11MidiHandlerINS_16MidiUsbTransportEE13ParseCallbackEPhjPv:
 587              	.LVL29:
 588              	.LFB5362:
 157:../../libDaisy/src/hid/midi.h **** 
 158:../../libDaisy/src/hid/midi.h ****     struct Config
 159:../../libDaisy/src/hid/midi.h ****     {
 160:../../libDaisy/src/hid/midi.h ****         typename Transport::Config transport_config;
 161:../../libDaisy/src/hid/midi.h ****     };
 162:../../libDaisy/src/hid/midi.h **** 
 163:../../libDaisy/src/hid/midi.h ****     /** Initializes the MidiHandler
 164:../../libDaisy/src/hid/midi.h ****      *  \param config Configuration structure used to define specifics to the MIDI Handler.
 165:../../libDaisy/src/hid/midi.h ****      */
 166:../../libDaisy/src/hid/midi.h ****     void Init(Config config)
 167:../../libDaisy/src/hid/midi.h ****     {
 168:../../libDaisy/src/hid/midi.h ****         config_ = config;
 169:../../libDaisy/src/hid/midi.h ****         transport_.Init(config_.transport_config);
 170:../../libDaisy/src/hid/midi.h ****         parser_.Init();
 171:../../libDaisy/src/hid/midi.h ****     }
ARM GAS  /var/folders/kw/h2sg8jtn02b91cpsjc1nlpg80000gn/T//cccUH3U8.s 			page 42


 172:../../libDaisy/src/hid/midi.h **** 
 173:../../libDaisy/src/hid/midi.h ****     /** Starts listening on the selected input mode(s).
 174:../../libDaisy/src/hid/midi.h ****      * MidiEvent Queue will begin to fill, and can be checked with HasEvents() */
 175:../../libDaisy/src/hid/midi.h ****     void StartReceive()
 176:../../libDaisy/src/hid/midi.h ****     {
 177:../../libDaisy/src/hid/midi.h ****         transport_.StartRx(MidiHandler::ParseCallback, this);
 178:../../libDaisy/src/hid/midi.h ****     }
 179:../../libDaisy/src/hid/midi.h **** 
 180:../../libDaisy/src/hid/midi.h ****     /** Start listening */
 181:../../libDaisy/src/hid/midi.h ****     void Listen()
 182:../../libDaisy/src/hid/midi.h ****     {
 183:../../libDaisy/src/hid/midi.h ****         // In case of UART Error, (particularly
 184:../../libDaisy/src/hid/midi.h ****         //  overrun error), UART disables itself.
 185:../../libDaisy/src/hid/midi.h ****         // Flush the buff, and restart.
 186:../../libDaisy/src/hid/midi.h ****         if(!transport_.RxActive())
 187:../../libDaisy/src/hid/midi.h ****         {
 188:../../libDaisy/src/hid/midi.h ****             parser_.Reset();
 189:../../libDaisy/src/hid/midi.h ****             transport_.FlushRx();
 190:../../libDaisy/src/hid/midi.h ****             StartReceive();
 191:../../libDaisy/src/hid/midi.h ****         }
 192:../../libDaisy/src/hid/midi.h ****     }
 193:../../libDaisy/src/hid/midi.h **** 
 194:../../libDaisy/src/hid/midi.h ****     /** Checks if there are unhandled messages in the queue
 195:../../libDaisy/src/hid/midi.h ****     \return True if there are events to be handled, else false.
 196:../../libDaisy/src/hid/midi.h ****      */
 197:../../libDaisy/src/hid/midi.h ****     bool HasEvents() const { return event_q_.GetNumElements() > 0; }
 198:../../libDaisy/src/hid/midi.h **** 
 199:../../libDaisy/src/hid/midi.h **** 
 200:../../libDaisy/src/hid/midi.h ****     /** Pops the oldest unhandled MidiEvent from the internal queue
 201:../../libDaisy/src/hid/midi.h ****     \return The event to be handled
 202:../../libDaisy/src/hid/midi.h ****      */
 203:../../libDaisy/src/hid/midi.h ****     MidiEvent PopEvent() { return event_q_.PopFront(); }
 204:../../libDaisy/src/hid/midi.h **** 
 205:../../libDaisy/src/hid/midi.h ****     /** SendMessage
 206:../../libDaisy/src/hid/midi.h ****     Send raw bytes as message
 207:../../libDaisy/src/hid/midi.h ****     */
 208:../../libDaisy/src/hid/midi.h ****     void SendMessage(uint8_t* bytes, size_t size)
 209:../../libDaisy/src/hid/midi.h ****     {
 210:../../libDaisy/src/hid/midi.h ****         transport_.Tx(bytes, size);
 211:../../libDaisy/src/hid/midi.h ****     }
 212:../../libDaisy/src/hid/midi.h **** 
 213:../../libDaisy/src/hid/midi.h ****     /** Feed in bytes to parser state machine from an external source.
 214:../../libDaisy/src/hid/midi.h ****         Populates internal FIFO queue with MIDI Messages.
 215:../../libDaisy/src/hid/midi.h **** 
 216:../../libDaisy/src/hid/midi.h ****         \note  Normally application code won't need to use this method directly.
 217:../../libDaisy/src/hid/midi.h ****         \param byte MIDI byte to be parsed
 218:../../libDaisy/src/hid/midi.h ****     */
 219:../../libDaisy/src/hid/midi.h ****     void Parse(uint8_t byte)
 220:../../libDaisy/src/hid/midi.h ****     {
 221:../../libDaisy/src/hid/midi.h ****         MidiEvent event;
 222:../../libDaisy/src/hid/midi.h ****         if(parser_.Parse(byte, &event))
 223:../../libDaisy/src/hid/midi.h ****         {
 224:../../libDaisy/src/hid/midi.h ****             event_q_.PushBack(event);
 225:../../libDaisy/src/hid/midi.h ****         }
 226:../../libDaisy/src/hid/midi.h ****     }
 227:../../libDaisy/src/hid/midi.h **** 
 228:../../libDaisy/src/hid/midi.h ****   private:
ARM GAS  /var/folders/kw/h2sg8jtn02b91cpsjc1nlpg80000gn/T//cccUH3U8.s 			page 43


 229:../../libDaisy/src/hid/midi.h ****     Config               config_;
 230:../../libDaisy/src/hid/midi.h ****     Transport            transport_;
 231:../../libDaisy/src/hid/midi.h ****     MidiParser           parser_;
 232:../../libDaisy/src/hid/midi.h ****     FIFO<MidiEvent, 256> event_q_;
 233:../../libDaisy/src/hid/midi.h **** 
 234:../../libDaisy/src/hid/midi.h ****     static void ParseCallback(uint8_t* data, size_t size, void* context)
 589              		.loc 8 234 17 is_stmt 1 view -0
 590              		.cfi_startproc
 591              		@ args = 0, pretend = 0, frame = 144
 592              		@ frame_needed = 0, uses_anonymous_args = 0
 593              	.LBB346:
 235:../../libDaisy/src/hid/midi.h ****     {
 236:../../libDaisy/src/hid/midi.h ****         MidiHandler* handler = reinterpret_cast<MidiHandler*>(context);
 237:../../libDaisy/src/hid/midi.h ****         for(size_t i = 0; i < size; i++)
 594              		.loc 8 237 29 view .LVU161
 595 0000 B9B3     		cbz	r1, .L46
 596 0002 0144     		add	r1, r1, r0
 597              	.LVL30:
 598              		.loc 8 237 29 is_stmt 0 view .LVU162
 599              	.LBE346:
 234:../../libDaisy/src/hid/midi.h ****     {
 600              		.loc 8 234 17 view .LVU163
 601 0004 F0B5     		push	{r4, r5, r6, r7, lr}
 602              		.cfi_def_cfa_offset 20
 603              		.cfi_offset 4, -20
 604              		.cfi_offset 5, -16
 605              		.cfi_offset 6, -12
 606              		.cfi_offset 7, -8
 607              		.cfi_offset 14, -4
 608 0006 1546     		mov	r5, r2
 609 0008 A5B0     		sub	sp, sp, #148
 610              		.cfi_def_cfa_offset 168
 611              	.LBB365:
 612              	.LBB347:
 613              	.LBB348:
 222:../../libDaisy/src/hid/midi.h ****         {
 614              		.loc 8 222 25 view .LVU164
 615 000a 02F10807 		add	r7, r2, #8
 616 000e 441E     		subs	r4, r0, #1
 617 0010 4E1E     		subs	r6, r1, #1
 618 0012 01E0     		b	.L44
 619              	.LVL31:
 620              	.L39:
 222:../../libDaisy/src/hid/midi.h ****         {
 621              		.loc 8 222 25 view .LVU165
 622              	.LBE348:
 623              	.LBE347:
 624              		.loc 8 237 9 is_stmt 1 view .LVU166
 625              		.loc 8 237 29 view .LVU167
 626 0014 A642     		cmp	r6, r4
 627 0016 2AD0     		beq	.L49
 628              	.LVL32:
 629              	.L44:
 630              	.LBB364:
 631              	.LBI347:
 219:../../libDaisy/src/hid/midi.h ****     {
 632              		.loc 8 219 10 discriminator 2 view .LVU168
ARM GAS  /var/folders/kw/h2sg8jtn02b91cpsjc1nlpg80000gn/T//cccUH3U8.s 			page 44


 633              	.LBB363:
 222:../../libDaisy/src/hid/midi.h ****         {
 634              		.loc 8 222 25 is_stmt 0 discriminator 2 view .LVU169
 635 0018 14F8011F 		ldrb	r1, [r4, #1]!	@ zero_extendqisi2
 636              	.LVL33:
 222:../../libDaisy/src/hid/midi.h ****         {
 637              		.loc 8 222 25 discriminator 2 view .LVU170
 638 001c 6A46     		mov	r2, sp
 639 001e 3846     		mov	r0, r7
 640 0020 FFF7FEFF 		bl	_ZN5daisy10MidiParser5ParseEhPNS_9MidiEventE
 641              	.LVL34:
 222:../../libDaisy/src/hid/midi.h ****         {
 642              		.loc 8 222 9 discriminator 2 view .LVU171
 643 0024 0028     		cmp	r0, #0
 644 0026 F5D0     		beq	.L39
 645              	.LVL35:
 646              	.LBB349:
 647              	.LBI349:
  49:../../libDaisy/src/util/FIFO.h ****     {
 648              		.loc 9 49 10 is_stmt 1 view .LVU172
 649              	.LBB350:
 650              	.LBB351:
 651              	.LBI351:
 168:../../libDaisy/src/util/FIFO.h **** 
 652              		.loc 9 168 10 view .LVU173
 653              	.LBB352:
 654              	.LBB353:
 655              	.LBI353:
 171:../../libDaisy/src/util/FIFO.h ****     {
 656              		.loc 9 171 12 view .LVU174
 657              	.LBB354:
 175:../../libDaisy/src/util/FIFO.h ****         return size_t(numElements);
 658              		.loc 9 175 28 is_stmt 0 view .LVU175
 659 0028 D5F8A8C0 		ldr	ip, [r5, #168]
 660              	.LBE354:
 661              	.LBE353:
 662              	.LBE352:
 663              	.LBE351:
  53:../../libDaisy/src/util/FIFO.h ****             if(bufferIn_ >= bufferSize_)
 664              		.loc 9 53 13 view .LVU176
 665 002c 9022     		movs	r2, #144
 666 002e 6946     		mov	r1, sp
 667              	.LBB361:
 668              	.LBB359:
 669              	.LBB357:
 670              	.LBB355:
 173:../../libDaisy/src/util/FIFO.h ****         if(numElements < 0)
 671              		.loc 9 173 41 view .LVU177
 672 0030 D5E92B03 		ldrd	r0, r3, [r5, #172]
 673              	.LVL36:
 174:../../libDaisy/src/util/FIFO.h ****             numElements += bufferSize_;
 674              		.loc 9 174 9 view .LVU178
 675 0034 C31A     		subs	r3, r0, r3
 676              	.LVL37:
 174:../../libDaisy/src/util/FIFO.h ****             numElements += bufferSize_;
 677              		.loc 9 174 9 view .LVU179
 678              	.LBE355:
ARM GAS  /var/folders/kw/h2sg8jtn02b91cpsjc1nlpg80000gn/T//cccUH3U8.s 			page 45


 679              	.LBE357:
 680              	.LBE359:
 681              	.LBE361:
  53:../../libDaisy/src/util/FIFO.h ****             if(bufferIn_ >= bufferSize_)
 682              		.loc 9 53 13 view .LVU180
 683 0036 00F1010E 		add	lr, r0, #1
 684 003a 00EBC000 		add	r0, r0, r0, lsl #3
 685              	.LBB362:
 686              	.LBB360:
 687              	.LBB358:
 688              	.LBB356:
 175:../../libDaisy/src/util/FIFO.h ****         return size_t(numElements);
 689              		.loc 9 175 25 view .LVU181
 690 003e 48BF     		it	mi
 691 0040 6344     		addmi	r3, r3, ip
 692              	.LVL38:
 175:../../libDaisy/src/util/FIFO.h ****         return size_t(numElements);
 693              		.loc 9 175 25 view .LVU182
 694              	.LBE356:
 695              	.LBE358:
 168:../../libDaisy/src/util/FIFO.h **** 
 696              		.loc 9 168 66 view .LVU183
 697 0042 0CF1FF3C 		add	ip, ip, #-1
 698              	.LBE360:
 699              	.LBE362:
  51:../../libDaisy/src/util/FIFO.h ****         {
 700              		.loc 9 51 9 view .LVU184
 701 0046 9C45     		cmp	ip, r3
 702 0048 E4D0     		beq	.L39
  53:../../libDaisy/src/util/FIFO.h ****             if(bufferIn_ >= bufferSize_)
 703              		.loc 9 53 13 view .LVU185
 704 004a D5F8A430 		ldr	r3, [r5, #164]
 705 004e C5F8ACE0 		str	lr, [r5, #172]
 706 0052 03EB0010 		add	r0, r3, r0, lsl #4
 707 0056 FFF7FEFF 		bl	memcpy
 708              	.LVL39:
  54:../../libDaisy/src/util/FIFO.h ****                 bufferIn_ -= bufferSize_;
 709              		.loc 9 54 29 view .LVU186
 710 005a D5E92A23 		ldrd	r2, r3, [r5, #168]
  54:../../libDaisy/src/util/FIFO.h ****                 bufferIn_ -= bufferSize_;
 711              		.loc 9 54 13 view .LVU187
 712 005e 9342     		cmp	r3, r2
  55:../../libDaisy/src/util/FIFO.h ****             return true;
 713              		.loc 9 55 27 view .LVU188
 714 0060 A3EB0203 		sub	r3, r3, r2
 715 0064 28BF     		it	cs
 716 0066 C5F8AC30 		strcs	r3, [r5, #172]
 717              	.LVL40:
  55:../../libDaisy/src/util/FIFO.h ****             return true;
 718              		.loc 9 55 27 view .LVU189
 719              	.LBE350:
 720              	.LBE349:
 721              	.LBE363:
 722              	.LBE364:
 723              		.loc 8 237 9 is_stmt 1 view .LVU190
 724              		.loc 8 237 29 view .LVU191
 725 006a A642     		cmp	r6, r4
ARM GAS  /var/folders/kw/h2sg8jtn02b91cpsjc1nlpg80000gn/T//cccUH3U8.s 			page 46


 726 006c D4D1     		bne	.L44
 727              	.LVL41:
 728              	.L49:
 729              		.loc 8 237 29 is_stmt 0 view .LVU192
 730              	.LBE365:
 238:../../libDaisy/src/hid/midi.h ****         {
 239:../../libDaisy/src/hid/midi.h ****             handler->Parse(data[i]);
 240:../../libDaisy/src/hid/midi.h ****         }
 241:../../libDaisy/src/hid/midi.h ****     }
 731              		.loc 8 241 5 view .LVU193
 732 006e 25B0     		add	sp, sp, #148
 733              		.cfi_def_cfa_offset 20
 734              		@ sp needed
 735 0070 F0BD     		pop	{r4, r5, r6, r7, pc}
 736              	.LVL42:
 737              	.L46:
 738              		.cfi_def_cfa_offset 0
 739              		.cfi_restore 4
 740              		.cfi_restore 5
 741              		.cfi_restore 6
 742              		.cfi_restore 7
 743              		.cfi_restore 14
 744              		.loc 8 241 5 view .LVU194
 745 0072 7047     		bx	lr
 746              		.cfi_endproc
 747              	.LFE5362:
 749              		.section	.text._Z8CallbackPv,"ax",%progbits
 750              		.align	1
 751              		.p2align 2,,3
 752              		.global	_Z8CallbackPv
 753              		.syntax unified
 754              		.thumb
 755              		.thumb_func
 757              	_Z8CallbackPv:
 758              	.LVL43:
 759              	.LFB4861:
 618:main.cpp      **** }
 619:main.cpp      **** 
 620:main.cpp      **** /* Process sequencer requests */
 621:main.cpp      **** void Callback(void* data)
 622:main.cpp      **** {
 760              		.loc 13 622 1 is_stmt 1 view -0
 761              		.cfi_startproc
 762              		@ args = 0, pretend = 0, frame = 0
 763              		@ frame_needed = 0, uses_anonymous_args = 0
 764              		@ link register save eliminated.
 623:main.cpp      **** 	SequencerPlay(seqmode);
 765              		.loc 13 623 2 view .LVU196
 766              		.loc 13 623 15 is_stmt 0 view .LVU197
 767 0000 054B     		ldr	r3, .L55
 768 0002 1888     		ldrh	r0, [r3]
 769              	.LVL44:
 770              	.LBB368:
 771              	.LBI368:
 500:main.cpp      **** {
 772              		.loc 13 500 6 is_stmt 1 view .LVU198
 773              	.LBB369:
ARM GAS  /var/folders/kw/h2sg8jtn02b91cpsjc1nlpg80000gn/T//cccUH3U8.s 			page 47


 502:main.cpp      **** 	{
 774              		.loc 13 502 2 view .LVU199
 775 0004 08B1     		cbz	r0, .L54
 776 0006 FFF7FEBF 		b	_Z13SequencerPlayt.part.0
 777              	.LVL45:
 778              	.L54:
 504:main.cpp      **** 		seqmem = 0x00010000;
 779              		.loc 13 504 3 view .LVU200
 504:main.cpp      **** 		seqmem = 0x00010000;
 780              		.loc 13 504 12 is_stmt 0 view .LVU201
 781 000a 0449     		ldr	r1, .L55+4
 505:main.cpp      **** 		return;
 782              		.loc 13 505 10 view .LVU202
 783 000c 4FF48032 		mov	r2, #65536
 784 0010 034B     		ldr	r3, .L55+8
 504:main.cpp      **** 		seqmem = 0x00010000;
 785              		.loc 13 504 12 view .LVU203
 786 0012 0880     		strh	r0, [r1]	@ movhi
 505:main.cpp      **** 		return;
 787              		.loc 13 505 3 is_stmt 1 view .LVU204
 505:main.cpp      **** 		return;
 788              		.loc 13 505 10 is_stmt 0 view .LVU205
 789 0014 1A60     		str	r2, [r3]
 506:main.cpp      **** 	}
 790              		.loc 13 506 3 is_stmt 1 view .LVU206
 791              	.LBE369:
 792              	.LBE368:
 624:main.cpp      **** }
 793              		.loc 13 624 1 is_stmt 0 view .LVU207
 794 0016 7047     		bx	lr
 795              	.L56:
 796              		.align	2
 797              	.L55:
 798 0018 00000000 		.word	.LANCHOR8
 799 001c 00000000 		.word	.LANCHOR4
 800 0020 00000000 		.word	.LANCHOR2
 801              		.cfi_endproc
 802              	.LFE4861:
 804              		.section	.text._ZN7VASynthC2Ev,"axG",%progbits,_ZN7VASynthC5Ev,comdat
 805              		.align	1
 806              		.p2align 2,,3
 807              		.weak	_ZN7VASynthC2Ev
 808              		.syntax unified
 809              		.thumb
 810              		.thumb_func
 812              	_ZN7VASynthC2Ev:
 813              	.LVL46:
 814              	.LFB4848:
  73:vasynth.h     ****     ~VASynth() {}
 815              		.loc 6 73 5 is_stmt 1 view -0
 816              		.cfi_startproc
 817              		@ args = 0, pretend = 0, frame = 0
 818              		@ frame_needed = 0, uses_anonymous_args = 0
 819              	.LBB370:
  73:vasynth.h     ****     ~VASynth() {}
 820              		.loc 6 73 15 view .LVU209
  73:vasynth.h     ****     ~VASynth() {}
ARM GAS  /var/folders/kw/h2sg8jtn02b91cpsjc1nlpg80000gn/T//cccUH3U8.s 			page 48


 821              		.loc 6 73 15 view .LVU210
 822              	.LBB371:
 823              	.LBI371:
  23:../../DaisySP/Source/Synthesis/oscillator.h ****     ~Oscillator() {}
 824              		.loc 7 23 5 view .LVU211
  23:../../DaisySP/Source/Synthesis/oscillator.h ****     ~Oscillator() {}
 825              		.loc 7 23 5 is_stmt 0 view .LVU212
 826              	.LBE371:
 827              	.LBB372:
 828              	.LBI372:
  23:../../DaisySP/Source/Synthesis/oscillator.h ****     ~Oscillator() {}
 829              		.loc 7 23 5 is_stmt 1 view .LVU213
  23:../../DaisySP/Source/Synthesis/oscillator.h ****     ~Oscillator() {}
 830              		.loc 7 23 5 is_stmt 0 view .LVU214
 831              	.LBE372:
 832              	.LBB373:
 833              	.LBI373:
  23:../../DaisySP/Source/Synthesis/oscillator.h ****     ~Oscillator() {}
 834              		.loc 7 23 5 is_stmt 1 view .LVU215
  23:../../DaisySP/Source/Synthesis/oscillator.h ****     ~Oscillator() {}
 835              		.loc 7 23 5 is_stmt 0 view .LVU216
 836              	.LBE373:
 837              	.LBB374:
 838              	.LBI374:
  23:../../DaisySP/Source/Synthesis/oscillator.h ****     ~Oscillator() {}
 839              		.loc 7 23 5 is_stmt 1 view .LVU217
  23:../../DaisySP/Source/Synthesis/oscillator.h ****     ~Oscillator() {}
 840              		.loc 7 23 5 is_stmt 0 view .LVU218
 841              	.LBE374:
  73:vasynth.h     ****     ~VASynth() {}
 842              		.loc 6 73 15 is_stmt 1 view .LVU219
 843              	.LBE370:
  73:vasynth.h     ****     ~VASynth() {}
 844              		.loc 6 73 5 is_stmt 0 view .LVU220
 845 0000 00B5     		push	{lr}
 846              		.cfi_def_cfa_offset 4
 847              		.cfi_offset 14, -4
 848 0002 00F21C43 		addw	r3, r0, #1052
 849 0006 00F26C5E 		addw	lr, r0, #1388
 850              	.L58:
 851              	.LVL47:
 852              	.LBB385:
 853              	.LBB375:
 854              	.LBI375:
 855              		.file 14 "../../DaisySP/Source/Control/adsr.h"
   1:../../DaisySP/Source/Control/adsr.h **** /*
   2:../../DaisySP/Source/Control/adsr.h **** Copyright (c) 2020 Electrosmith, Corp, Paul Batchelor
   3:../../DaisySP/Source/Control/adsr.h **** 
   4:../../DaisySP/Source/Control/adsr.h **** Use of this source code is governed by an MIT-style
   5:../../DaisySP/Source/Control/adsr.h **** license that can be found in the LICENSE file or at
   6:../../DaisySP/Source/Control/adsr.h **** https://opensource.org/licenses/MIT.
   7:../../DaisySP/Source/Control/adsr.h **** */
   8:../../DaisySP/Source/Control/adsr.h **** 
   9:../../DaisySP/Source/Control/adsr.h **** #pragma once
  10:../../DaisySP/Source/Control/adsr.h **** #ifndef DSY_ADSR_H
  11:../../DaisySP/Source/Control/adsr.h **** #define DSY_ADSR_H
  12:../../DaisySP/Source/Control/adsr.h **** 
ARM GAS  /var/folders/kw/h2sg8jtn02b91cpsjc1nlpg80000gn/T//cccUH3U8.s 			page 49


  13:../../DaisySP/Source/Control/adsr.h **** #include <stdint.h>
  14:../../DaisySP/Source/Control/adsr.h **** #ifdef __cplusplus
  15:../../DaisySP/Source/Control/adsr.h **** 
  16:../../DaisySP/Source/Control/adsr.h **** namespace daisysp
  17:../../DaisySP/Source/Control/adsr.h **** {
  18:../../DaisySP/Source/Control/adsr.h **** /** Distinct stages that the phase of the envelope can be located in.
  19:../../DaisySP/Source/Control/adsr.h **** - IDLE   = located at phase location 0, and not currently running
  20:../../DaisySP/Source/Control/adsr.h **** - ATTACK  = First segment of envelope where phase moves from 0 to 1
  21:../../DaisySP/Source/Control/adsr.h **** - DECAY   = Second segment of envelope where phase moves from 1 to SUSTAIN value
  22:../../DaisySP/Source/Control/adsr.h **** - RELEASE =     Fourth segment of envelop where phase moves from SUSTAIN to 0
  23:../../DaisySP/Source/Control/adsr.h **** */
  24:../../DaisySP/Source/Control/adsr.h **** enum
  25:../../DaisySP/Source/Control/adsr.h **** {
  26:../../DaisySP/Source/Control/adsr.h ****     ADSR_SEG_IDLE    = 0,
  27:../../DaisySP/Source/Control/adsr.h ****     ADSR_SEG_ATTACK  = 1,
  28:../../DaisySP/Source/Control/adsr.h ****     ADSR_SEG_DECAY   = 2,
  29:../../DaisySP/Source/Control/adsr.h ****     ADSR_SEG_RELEASE = 4
  30:../../DaisySP/Source/Control/adsr.h **** };
  31:../../DaisySP/Source/Control/adsr.h **** 
  32:../../DaisySP/Source/Control/adsr.h **** 
  33:../../DaisySP/Source/Control/adsr.h **** /** adsr envelope module
  34:../../DaisySP/Source/Control/adsr.h **** 
  35:../../DaisySP/Source/Control/adsr.h **** Original author(s) : Paul Batchelor
  36:../../DaisySP/Source/Control/adsr.h **** 
  37:../../DaisySP/Source/Control/adsr.h **** Ported from Soundpipe by Ben Sergentanis, May 2020
  38:../../DaisySP/Source/Control/adsr.h ****  
  39:../../DaisySP/Source/Control/adsr.h **** Remake by Steffan DIedrichsen, May 2021
  40:../../DaisySP/Source/Control/adsr.h **** */
  41:../../DaisySP/Source/Control/adsr.h **** class Adsr
  42:../../DaisySP/Source/Control/adsr.h **** {
  43:../../DaisySP/Source/Control/adsr.h ****   public:
  44:../../DaisySP/Source/Control/adsr.h ****     Adsr() {}
 856              		.loc 14 44 5 is_stmt 1 view .LVU221
 857              	.LBE375:
  73:vasynth.h     ****     ~VASynth() {}
 858              		.loc 6 73 15 is_stmt 0 view .LVU222
 859 000a 3033     		adds	r3, r3, #48
 860              	.LVL48:
 861              	.LBB378:
 862              	.LBB376:
 863              		.loc 14 44 12 view .LVU223
 864 000c 0022     		movs	r2, #0
 865 000e 2049     		ldr	r1, .L63
 866 0010 4FF0000C 		mov	ip, #0
 867              	.LBE376:
 868              	.LBE378:
  73:vasynth.h     ****     ~VASynth() {}
 869              		.loc 6 73 15 view .LVU224
 870 0014 7345     		cmp	r3, lr
 871              	.LBB379:
 872              	.LBB377:
 873              		.loc 14 44 12 view .LVU225
 874 0016 43F8302C 		str	r2, [r3, #-48]	@ float
 875 001a 43F82C2C 		str	r2, [r3, #-44]	@ float
 876 001e 43F8281C 		str	r1, [r3, #-40]	@ float
 877 0022 43F8242C 		str	r2, [r3, #-36]	@ float
 878 0026 43F8201C 		str	r1, [r3, #-32]	@ float
ARM GAS  /var/folders/kw/h2sg8jtn02b91cpsjc1nlpg80000gn/T//cccUH3U8.s 			page 50


 879 002a 43F81C1C 		str	r1, [r3, #-28]	@ float
 880 002e 43F8181C 		str	r1, [r3, #-24]	@ float
 881 0032 43F8142C 		str	r2, [r3, #-20]	@ float
 882 0036 43F8102C 		str	r2, [r3, #-16]	@ float
 883 003a 43F80C2C 		str	r2, [r3, #-12]	@ float
 884 003e 03F804CC 		strb	ip, [r3, #-4]
 885 0042 03F803CC 		strb	ip, [r3, #-3]
 886              	.LVL49:
 887              		.loc 14 44 12 view .LVU226
 888              	.LBE377:
 889              	.LBE379:
  73:vasynth.h     ****     ~VASynth() {}
 890              		.loc 6 73 15 is_stmt 1 view .LVU227
  73:vasynth.h     ****     ~VASynth() {}
 891              		.loc 6 73 15 view .LVU228
 892 0046 E0D1     		bne	.L58
  73:vasynth.h     ****     ~VASynth() {}
 893              		.loc 6 73 15 discriminator 10 view .LVU229
 894 0048 00F2BC6E 		addw	lr, r0, #1724
 895              	.L59:
 896              	.LVL50:
 897              	.LBB380:
 898              	.LBI380:
 899              		.loc 14 44 5 view .LVU230
 900              	.LBE380:
  73:vasynth.h     ****     ~VASynth() {}
 901              		.loc 6 73 15 is_stmt 0 view .LVU231
 902 004c 3033     		adds	r3, r3, #48
 903              	.LVL51:
 904              	.LBB383:
 905              	.LBB381:
 906              		.loc 14 44 12 view .LVU232
 907 004e 0022     		movs	r2, #0
 908 0050 0F49     		ldr	r1, .L63
 909 0052 4FF0000C 		mov	ip, #0
 910              	.LBE381:
 911              	.LBE383:
  73:vasynth.h     ****     ~VASynth() {}
 912              		.loc 6 73 15 view .LVU233
 913 0056 7345     		cmp	r3, lr
 914              	.LBB384:
 915              	.LBB382:
 916              		.loc 14 44 12 view .LVU234
 917 0058 43F8302C 		str	r2, [r3, #-48]	@ float
 918 005c 43F82C2C 		str	r2, [r3, #-44]	@ float
 919 0060 43F8281C 		str	r1, [r3, #-40]	@ float
 920 0064 43F8242C 		str	r2, [r3, #-36]	@ float
 921 0068 43F8201C 		str	r1, [r3, #-32]	@ float
 922 006c 43F81C1C 		str	r1, [r3, #-28]	@ float
 923 0070 43F8181C 		str	r1, [r3, #-24]	@ float
 924 0074 43F8142C 		str	r2, [r3, #-20]	@ float
 925 0078 43F8102C 		str	r2, [r3, #-16]	@ float
 926 007c 43F80C2C 		str	r2, [r3, #-12]	@ float
 927 0080 03F804CC 		strb	ip, [r3, #-4]
 928 0084 03F803CC 		strb	ip, [r3, #-3]
 929              	.LVL52:
 930              		.loc 14 44 12 view .LVU235
ARM GAS  /var/folders/kw/h2sg8jtn02b91cpsjc1nlpg80000gn/T//cccUH3U8.s 			page 51


 931              	.LBE382:
 932              	.LBE384:
  73:vasynth.h     ****     ~VASynth() {}
 933              		.loc 6 73 15 is_stmt 1 view .LVU236
  73:vasynth.h     ****     ~VASynth() {}
 934              		.loc 6 73 15 view .LVU237
 935 0088 E0D1     		bne	.L59
  73:vasynth.h     ****     ~VASynth() {}
 936              		.loc 6 73 15 discriminator 20 view .LVU238
 937              	.LBE385:
  73:vasynth.h     ****     ~VASynth() {}
 938              		.loc 6 73 16 is_stmt 0 discriminator 20 view .LVU239
 939 008a 5DF804FB 		ldr	pc, [sp], #4
 940              	.L64:
 941 008e 00BF     		.align	2
 942              	.L63:
 943 0090 000080BF 		.word	-1082130432
 944              		.cfi_endproc
 945              	.LFE4848:
 947              		.weak	_ZN7VASynthC1Ev
 948              		.thumb_set _ZN7VASynthC1Ev,_ZN7VASynthC2Ev
 949              		.section	.text._Z13SequencerPlayt,"ax",%progbits
 950              		.align	1
 951              		.p2align 2,,3
 952              		.global	_Z13SequencerPlayt
 953              		.syntax unified
 954              		.thumb
 955              		.thumb_func
 957              	_Z13SequencerPlayt:
 958              	.LVL53:
 959              	.LFB4855:
 501:main.cpp      **** 	if(modenum == 0)
 960              		.loc 13 501 1 is_stmt 1 view -0
 961              		.cfi_startproc
 962              		@ args = 0, pretend = 0, frame = 0
 963              		@ frame_needed = 0, uses_anonymous_args = 0
 964              		@ link register save eliminated.
 502:main.cpp      **** 	{
 965              		.loc 13 502 2 view .LVU241
 966 0000 0346     		mov	r3, r0
 967 0002 08B1     		cbz	r0, .L69
 968 0004 FFF7FEBF 		b	_Z13SequencerPlayt.part.0
 969              	.LVL54:
 970              	.L69:
 504:main.cpp      **** 		seqmem = 0x00010000;
 971              		.loc 13 504 3 view .LVU242
 504:main.cpp      **** 		seqmem = 0x00010000;
 972              		.loc 13 504 12 is_stmt 0 view .LVU243
 973 0008 0348     		ldr	r0, .L70
 974              	.LVL55:
 505:main.cpp      **** 		return;
 975              		.loc 13 505 10 view .LVU244
 976 000a 4FF48031 		mov	r1, #65536
 977 000e 034A     		ldr	r2, .L70+4
 504:main.cpp      **** 		seqmem = 0x00010000;
 978              		.loc 13 504 12 view .LVU245
 979 0010 0380     		strh	r3, [r0]	@ movhi
ARM GAS  /var/folders/kw/h2sg8jtn02b91cpsjc1nlpg80000gn/T//cccUH3U8.s 			page 52


 505:main.cpp      **** 		return;
 980              		.loc 13 505 3 is_stmt 1 view .LVU246
 505:main.cpp      **** 		return;
 981              		.loc 13 505 10 is_stmt 0 view .LVU247
 982 0012 1160     		str	r1, [r2]
 506:main.cpp      **** 	}
 983              		.loc 13 506 3 is_stmt 1 view .LVU248
 556:main.cpp      **** 
 984              		.loc 13 556 1 is_stmt 0 view .LVU249
 985 0014 7047     		bx	lr
 986              	.L71:
 987 0016 00BF     		.align	2
 988              	.L70:
 989 0018 00000000 		.word	.LANCHOR4
 990 001c 00000000 		.word	.LANCHOR2
 991              		.cfi_endproc
 992              	.LFE4855:
 994              		.section	.text._Z15SequencerRecordhh,"ax",%progbits
 995              		.align	1
 996              		.p2align 2,,3
 997              		.global	_Z15SequencerRecordhh
 998              		.syntax unified
 999              		.thumb
 1000              		.thumb_func
 1002              	_Z15SequencerRecordhh:
 1003              	.LVL56:
 1004              	.LFB4856:
 559:main.cpp      **** 	/* Write the timestamp to SRAM */
 1005              		.loc 13 559 1 is_stmt 1 view -0
 1006              		.cfi_startproc
 1007              		@ args = 0, pretend = 0, frame = 0
 1008              		@ frame_needed = 0, uses_anonymous_args = 0
 1009              		@ link register save eliminated.
 561:main.cpp      **** 	seqmem++;
 1010              		.loc 13 561 2 view .LVU251
 561:main.cpp      **** 	seqmem++;
 1011              		.loc 13 561 15 is_stmt 0 view .LVU252
 1012 0000 134B     		ldr	r3, .L75
 559:main.cpp      **** 	/* Write the timestamp to SRAM */
 1013              		.loc 13 559 1 view .LVU253
 1014 0002 30B4     		push	{r4, r5}
 1015              		.cfi_def_cfa_offset 8
 1016              		.cfi_offset 4, -8
 1017              		.cfi_offset 5, -4
 561:main.cpp      **** 	seqmem++;
 1018              		.loc 13 561 15 view .LVU254
 1019 0004 1A68     		ldr	r2, [r3]
 1020 0006 134C     		ldr	r4, .L75+4
 1021              	.LBB386:
 1022              	.LBB387:
 607:main.cpp      **** }
 1023              		.loc 13 607 48 view .LVU255
 1024 0008 02F10055 		add	r5, r2, #536870912
 1025              	.LBE387:
 1026              	.LBE386:
 561:main.cpp      **** 	seqmem++;
 1027              		.loc 13 561 15 view .LVU256
ARM GAS  /var/folders/kw/h2sg8jtn02b91cpsjc1nlpg80000gn/T//cccUH3U8.s 			page 53


 1028 000c B4F800C0 		ldrh	ip, [r4]
 1029              	.LVL57:
 1030              	.LBB389:
 1031              	.LBI386:
 604:main.cpp      **** {
 1032              		.loc 13 604 6 is_stmt 1 view .LVU257
 1033              	.LBB388:
 607:main.cpp      **** }
 1034              		.loc 13 607 3 view .LVU258
 607:main.cpp      **** }
 1035              		.loc 13 607 60 is_stmt 0 view .LVU259
 1036 0010 A5F800C0 		strh	ip, [r5]	@ movhi
 1037              	.LVL58:
 607:main.cpp      **** }
 1038              		.loc 13 607 60 view .LVU260
 1039              	.LBE388:
 1040              	.LBE389:
 562:main.cpp      **** 	seqmem++;
 1041              		.loc 13 562 2 is_stmt 1 view .LVU261
 563:main.cpp      **** 		
 1042              		.loc 13 563 2 view .LVU262
 563:main.cpp      **** 		
 1043              		.loc 13 563 8 is_stmt 0 view .LVU263
 1044 0014 951C     		adds	r5, r2, #2
 1045 0016 1D60     		str	r5, [r3]
 566:main.cpp      **** 	seqmem++;
 1046              		.loc 13 566 2 is_stmt 1 view .LVU264
 1047              	.LVL59:
 1048              	.LBB390:
 1049              	.LBI390:
 588:main.cpp      **** {
 1050              		.loc 13 588 6 view .LVU265
 1051              	.LBB391:
 591:main.cpp      **** }
 1052              		.loc 13 591 3 view .LVU266
 591:main.cpp      **** }
 1053              		.loc 13 591 47 is_stmt 0 view .LVU267
 1054 0018 0F4D     		ldr	r5, .L75+8
 1055              	.LVL60:
 591:main.cpp      **** }
 1056              		.loc 13 591 57 view .LVU268
 1057 001a 5055     		strb	r0, [r2, r5]
 1058              	.LVL61:
 591:main.cpp      **** }
 1059              		.loc 13 591 57 view .LVU269
 1060              	.LBE391:
 1061              	.LBE390:
 567:main.cpp      **** 		
 1062              		.loc 13 567 2 is_stmt 1 view .LVU270
 567:main.cpp      **** 		
 1063              		.loc 13 567 8 is_stmt 0 view .LVU271
 1064 001c 1A68     		ldr	r2, [r3]
 573:main.cpp      **** 	{
 1065              		.loc 13 573 2 view .LVU272
 1066 001e 0F4D     		ldr	r5, .L75+12
 567:main.cpp      **** 		
 1067              		.loc 13 567 8 view .LVU273
ARM GAS  /var/folders/kw/h2sg8jtn02b91cpsjc1nlpg80000gn/T//cccUH3U8.s 			page 54


 1068 0020 501C     		adds	r0, r2, #1
 1069              	.LVL62:
 567:main.cpp      **** 		
 1070              		.loc 13 567 8 view .LVU274
 1071 0022 1860     		str	r0, [r3]
 570:main.cpp      **** 	seqmem++;
 1072              		.loc 13 570 2 is_stmt 1 view .LVU275
 1073              	.LVL63:
 1074              	.LBB392:
 1075              	.LBI392:
 588:main.cpp      **** {
 1076              		.loc 13 588 6 view .LVU276
 1077              	.LBB393:
 591:main.cpp      **** }
 1078              		.loc 13 591 3 view .LVU277
 591:main.cpp      **** }
 1079              		.loc 13 591 47 is_stmt 0 view .LVU278
 1080 0024 0E48     		ldr	r0, .L75+16
 1081              	.LVL64:
 591:main.cpp      **** }
 1082              		.loc 13 591 57 view .LVU279
 1083 0026 1154     		strb	r1, [r2, r0]
 1084              	.LVL65:
 591:main.cpp      **** }
 1085              		.loc 13 591 57 view .LVU280
 1086              	.LBE393:
 1087              	.LBE392:
 571:main.cpp      **** 	
 1088              		.loc 13 571 2 is_stmt 1 view .LVU281
 571:main.cpp      **** 	
 1089              		.loc 13 571 8 is_stmt 0 view .LVU282
 1090 0028 1A68     		ldr	r2, [r3]
 1091 002a 511C     		adds	r1, r2, #1
 1092              	.LVL66:
 573:main.cpp      **** 	{
 1093              		.loc 13 573 2 view .LVU283
 1094 002c A942     		cmp	r1, r5
 571:main.cpp      **** 	
 1095              		.loc 13 571 8 view .LVU284
 1096 002e 1960     		str	r1, [r3]
 573:main.cpp      **** 	{
 1097              		.loc 13 573 2 is_stmt 1 view .LVU285
 1098 0030 0CD9     		bls	.L72
 577:main.cpp      **** 		seqmem++;
 1099              		.loc 13 577 3 view .LVU286
 577:main.cpp      **** 		seqmem++;
 1100              		.loc 13 577 16 is_stmt 0 view .LVU287
 1101 0032 2188     		ldrh	r1, [r4]
 1102              	.LVL67:
 1103              	.LBB394:
 1104              	.LBI394:
 604:main.cpp      **** {
 1105              		.loc 13 604 6 is_stmt 1 view .LVU288
 1106              	.LBB395:
 607:main.cpp      **** }
 1107              		.loc 13 607 3 view .LVU289
 607:main.cpp      **** }
ARM GAS  /var/folders/kw/h2sg8jtn02b91cpsjc1nlpg80000gn/T//cccUH3U8.s 			page 55


 1108              		.loc 13 607 60 is_stmt 0 view .LVU290
 1109 0034 1152     		strh	r1, [r2, r0]	@ movhi
 1110              	.LVL68:
 607:main.cpp      **** }
 1111              		.loc 13 607 60 view .LVU291
 1112              	.LBE395:
 1113              	.LBE394:
 578:main.cpp      **** 		seqmem++;
 1114              		.loc 13 578 3 is_stmt 1 view .LVU292
 579:main.cpp      **** 		writeSramWord(seqmem, 0xFFFF);
 1115              		.loc 13 579 3 view .LVU293
 580:main.cpp      **** 		seqmode = 0;
 1116              		.loc 13 580 3 view .LVU294
 1117              	.LBB396:
 1118              	.LBI396:
 604:main.cpp      **** {
 1119              		.loc 13 604 6 view .LVU295
 1120              	.LBB397:
 607:main.cpp      **** }
 1121              		.loc 13 607 3 view .LVU296
 607:main.cpp      **** }
 1122              		.loc 13 607 60 is_stmt 0 view .LVU297
 1123 0036 4FF6FF70 		movw	r0, #65535
 607:main.cpp      **** }
 1124              		.loc 13 607 48 view .LVU298
 1125 003a 0A49     		ldr	r1, .L75+20
 607:main.cpp      **** }
 1126              		.loc 13 607 60 view .LVU299
 1127 003c 5052     		strh	r0, [r2, r1]	@ movhi
 1128              	.LVL69:
 607:main.cpp      **** }
 1129              		.loc 13 607 60 view .LVU300
 1130              	.LBE397:
 1131              	.LBE396:
 581:main.cpp      **** 		seqclock = 0;
 1132              		.loc 13 581 3 is_stmt 1 view .LVU301
 581:main.cpp      **** 		seqclock = 0;
 1133              		.loc 13 581 11 is_stmt 0 view .LVU302
 1134 003e 0022     		movs	r2, #0
 1135 0040 0948     		ldr	r0, .L75+24
 583:main.cpp      **** 	}
 1136              		.loc 13 583 10 view .LVU303
 1137 0042 4FF48031 		mov	r1, #65536
 582:main.cpp      **** 		seqmem = 0x00010000;
 1138              		.loc 13 582 12 view .LVU304
 1139 0046 2280     		strh	r2, [r4]	@ movhi
 581:main.cpp      **** 		seqclock = 0;
 1140              		.loc 13 581 11 view .LVU305
 1141 0048 0280     		strh	r2, [r0]	@ movhi
 582:main.cpp      **** 		seqmem = 0x00010000;
 1142              		.loc 13 582 3 is_stmt 1 view .LVU306
 583:main.cpp      **** 	}
 1143              		.loc 13 583 3 view .LVU307
 583:main.cpp      **** 	}
 1144              		.loc 13 583 10 is_stmt 0 view .LVU308
 1145 004a 1960     		str	r1, [r3]
 1146              	.L72:
ARM GAS  /var/folders/kw/h2sg8jtn02b91cpsjc1nlpg80000gn/T//cccUH3U8.s 			page 56


 585:main.cpp      **** 
 1147              		.loc 13 585 1 view .LVU309
 1148 004c 30BC     		pop	{r4, r5}
 1149              		.cfi_restore 5
 1150              		.cfi_restore 4
 1151              		.cfi_def_cfa_offset 0
 1152 004e 7047     		bx	lr
 1153              	.L76:
 1154              		.align	2
 1155              	.L75:
 1156 0050 00000000 		.word	.LANCHOR2
 1157 0054 00000000 		.word	.LANCHOR4
 1158 0058 02000020 		.word	536870914
 1159 005c F8FF0700 		.word	524280
 1160 0060 01000020 		.word	536870913
 1161 0064 03000020 		.word	536870915
 1162 0068 00000000 		.word	.LANCHOR8
 1163              		.cfi_endproc
 1164              	.LFE4856:
 1166              		.section	.text._Z17HandleMidiMessageN5daisy9MidiEventE,"ax",%progbits
 1167              		.align	1
 1168              		.p2align 2,,3
 1169              		.global	_Z17HandleMidiMessageN5daisy9MidiEventE
 1170              		.syntax unified
 1171              		.thumb
 1172              		.thumb_func
 1174              	_Z17HandleMidiMessageN5daisy9MidiEventE:
 1175              	.LFB4854:
  77:main.cpp      ****     switch(m.type)
 1176              		.loc 13 77 1 is_stmt 1 view -0
 1177              		.cfi_startproc
 1178              		@ args = 144, pretend = 16, frame = 8
 1179              		@ frame_needed = 0, uses_anonymous_args = 0
 1180 0000 84B0     		sub	sp, sp, #16
 1181              		.cfi_def_cfa_offset 16
 1182 0002 F0B5     		push	{r4, r5, r6, r7, lr}
 1183              		.cfi_def_cfa_offset 36
 1184              		.cfi_offset 4, -36
 1185              		.cfi_offset 5, -32
 1186              		.cfi_offset 6, -28
 1187              		.cfi_offset 7, -24
 1188              		.cfi_offset 14, -20
 1189 0004 83B0     		sub	sp, sp, #12
 1190              		.cfi_def_cfa_offset 48
  77:main.cpp      ****     switch(m.type)
 1191              		.loc 13 77 1 is_stmt 0 view .LVU311
 1192 0006 08AC     		add	r4, sp, #32
 1193 0008 84E80F00 		stm	r4, {r0, r1, r2, r3}
 1194              	.LBB398:
  78:main.cpp      ****     {
 1195              		.loc 13 78 5 view .LVU312
 1196 000c 9DF82030 		ldrb	r3, [sp, #32]	@ zero_extendqisi2
 1197              	.LVL70:
  78:main.cpp      ****     {
 1198              		.loc 13 78 5 view .LVU313
 1199 0010 9DF82840 		ldrb	r4, [sp, #40]	@ zero_extendqisi2
 1200              	.LVL71:
ARM GAS  /var/folders/kw/h2sg8jtn02b91cpsjc1nlpg80000gn/T//cccUH3U8.s 			page 57


  78:main.cpp      ****     {
 1201              		.loc 13 78 5 view .LVU314
 1202 0014 9DF82920 		ldrb	r2, [sp, #41]	@ zero_extendqisi2
 1203              	.LVL72:
  78:main.cpp      ****     {
 1204              		.loc 13 78 5 view .LVU315
 1205              	.LBE398:
  78:main.cpp      ****     {
 1206              		.loc 13 78 5 is_stmt 1 view .LVU316
 1207              	.LBB447:
 1208 0018 062B     		cmp	r3, #6
 1209 001a 0CD8     		bhi	.L77
 1210 001c DFE803F0 		tbb	[pc, r3]
 1211              	.L80:
 1212 0020 10       		.byte	(.L84-.L80)/2
 1213 0021 4F       		.byte	(.L83-.L80)/2
 1214 0022 0B       		.byte	(.L77-.L80)/2
 1215 0023 28       		.byte	(.L82-.L80)/2
 1216 0024 61       		.byte	(.L81-.L80)/2
 1217 0025 0B       		.byte	(.L77-.L80)/2
 1218 0026 04       		.byte	(.L79-.L80)/2
 1219 0027 00       		.p2align 1
 1220              	.L79:
 1221              	.LBE447:
 108:main.cpp      ****         {
 1222              		.loc 13 108 3 view .LVU317
 109:main.cpp      ****             PitchBendEvent p = m.AsPitchBend();
 1223              		.loc 13 109 9 view .LVU318
 1224              	.LBB448:
 1225              	.LBB399:
 110:main.cpp      ****             if ((vasynth.midi_channel_ == MIDI_CHANNEL_ALL) || (p.channel == vasynth.midi_channel_)
 1226              		.loc 13 110 13 view .LVU319
 1227              	.LVL73:
 1228              	.LBB400:
 1229              	.LBI400:
 1230              		.file 15 "../../libDaisy/src/hid/MidiEvent.h"
   1:../../libDaisy/src/hid/MidiEvent.h **** // TODO: make this adjustable
   2:../../libDaisy/src/hid/MidiEvent.h **** #define SYSEX_BUFFER_LEN 128
   3:../../libDaisy/src/hid/MidiEvent.h **** 
   4:../../libDaisy/src/hid/MidiEvent.h **** namespace daisy
   5:../../libDaisy/src/hid/MidiEvent.h **** {
   6:../../libDaisy/src/hid/MidiEvent.h **** /** @addtogroup midi MIDI
   7:../../libDaisy/src/hid/MidiEvent.h ****  *  @ingroup human_interface
   8:../../libDaisy/src/hid/MidiEvent.h ****  *  @ingroup libdaisy
   9:../../libDaisy/src/hid/MidiEvent.h ****  *  @brief MIDI handlers, transports, and message types
  10:../../libDaisy/src/hid/MidiEvent.h ****  *  @{
  11:../../libDaisy/src/hid/MidiEvent.h ****  */
  12:../../libDaisy/src/hid/MidiEvent.h **** 
  13:../../libDaisy/src/hid/MidiEvent.h **** /** @defgroup midi_events MIDI_EVENTS
  14:../../libDaisy/src/hid/MidiEvent.h ****  *  @{
  15:../../libDaisy/src/hid/MidiEvent.h **** */
  16:../../libDaisy/src/hid/MidiEvent.h **** 
  17:../../libDaisy/src/hid/MidiEvent.h **** /** Parsed from the Status Byte, these are the common Midi Messages that can be handled. \n
  18:../../libDaisy/src/hid/MidiEvent.h **** At this time only 3-byte messages are correctly parsed into MidiEvents.
  19:../../libDaisy/src/hid/MidiEvent.h **** */
  20:../../libDaisy/src/hid/MidiEvent.h **** enum MidiMessageType
  21:../../libDaisy/src/hid/MidiEvent.h **** {
ARM GAS  /var/folders/kw/h2sg8jtn02b91cpsjc1nlpg80000gn/T//cccUH3U8.s 			page 58


  22:../../libDaisy/src/hid/MidiEvent.h ****     NoteOff,               /**< & */
  23:../../libDaisy/src/hid/MidiEvent.h ****     NoteOn,                /**< & */
  24:../../libDaisy/src/hid/MidiEvent.h ****     PolyphonicKeyPressure, /**< & */
  25:../../libDaisy/src/hid/MidiEvent.h ****     ControlChange,         /**< & */
  26:../../libDaisy/src/hid/MidiEvent.h ****     ProgramChange,         /**< & */
  27:../../libDaisy/src/hid/MidiEvent.h ****     ChannelPressure,       /**< & */
  28:../../libDaisy/src/hid/MidiEvent.h ****     PitchBend,             /**< & */
  29:../../libDaisy/src/hid/MidiEvent.h ****     SystemCommon,          /**< & */
  30:../../libDaisy/src/hid/MidiEvent.h ****     SystemRealTime,        /**< & */
  31:../../libDaisy/src/hid/MidiEvent.h ****     ChannelMode,           /**< & */
  32:../../libDaisy/src/hid/MidiEvent.h ****     MessageLast,           /**< & */
  33:../../libDaisy/src/hid/MidiEvent.h **** };
  34:../../libDaisy/src/hid/MidiEvent.h **** 
  35:../../libDaisy/src/hid/MidiEvent.h **** enum SystemCommonType
  36:../../libDaisy/src/hid/MidiEvent.h **** {
  37:../../libDaisy/src/hid/MidiEvent.h ****     SystemExclusive,     /**< & */
  38:../../libDaisy/src/hid/MidiEvent.h ****     MTCQuarterFrame,     /**< & */
  39:../../libDaisy/src/hid/MidiEvent.h ****     SongPositionPointer, /**< & */
  40:../../libDaisy/src/hid/MidiEvent.h ****     SongSelect,          /**< & */
  41:../../libDaisy/src/hid/MidiEvent.h ****     SCUndefined0,        /**< & */
  42:../../libDaisy/src/hid/MidiEvent.h ****     SCUndefined1,        /**< & */
  43:../../libDaisy/src/hid/MidiEvent.h ****     TuneRequest,         /**< & */
  44:../../libDaisy/src/hid/MidiEvent.h ****     SysExEnd,            /**< & */
  45:../../libDaisy/src/hid/MidiEvent.h ****     SystemCommonLast,    /**< & */
  46:../../libDaisy/src/hid/MidiEvent.h **** };
  47:../../libDaisy/src/hid/MidiEvent.h **** 
  48:../../libDaisy/src/hid/MidiEvent.h **** enum SystemRealTimeType
  49:../../libDaisy/src/hid/MidiEvent.h **** {
  50:../../libDaisy/src/hid/MidiEvent.h ****     TimingClock,        /**< & */
  51:../../libDaisy/src/hid/MidiEvent.h ****     SRTUndefined0,      /**< & */
  52:../../libDaisy/src/hid/MidiEvent.h ****     Start,              /**< & */
  53:../../libDaisy/src/hid/MidiEvent.h ****     Continue,           /**< & */
  54:../../libDaisy/src/hid/MidiEvent.h ****     Stop,               /**< & */
  55:../../libDaisy/src/hid/MidiEvent.h ****     SRTUndefined1,      /**< & */
  56:../../libDaisy/src/hid/MidiEvent.h ****     ActiveSensing,      /**< & */
  57:../../libDaisy/src/hid/MidiEvent.h ****     Reset,              /**< & */
  58:../../libDaisy/src/hid/MidiEvent.h ****     SystemRealTimeLast, /**< & */
  59:../../libDaisy/src/hid/MidiEvent.h **** };
  60:../../libDaisy/src/hid/MidiEvent.h **** 
  61:../../libDaisy/src/hid/MidiEvent.h **** enum ChannelModeType
  62:../../libDaisy/src/hid/MidiEvent.h **** {
  63:../../libDaisy/src/hid/MidiEvent.h ****     AllSoundOff,         /**< & */
  64:../../libDaisy/src/hid/MidiEvent.h ****     ResetAllControllers, /**< & */
  65:../../libDaisy/src/hid/MidiEvent.h ****     LocalControl,        /**< & */
  66:../../libDaisy/src/hid/MidiEvent.h ****     AllNotesOff,         /**< & */
  67:../../libDaisy/src/hid/MidiEvent.h ****     OmniModeOff,         /**< & */
  68:../../libDaisy/src/hid/MidiEvent.h ****     OmniModeOn,          /**< & */
  69:../../libDaisy/src/hid/MidiEvent.h ****     MonoModeOn,          /**< & */
  70:../../libDaisy/src/hid/MidiEvent.h ****     PolyModeOn,          /**< & */
  71:../../libDaisy/src/hid/MidiEvent.h ****     ChannelModeLast,     /**< & */
  72:../../libDaisy/src/hid/MidiEvent.h **** };
  73:../../libDaisy/src/hid/MidiEvent.h **** 
  74:../../libDaisy/src/hid/MidiEvent.h **** /** Struct containing note, and velocity data for a given channel.
  75:../../libDaisy/src/hid/MidiEvent.h **** Can be made from MidiEvent
  76:../../libDaisy/src/hid/MidiEvent.h **** */
  77:../../libDaisy/src/hid/MidiEvent.h **** struct NoteOffEvent
  78:../../libDaisy/src/hid/MidiEvent.h **** {
ARM GAS  /var/folders/kw/h2sg8jtn02b91cpsjc1nlpg80000gn/T//cccUH3U8.s 			page 59


  79:../../libDaisy/src/hid/MidiEvent.h ****     int     channel;  /**< & */
  80:../../libDaisy/src/hid/MidiEvent.h ****     uint8_t note;     /**< & */
  81:../../libDaisy/src/hid/MidiEvent.h ****     uint8_t velocity; /**< & */
  82:../../libDaisy/src/hid/MidiEvent.h **** };
  83:../../libDaisy/src/hid/MidiEvent.h **** 
  84:../../libDaisy/src/hid/MidiEvent.h **** 
  85:../../libDaisy/src/hid/MidiEvent.h **** /** Struct containing note, and velocity data for a given channel.
  86:../../libDaisy/src/hid/MidiEvent.h **** Can be made from MidiEvent
  87:../../libDaisy/src/hid/MidiEvent.h **** */
  88:../../libDaisy/src/hid/MidiEvent.h **** struct NoteOnEvent
  89:../../libDaisy/src/hid/MidiEvent.h **** {
  90:../../libDaisy/src/hid/MidiEvent.h ****     int     channel;  /**< & */
  91:../../libDaisy/src/hid/MidiEvent.h ****     uint8_t note;     /**< & */
  92:../../libDaisy/src/hid/MidiEvent.h ****     uint8_t velocity; /**< & */
  93:../../libDaisy/src/hid/MidiEvent.h **** };
  94:../../libDaisy/src/hid/MidiEvent.h **** /** Struct containing note, and pressure data for a given channel.
  95:../../libDaisy/src/hid/MidiEvent.h **** Can be made from MidiEvent
  96:../../libDaisy/src/hid/MidiEvent.h **** */
  97:../../libDaisy/src/hid/MidiEvent.h **** struct PolyphonicKeyPressureEvent
  98:../../libDaisy/src/hid/MidiEvent.h **** {
  99:../../libDaisy/src/hid/MidiEvent.h ****     int     channel;
 100:../../libDaisy/src/hid/MidiEvent.h ****     uint8_t note;
 101:../../libDaisy/src/hid/MidiEvent.h ****     uint8_t pressure;
 102:../../libDaisy/src/hid/MidiEvent.h **** };
 103:../../libDaisy/src/hid/MidiEvent.h **** /** Struct containing control number, and value for a given channel.
 104:../../libDaisy/src/hid/MidiEvent.h **** Can be made from MidiEvent
 105:../../libDaisy/src/hid/MidiEvent.h **** */
 106:../../libDaisy/src/hid/MidiEvent.h **** struct ControlChangeEvent
 107:../../libDaisy/src/hid/MidiEvent.h **** {
 108:../../libDaisy/src/hid/MidiEvent.h ****     int     channel;        /**< & */
 109:../../libDaisy/src/hid/MidiEvent.h ****     uint8_t control_number; /**< & */
 110:../../libDaisy/src/hid/MidiEvent.h ****     uint8_t value;          /**< & */
 111:../../libDaisy/src/hid/MidiEvent.h **** };
 112:../../libDaisy/src/hid/MidiEvent.h **** /** Struct containing new program number, for a given channel.
 113:../../libDaisy/src/hid/MidiEvent.h **** Can be made from MidiEvent
 114:../../libDaisy/src/hid/MidiEvent.h **** */
 115:../../libDaisy/src/hid/MidiEvent.h **** struct ProgramChangeEvent
 116:../../libDaisy/src/hid/MidiEvent.h **** {
 117:../../libDaisy/src/hid/MidiEvent.h ****     int     channel; /**< & */
 118:../../libDaisy/src/hid/MidiEvent.h ****     uint8_t program; /**< & */
 119:../../libDaisy/src/hid/MidiEvent.h **** };
 120:../../libDaisy/src/hid/MidiEvent.h **** /** Struct containing pressure (aftertouch), for a given channel.
 121:../../libDaisy/src/hid/MidiEvent.h **** Can be made from MidiEvent
 122:../../libDaisy/src/hid/MidiEvent.h **** */
 123:../../libDaisy/src/hid/MidiEvent.h **** struct ChannelPressureEvent
 124:../../libDaisy/src/hid/MidiEvent.h **** {
 125:../../libDaisy/src/hid/MidiEvent.h ****     int     channel;  /**< & */
 126:../../libDaisy/src/hid/MidiEvent.h ****     uint8_t pressure; /**< & */
 127:../../libDaisy/src/hid/MidiEvent.h **** };
 128:../../libDaisy/src/hid/MidiEvent.h **** /** Struct containing pitch bend value for a given channel.
 129:../../libDaisy/src/hid/MidiEvent.h **** Can be made from MidiEvent
 130:../../libDaisy/src/hid/MidiEvent.h **** */
 131:../../libDaisy/src/hid/MidiEvent.h **** struct PitchBendEvent
 132:../../libDaisy/src/hid/MidiEvent.h **** {
 133:../../libDaisy/src/hid/MidiEvent.h ****     int     channel; /**< & */
 134:../../libDaisy/src/hid/MidiEvent.h ****     int16_t value;   /**< & */
 135:../../libDaisy/src/hid/MidiEvent.h **** };
ARM GAS  /var/folders/kw/h2sg8jtn02b91cpsjc1nlpg80000gn/T//cccUH3U8.s 			page 60


 136:../../libDaisy/src/hid/MidiEvent.h **** /** Struct containing channel mode event for a given channel.
 137:../../libDaisy/src/hid/MidiEvent.h **** Can be made from MidiEvent
 138:../../libDaisy/src/hid/MidiEvent.h **** */
 139:../../libDaisy/src/hid/MidiEvent.h **** struct ChannelModeEvent
 140:../../libDaisy/src/hid/MidiEvent.h **** {
 141:../../libDaisy/src/hid/MidiEvent.h ****     int             channel;    /**< & */
 142:../../libDaisy/src/hid/MidiEvent.h ****     ChannelModeType event_type; /**< & */
 143:../../libDaisy/src/hid/MidiEvent.h ****     int16_t         value;      /**< & */
 144:../../libDaisy/src/hid/MidiEvent.h **** };
 145:../../libDaisy/src/hid/MidiEvent.h **** /** Struct containing sysex data.
 146:../../libDaisy/src/hid/MidiEvent.h **** Can be made from MidiEvent
 147:../../libDaisy/src/hid/MidiEvent.h **** */
 148:../../libDaisy/src/hid/MidiEvent.h **** struct SystemExclusiveEvent
 149:../../libDaisy/src/hid/MidiEvent.h **** {
 150:../../libDaisy/src/hid/MidiEvent.h ****     int     length;
 151:../../libDaisy/src/hid/MidiEvent.h ****     uint8_t data[SYSEX_BUFFER_LEN]; /**< & */
 152:../../libDaisy/src/hid/MidiEvent.h **** };
 153:../../libDaisy/src/hid/MidiEvent.h **** /** Struct containing QuarterFrame data.
 154:../../libDaisy/src/hid/MidiEvent.h **** Can be made from MidiEvent
 155:../../libDaisy/src/hid/MidiEvent.h **** */
 156:../../libDaisy/src/hid/MidiEvent.h **** struct MTCQuarterFrameEvent
 157:../../libDaisy/src/hid/MidiEvent.h **** {
 158:../../libDaisy/src/hid/MidiEvent.h ****     uint8_t message_type; /**< & */
 159:../../libDaisy/src/hid/MidiEvent.h ****     uint8_t value;        /**< & */
 160:../../libDaisy/src/hid/MidiEvent.h **** };
 161:../../libDaisy/src/hid/MidiEvent.h **** /** Struct containing song position data.
 162:../../libDaisy/src/hid/MidiEvent.h **** Can be made from MidiEvent
 163:../../libDaisy/src/hid/MidiEvent.h **** */
 164:../../libDaisy/src/hid/MidiEvent.h **** struct SongPositionPointerEvent
 165:../../libDaisy/src/hid/MidiEvent.h **** {
 166:../../libDaisy/src/hid/MidiEvent.h ****     uint16_t position; /**< & */
 167:../../libDaisy/src/hid/MidiEvent.h **** };
 168:../../libDaisy/src/hid/MidiEvent.h **** /** Struct containing song select data.
 169:../../libDaisy/src/hid/MidiEvent.h **** Can be made from MidiEvent
 170:../../libDaisy/src/hid/MidiEvent.h **** */
 171:../../libDaisy/src/hid/MidiEvent.h **** struct SongSelectEvent
 172:../../libDaisy/src/hid/MidiEvent.h **** {
 173:../../libDaisy/src/hid/MidiEvent.h ****     uint8_t song; /**< & */
 174:../../libDaisy/src/hid/MidiEvent.h **** };
 175:../../libDaisy/src/hid/MidiEvent.h **** /** Struct containing sound off data.
 176:../../libDaisy/src/hid/MidiEvent.h **** Can be made from MidiEvent
 177:../../libDaisy/src/hid/MidiEvent.h **** */
 178:../../libDaisy/src/hid/MidiEvent.h **** struct AllSoundOffEvent
 179:../../libDaisy/src/hid/MidiEvent.h **** {
 180:../../libDaisy/src/hid/MidiEvent.h ****     int channel; /**< & */
 181:../../libDaisy/src/hid/MidiEvent.h **** };
 182:../../libDaisy/src/hid/MidiEvent.h **** /** Struct containing ResetAllControllersEvent data.
 183:../../libDaisy/src/hid/MidiEvent.h **** Can be made from MidiEvent
 184:../../libDaisy/src/hid/MidiEvent.h **** */
 185:../../libDaisy/src/hid/MidiEvent.h **** struct ResetAllControllersEvent
 186:../../libDaisy/src/hid/MidiEvent.h **** {
 187:../../libDaisy/src/hid/MidiEvent.h ****     int     channel; /**< & */
 188:../../libDaisy/src/hid/MidiEvent.h ****     uint8_t value;   /**< & */
 189:../../libDaisy/src/hid/MidiEvent.h **** };
 190:../../libDaisy/src/hid/MidiEvent.h **** /** Struct containing LocalControlEvent data.
 191:../../libDaisy/src/hid/MidiEvent.h **** Can be made from MidiEvent
 192:../../libDaisy/src/hid/MidiEvent.h **** */
ARM GAS  /var/folders/kw/h2sg8jtn02b91cpsjc1nlpg80000gn/T//cccUH3U8.s 			page 61


 193:../../libDaisy/src/hid/MidiEvent.h **** struct LocalControlEvent
 194:../../libDaisy/src/hid/MidiEvent.h **** {
 195:../../libDaisy/src/hid/MidiEvent.h ****     int  channel;           /**< & */
 196:../../libDaisy/src/hid/MidiEvent.h ****     bool local_control_off; /**< & */
 197:../../libDaisy/src/hid/MidiEvent.h ****     bool local_control_on;  /**< & */
 198:../../libDaisy/src/hid/MidiEvent.h **** };
 199:../../libDaisy/src/hid/MidiEvent.h **** /** Struct containing AllNotesOffEvent data.
 200:../../libDaisy/src/hid/MidiEvent.h **** Can be made from MidiEvent
 201:../../libDaisy/src/hid/MidiEvent.h **** */
 202:../../libDaisy/src/hid/MidiEvent.h **** struct AllNotesOffEvent
 203:../../libDaisy/src/hid/MidiEvent.h **** {
 204:../../libDaisy/src/hid/MidiEvent.h ****     int channel; /**< & */
 205:../../libDaisy/src/hid/MidiEvent.h **** };
 206:../../libDaisy/src/hid/MidiEvent.h **** /** Struct containing OmniModeOffEvent data.
 207:../../libDaisy/src/hid/MidiEvent.h ****  * Can be made from MidiEvent
 208:../../libDaisy/src/hid/MidiEvent.h **** */
 209:../../libDaisy/src/hid/MidiEvent.h **** struct OmniModeOffEvent
 210:../../libDaisy/src/hid/MidiEvent.h **** {
 211:../../libDaisy/src/hid/MidiEvent.h ****     int channel; /**< & */
 212:../../libDaisy/src/hid/MidiEvent.h **** };
 213:../../libDaisy/src/hid/MidiEvent.h **** /** Struct containing OmniModeOnEvent data.
 214:../../libDaisy/src/hid/MidiEvent.h **** Can be made from MidiEvent
 215:../../libDaisy/src/hid/MidiEvent.h **** */
 216:../../libDaisy/src/hid/MidiEvent.h **** struct OmniModeOnEvent
 217:../../libDaisy/src/hid/MidiEvent.h **** {
 218:../../libDaisy/src/hid/MidiEvent.h ****     int channel; /**< & */
 219:../../libDaisy/src/hid/MidiEvent.h **** };
 220:../../libDaisy/src/hid/MidiEvent.h **** /** Struct containing MonoModeOnEvent data.
 221:../../libDaisy/src/hid/MidiEvent.h **** Can be made from MidiEvent
 222:../../libDaisy/src/hid/MidiEvent.h **** */
 223:../../libDaisy/src/hid/MidiEvent.h **** struct MonoModeOnEvent
 224:../../libDaisy/src/hid/MidiEvent.h **** {
 225:../../libDaisy/src/hid/MidiEvent.h ****     int     channel;      /**< & */
 226:../../libDaisy/src/hid/MidiEvent.h ****     uint8_t num_channels; /**< & */
 227:../../libDaisy/src/hid/MidiEvent.h **** };
 228:../../libDaisy/src/hid/MidiEvent.h **** /** Struct containing PolyModeOnEvent data.
 229:../../libDaisy/src/hid/MidiEvent.h **** Can be made from MidiEvent
 230:../../libDaisy/src/hid/MidiEvent.h **** */
 231:../../libDaisy/src/hid/MidiEvent.h **** struct PolyModeOnEvent
 232:../../libDaisy/src/hid/MidiEvent.h **** {
 233:../../libDaisy/src/hid/MidiEvent.h ****     int channel; /**< & */
 234:../../libDaisy/src/hid/MidiEvent.h **** };
 235:../../libDaisy/src/hid/MidiEvent.h **** 
 236:../../libDaisy/src/hid/MidiEvent.h **** 
 237:../../libDaisy/src/hid/MidiEvent.h **** /** Simple MidiEvent with message type, channel, and data[2] members.
 238:../../libDaisy/src/hid/MidiEvent.h **** */
 239:../../libDaisy/src/hid/MidiEvent.h **** struct MidiEvent
 240:../../libDaisy/src/hid/MidiEvent.h **** {
 241:../../libDaisy/src/hid/MidiEvent.h ****     // Newer ish.
 242:../../libDaisy/src/hid/MidiEvent.h ****     MidiMessageType    type;                         /**< & */
 243:../../libDaisy/src/hid/MidiEvent.h ****     int                channel;                      /**< & */
 244:../../libDaisy/src/hid/MidiEvent.h ****     uint8_t            data[2];                      /**< & */
 245:../../libDaisy/src/hid/MidiEvent.h ****     uint8_t            sysex_data[SYSEX_BUFFER_LEN]; /**< & */
 246:../../libDaisy/src/hid/MidiEvent.h ****     uint8_t            sysex_message_len;
 247:../../libDaisy/src/hid/MidiEvent.h ****     SystemCommonType   sc_type;
 248:../../libDaisy/src/hid/MidiEvent.h ****     SystemRealTimeType srt_type;
 249:../../libDaisy/src/hid/MidiEvent.h ****     ChannelModeType    cm_type;
ARM GAS  /var/folders/kw/h2sg8jtn02b91cpsjc1nlpg80000gn/T//cccUH3U8.s 			page 62


 250:../../libDaisy/src/hid/MidiEvent.h **** 
 251:../../libDaisy/src/hid/MidiEvent.h ****     /** Returns the data within the MidiEvent as a NoteOffEvent struct */
 252:../../libDaisy/src/hid/MidiEvent.h ****     NoteOffEvent AsNoteOff()
 253:../../libDaisy/src/hid/MidiEvent.h ****     {
 254:../../libDaisy/src/hid/MidiEvent.h ****         NoteOffEvent m;
 255:../../libDaisy/src/hid/MidiEvent.h ****         m.channel  = channel;
 256:../../libDaisy/src/hid/MidiEvent.h ****         m.note     = data[0];
 257:../../libDaisy/src/hid/MidiEvent.h ****         m.velocity = data[1];
 258:../../libDaisy/src/hid/MidiEvent.h ****         return m;
 259:../../libDaisy/src/hid/MidiEvent.h ****     }
 260:../../libDaisy/src/hid/MidiEvent.h **** 
 261:../../libDaisy/src/hid/MidiEvent.h ****     /** Returns the data within the MidiEvent as a NoteOnEvent struct */
 262:../../libDaisy/src/hid/MidiEvent.h ****     NoteOnEvent AsNoteOn()
 263:../../libDaisy/src/hid/MidiEvent.h ****     {
 264:../../libDaisy/src/hid/MidiEvent.h ****         NoteOnEvent m;
 265:../../libDaisy/src/hid/MidiEvent.h ****         m.channel  = channel;
 266:../../libDaisy/src/hid/MidiEvent.h ****         m.note     = data[0];
 267:../../libDaisy/src/hid/MidiEvent.h ****         m.velocity = data[1];
 268:../../libDaisy/src/hid/MidiEvent.h ****         return m;
 269:../../libDaisy/src/hid/MidiEvent.h ****     }
 270:../../libDaisy/src/hid/MidiEvent.h **** 
 271:../../libDaisy/src/hid/MidiEvent.h ****     /** Returns the data within the MidiEvent as a PolyphonicKeyPressureEvent struct */
 272:../../libDaisy/src/hid/MidiEvent.h ****     PolyphonicKeyPressureEvent AsPolyphonicKeyPressure()
 273:../../libDaisy/src/hid/MidiEvent.h ****     {
 274:../../libDaisy/src/hid/MidiEvent.h ****         PolyphonicKeyPressureEvent m;
 275:../../libDaisy/src/hid/MidiEvent.h ****         m.channel  = channel;
 276:../../libDaisy/src/hid/MidiEvent.h ****         m.note     = data[0];
 277:../../libDaisy/src/hid/MidiEvent.h ****         m.pressure = data[1];
 278:../../libDaisy/src/hid/MidiEvent.h ****         return m;
 279:../../libDaisy/src/hid/MidiEvent.h ****     }
 280:../../libDaisy/src/hid/MidiEvent.h **** 
 281:../../libDaisy/src/hid/MidiEvent.h ****     /** Returns the data within the MidiEvent as a ControlChangeEvent struct.*/
 282:../../libDaisy/src/hid/MidiEvent.h ****     ControlChangeEvent AsControlChange()
 283:../../libDaisy/src/hid/MidiEvent.h ****     {
 284:../../libDaisy/src/hid/MidiEvent.h ****         ControlChangeEvent m;
 285:../../libDaisy/src/hid/MidiEvent.h ****         m.channel        = channel;
 286:../../libDaisy/src/hid/MidiEvent.h ****         m.control_number = data[0];
 287:../../libDaisy/src/hid/MidiEvent.h ****         m.value          = data[1];
 288:../../libDaisy/src/hid/MidiEvent.h ****         return m;
 289:../../libDaisy/src/hid/MidiEvent.h ****     }
 290:../../libDaisy/src/hid/MidiEvent.h **** 
 291:../../libDaisy/src/hid/MidiEvent.h ****     /** Returns the data within the MidiEvent as a ProgramChangeEvent struct.*/
 292:../../libDaisy/src/hid/MidiEvent.h ****     ProgramChangeEvent AsProgramChange()
 293:../../libDaisy/src/hid/MidiEvent.h ****     {
 294:../../libDaisy/src/hid/MidiEvent.h ****         ProgramChangeEvent m;
 295:../../libDaisy/src/hid/MidiEvent.h ****         m.channel = channel;
 296:../../libDaisy/src/hid/MidiEvent.h ****         m.program = data[0];
 297:../../libDaisy/src/hid/MidiEvent.h ****         return m;
 298:../../libDaisy/src/hid/MidiEvent.h ****     }
 299:../../libDaisy/src/hid/MidiEvent.h **** 
 300:../../libDaisy/src/hid/MidiEvent.h ****     /** Returns the data within the MidiEvent as a ProgramChangeEvent struct.*/
 301:../../libDaisy/src/hid/MidiEvent.h ****     ChannelPressureEvent AsChannelPressure()
 302:../../libDaisy/src/hid/MidiEvent.h ****     {
 303:../../libDaisy/src/hid/MidiEvent.h ****         ChannelPressureEvent m;
 304:../../libDaisy/src/hid/MidiEvent.h ****         m.channel  = channel;
 305:../../libDaisy/src/hid/MidiEvent.h ****         m.pressure = data[0];
 306:../../libDaisy/src/hid/MidiEvent.h ****         return m;
ARM GAS  /var/folders/kw/h2sg8jtn02b91cpsjc1nlpg80000gn/T//cccUH3U8.s 			page 63


 307:../../libDaisy/src/hid/MidiEvent.h ****     }
 308:../../libDaisy/src/hid/MidiEvent.h **** 
 309:../../libDaisy/src/hid/MidiEvent.h ****     /** Returns the data within the MidiEvent as a PitchBendEvent struct.*/
 310:../../libDaisy/src/hid/MidiEvent.h ****     PitchBendEvent AsPitchBend()
 1231              		.loc 15 310 20 view .LVU320
 1232              	.LBB401:
 311:../../libDaisy/src/hid/MidiEvent.h ****     {
 312:../../libDaisy/src/hid/MidiEvent.h ****         PitchBendEvent m;
 1233              		.loc 15 312 9 view .LVU321
 313:../../libDaisy/src/hid/MidiEvent.h ****         m.channel = channel;
 1234              		.loc 15 313 9 view .LVU322
 314:../../libDaisy/src/hid/MidiEvent.h ****         m.value   = ((uint16_t)data[1] << 7) + (data[0] - 8192);
 1235              		.loc 15 314 9 view .LVU323
 315:../../libDaisy/src/hid/MidiEvent.h ****         return m;
 1236              		.loc 15 315 9 view .LVU324
 1237              		.loc 15 315 9 is_stmt 0 view .LVU325
 1238              	.LBE401:
 1239              	.LBE400:
 111:main.cpp      **** 			{
 1240              		.loc 13 111 13 is_stmt 1 view .LVU326
 111:main.cpp      **** 			{
 1241              		.loc 13 111 26 is_stmt 0 view .LVU327
 1242 0028 984B     		ldr	r3, .L189
 1243 002a 93F88930 		ldrb	r3, [r3, #137]	@ zero_extendqisi2
 111:main.cpp      **** 			{
 1244              		.loc 13 111 13 view .LVU328
 1245 002e 112B     		cmp	r3, #17
 1246 0030 72D0     		beq	.L89
 111:main.cpp      **** 			{
 1247              		.loc 13 111 61 discriminator 1 view .LVU329
 1248 0032 8B42     		cmp	r3, r1
 1249 0034 70D0     		beq	.L89
 1250              	.LVL74:
 1251              	.L77:
 111:main.cpp      **** 			{
 1252              		.loc 13 111 61 discriminator 1 view .LVU330
 1253              	.LBE399:
 1254              	.LBE448:
 498:main.cpp      **** 
 1255              		.loc 13 498 1 view .LVU331
 1256 0036 03B0     		add	sp, sp, #12
 1257              		.cfi_remember_state
 1258              		.cfi_def_cfa_offset 36
 1259              		@ sp needed
 1260 0038 BDE8F040 		pop	{r4, r5, r6, r7, lr}
 1261              		.cfi_restore 14
 1262              		.cfi_restore 7
 1263              		.cfi_restore 6
 1264              		.cfi_restore 5
 1265              		.cfi_restore 4
 1266              		.cfi_def_cfa_offset 16
 1267 003c 04B0     		add	sp, sp, #16
 1268              		.cfi_def_cfa_offset 0
 1269 003e 7047     		bx	lr
 1270              	.LVL75:
 1271              	.L84:
 1272              		.cfi_restore_state
ARM GAS  /var/folders/kw/h2sg8jtn02b91cpsjc1nlpg80000gn/T//cccUH3U8.s 			page 64


  94:main.cpp      ****         {
 1273              		.loc 13 94 9 is_stmt 1 view .LVU332
  95:main.cpp      ****             NoteOnEvent p = m.AsNoteOn();
 1274              		.loc 13 95 9 view .LVU333
 1275              	.LBB449:
 1276              	.LBB406:
  96:main.cpp      ****             if ((vasynth.midi_channel_ == MIDI_CHANNEL_ALL) || (p.channel == vasynth.midi_channel_)
 1277              		.loc 13 96 13 view .LVU334
 1278              	.LBB407:
 1279              	.LBI407:
 262:../../libDaisy/src/hid/MidiEvent.h ****     {
 1280              		.loc 15 262 17 view .LVU335
 1281              	.LBB408:
 264:../../libDaisy/src/hid/MidiEvent.h ****         m.channel  = channel;
 1282              		.loc 15 264 9 view .LVU336
 265:../../libDaisy/src/hid/MidiEvent.h ****         m.note     = data[0];
 1283              		.loc 15 265 9 view .LVU337
 266:../../libDaisy/src/hid/MidiEvent.h ****         m.velocity = data[1];
 1284              		.loc 15 266 9 view .LVU338
 267:../../libDaisy/src/hid/MidiEvent.h ****         return m;
 1285              		.loc 15 267 9 view .LVU339
 268:../../libDaisy/src/hid/MidiEvent.h ****     }
 1286              		.loc 15 268 9 view .LVU340
 268:../../libDaisy/src/hid/MidiEvent.h ****     }
 1287              		.loc 15 268 9 is_stmt 0 view .LVU341
 1288              	.LBE408:
 1289              	.LBE407:
  97:main.cpp      **** 			{
 1290              		.loc 13 97 13 is_stmt 1 view .LVU342
  97:main.cpp      **** 			{
 1291              		.loc 13 97 26 is_stmt 0 view .LVU343
 1292 0040 924B     		ldr	r3, .L189
 1293 0042 93F88930 		ldrb	r3, [r3, #137]	@ zero_extendqisi2
  97:main.cpp      **** 			{
 1294              		.loc 13 97 13 view .LVU344
 1295 0046 112B     		cmp	r3, #17
 1296 0048 01D0     		beq	.L87
  97:main.cpp      **** 			{
 1297              		.loc 13 97 61 discriminator 1 view .LVU345
 1298 004a 8B42     		cmp	r3, r1
 1299 004c F3D1     		bne	.L77
 1300              	.L87:
  99:main.cpp      **** 				{
 1301              		.loc 13 99 5 is_stmt 1 view .LVU346
  99:main.cpp      **** 				{
 1302              		.loc 13 99 16 is_stmt 0 view .LVU347
 1303 004e 904B     		ldr	r3, .L189+4
  99:main.cpp      **** 				{
 1304              		.loc 13 99 5 view .LVU348
 1305 0050 1B88     		ldrh	r3, [r3]
 1306 0052 012B     		cmp	r3, #1
 1307 0054 00F09F82 		beq	.L187
 1308              	.LVL76:
 1309              	.L88:
 103:main.cpp      **** 				hardware.SetLed(false);
 1310              		.loc 13 103 5 is_stmt 1 view .LVU349
 103:main.cpp      **** 				hardware.SetLed(false);
ARM GAS  /var/folders/kw/h2sg8jtn02b91cpsjc1nlpg80000gn/T//cccUH3U8.s 			page 65


 1311              		.loc 13 103 20 is_stmt 0 view .LVU350
 1312 0058 2146     		mov	r1, r4
 1313 005a 8C48     		ldr	r0, .L189
 1314 005c FFF7FEFF 		bl	_ZN7VASynth7NoteOffEh
 1315              	.LVL77:
 104:main.cpp      **** 			}			
 1316              		.loc 13 104 5 is_stmt 1 view .LVU351
 104:main.cpp      **** 			}			
 1317              		.loc 13 104 20 is_stmt 0 view .LVU352
 1318 0060 0021     		movs	r1, #0
 1319              	.LVL78:
 1320              	.L179:
 104:main.cpp      **** 			}			
 1321              		.loc 13 104 20 view .LVU353
 1322 0062 8C48     		ldr	r0, .L189+8
 1323              	.LBE406:
 1324              	.LBE449:
 498:main.cpp      **** 
 1325              		.loc 13 498 1 view .LVU354
 1326 0064 03B0     		add	sp, sp, #12
 1327              		.cfi_remember_state
 1328              		.cfi_def_cfa_offset 36
 1329              		@ sp needed
 1330 0066 BDE8F040 		pop	{r4, r5, r6, r7, lr}
 1331              		.cfi_restore 14
 1332              		.cfi_restore 7
 1333              		.cfi_restore 6
 1334              		.cfi_restore 5
 1335              		.cfi_restore 4
 1336              		.cfi_def_cfa_offset 16
 1337              	.LVL79:
 498:main.cpp      **** 
 1338              		.loc 13 498 1 view .LVU355
 1339 006a 04B0     		add	sp, sp, #16
 1340              		.cfi_def_cfa_offset 0
 1341              	.LBB450:
 1342              	.LBB409:
 104:main.cpp      **** 			}			
 1343              		.loc 13 104 20 view .LVU356
 1344 006c FFF7FEBF 		b	_ZN5daisy9DaisySeed6SetLedEb
 1345              	.LVL80:
 1346              	.L82:
 1347              		.cfi_restore_state
 104:main.cpp      **** 			}			
 1348              		.loc 13 104 20 view .LVU357
 1349              	.LBE409:
 1350              	.LBE450:
 117:main.cpp      ****         {
 1351              		.loc 13 117 9 is_stmt 1 view .LVU358
 118:main.cpp      ****             ControlChangeEvent p = m.AsControlChange();
 1352              		.loc 13 118 9 view .LVU359
 1353              	.LBB451:
 1354              	.LBB410:
 119:main.cpp      ****             switch(p.control_number)
 1355              		.loc 13 119 13 view .LVU360
 1356              	.LBB411:
 1357              	.LBI411:
ARM GAS  /var/folders/kw/h2sg8jtn02b91cpsjc1nlpg80000gn/T//cccUH3U8.s 			page 66


 282:../../libDaisy/src/hid/MidiEvent.h ****     {
 1358              		.loc 15 282 24 view .LVU361
 1359              	.LBB412:
 284:../../libDaisy/src/hid/MidiEvent.h ****         m.channel        = channel;
 1360              		.loc 15 284 9 view .LVU362
 285:../../libDaisy/src/hid/MidiEvent.h ****         m.control_number = data[0];
 1361              		.loc 15 285 9 view .LVU363
 286:../../libDaisy/src/hid/MidiEvent.h ****         m.value          = data[1];
 1362              		.loc 15 286 9 view .LVU364
 287:../../libDaisy/src/hid/MidiEvent.h ****         return m;
 1363              		.loc 15 287 9 view .LVU365
 288:../../libDaisy/src/hid/MidiEvent.h ****     }
 1364              		.loc 15 288 9 view .LVU366
 288:../../libDaisy/src/hid/MidiEvent.h ****     }
 1365              		.loc 15 288 9 is_stmt 0 view .LVU367
 1366              	.LBE412:
 1367              	.LBE411:
 120:main.cpp      ****             {
 1368              		.loc 13 120 13 is_stmt 1 view .LVU368
 1369 0070 012C     		cmp	r4, #1
 1370 0072 5DD0     		beq	.L90
 1371 0074 072C     		cmp	r4, #7
 1372 0076 DED1     		bne	.L77
 126:main.cpp      **** 					switch(param_)
 1373              		.loc 13 126 5 discriminator 4 view .LVU369
 127:main.cpp      **** 					{
 1374              		.loc 13 127 6 discriminator 4 view .LVU370
 127:main.cpp      **** 					{
 1375              		.loc 13 127 13 is_stmt 0 discriminator 4 view .LVU371
 1376 0078 874B     		ldr	r3, .L189+12
 1377 007a 1B78     		ldrb	r3, [r3]	@ zero_extendqisi2
 1378 007c 1C2B     		cmp	r3, #28
 1379 007e DAD8     		bhi	.L77
 1380 0080 DFE813F0 		tbh	[pc, r3, lsl #1]
 1381              	.L93:
 1382 0084 3802     		.2byte	(.L121-.L93)/2
 1383 0086 3102     		.2byte	(.L120-.L93)/2
 1384 0088 2A02     		.2byte	(.L119-.L93)/2
 1385 008a 1E02     		.2byte	(.L118-.L93)/2
 1386 008c 1202     		.2byte	(.L117-.L93)/2
 1387 008e 0202     		.2byte	(.L116-.L93)/2
 1388 0090 F101     		.2byte	(.L115-.L93)/2
 1389 0092 E501     		.2byte	(.L114-.L93)/2
 1390 0094 D901     		.2byte	(.L113-.L93)/2
 1391 0096 CD01     		.2byte	(.L112-.L93)/2
 1392 0098 C101     		.2byte	(.L111-.L93)/2
 1393 009a B501     		.2byte	(.L110-.L93)/2
 1394 009c A901     		.2byte	(.L109-.L93)/2
 1395 009e 9D01     		.2byte	(.L108-.L93)/2
 1396 00a0 9101     		.2byte	(.L107-.L93)/2
 1397 00a2 8501     		.2byte	(.L106-.L93)/2
 1398 00a4 7401     		.2byte	(.L105-.L93)/2
 1399 00a6 6801     		.2byte	(.L104-.L93)/2
 1400 00a8 5C01     		.2byte	(.L103-.L93)/2
 1401 00aa 5701     		.2byte	(.L102-.L93)/2
 1402 00ac 4B01     		.2byte	(.L101-.L93)/2
 1403 00ae 3F01     		.2byte	(.L100-.L93)/2
ARM GAS  /var/folders/kw/h2sg8jtn02b91cpsjc1nlpg80000gn/T//cccUH3U8.s 			page 67


 1404 00b0 3301     		.2byte	(.L99-.L93)/2
 1405 00b2 2201     		.2byte	(.L98-.L93)/2
 1406 00b4 F700     		.2byte	(.L97-.L93)/2
 1407 00b6 E600     		.2byte	(.L96-.L93)/2
 1408 00b8 1601     		.2byte	(.L95-.L93)/2
 1409 00ba D500     		.2byte	(.L94-.L93)/2
 1410 00bc CB00     		.2byte	(.L92-.L93)/2
 1411              	.LVL81:
 1412              		.p2align 1
 1413              	.L83:
 127:main.cpp      **** 					{
 1414              		.loc 13 127 13 discriminator 4 view .LVU372
 1415              	.LBE410:
 1416              	.LBE451:
  80:main.cpp      ****         {
 1417              		.loc 13 80 9 is_stmt 1 view .LVU373
  81:main.cpp      ****             NoteOnEvent p = m.AsNoteOn();
 1418              		.loc 13 81 9 view .LVU374
 1419              	.LBB452:
 1420              	.LBB413:
  82:main.cpp      ****             if ((vasynth.midi_channel_ == MIDI_CHANNEL_ALL) || (p.channel == vasynth.midi_channel_)
 1421              		.loc 13 82 13 view .LVU375
 1422              	.LBB414:
 1423              	.LBI414:
 262:../../libDaisy/src/hid/MidiEvent.h ****     {
 1424              		.loc 15 262 17 view .LVU376
 1425              	.LBB415:
 264:../../libDaisy/src/hid/MidiEvent.h ****         m.channel  = channel;
 1426              		.loc 15 264 9 view .LVU377
 265:../../libDaisy/src/hid/MidiEvent.h ****         m.note     = data[0];
 1427              		.loc 15 265 9 view .LVU378
 266:../../libDaisy/src/hid/MidiEvent.h ****         m.velocity = data[1];
 1428              		.loc 15 266 9 view .LVU379
 267:../../libDaisy/src/hid/MidiEvent.h ****         return m;
 1429              		.loc 15 267 9 view .LVU380
 268:../../libDaisy/src/hid/MidiEvent.h ****     }
 1430              		.loc 15 268 9 view .LVU381
 268:../../libDaisy/src/hid/MidiEvent.h ****     }
 1431              		.loc 15 268 9 is_stmt 0 view .LVU382
 1432              	.LBE415:
 1433              	.LBE414:
  83:main.cpp      **** 			{
 1434              		.loc 13 83 13 is_stmt 1 view .LVU383
  83:main.cpp      **** 			{
 1435              		.loc 13 83 26 is_stmt 0 view .LVU384
 1436 00be 734B     		ldr	r3, .L189
 1437 00c0 93F88930 		ldrb	r3, [r3, #137]	@ zero_extendqisi2
  83:main.cpp      **** 			{
 1438              		.loc 13 83 13 view .LVU385
 1439 00c4 112B     		cmp	r3, #17
 1440 00c6 01D0     		beq	.L85
  83:main.cpp      **** 			{
 1441              		.loc 13 83 61 discriminator 1 view .LVU386
 1442 00c8 8B42     		cmp	r3, r1
 1443 00ca B4D1     		bne	.L77
 1444              	.L85:
  85:main.cpp      **** 				{
ARM GAS  /var/folders/kw/h2sg8jtn02b91cpsjc1nlpg80000gn/T//cccUH3U8.s 			page 68


 1445              		.loc 13 85 5 is_stmt 1 view .LVU387
  85:main.cpp      **** 				{
 1446              		.loc 13 85 16 is_stmt 0 view .LVU388
 1447 00cc 704B     		ldr	r3, .L189+4
  85:main.cpp      **** 				{
 1448              		.loc 13 85 5 view .LVU389
 1449 00ce 1B88     		ldrh	r3, [r3]
 1450 00d0 012B     		cmp	r3, #1
 1451 00d2 00F06582 		beq	.L188
 1452              	.LVL82:
 1453              	.L86:
  89:main.cpp      **** 				hardware.SetLed(true);
 1454              		.loc 13 89 5 is_stmt 1 view .LVU390
  89:main.cpp      **** 				hardware.SetLed(true);
 1455              		.loc 13 89 19 is_stmt 0 view .LVU391
 1456 00d6 2146     		mov	r1, r4
 1457 00d8 6C48     		ldr	r0, .L189
 1458 00da FFF7FEFF 		bl	_ZN7VASynth6NoteOnEhh
 1459              	.LVL83:
  90:main.cpp      **** 			}
 1460              		.loc 13 90 5 is_stmt 1 view .LVU392
  90:main.cpp      **** 			}
 1461              		.loc 13 90 20 is_stmt 0 view .LVU393
 1462 00de 0121     		movs	r1, #1
 1463 00e0 BFE7     		b	.L179
 1464              	.LVL84:
 1465              	.L81:
  90:main.cpp      **** 			}
 1466              		.loc 13 90 20 view .LVU394
 1467              	.LBE413:
 1468              	.LBE452:
 341:main.cpp      ****         {
 1469              		.loc 13 341 3 is_stmt 1 view .LVU395
 342:main.cpp      ****             ProgramChangeEvent p = m.AsProgramChange();
 1470              		.loc 13 342 9 view .LVU396
 1471              	.LBB453:
 1472              	.LBB416:
 343:main.cpp      ****             if ((vasynth.midi_channel_ == MIDI_CHANNEL_ALL) || (p.channel == vasynth.midi_channel_)
 1473              		.loc 13 343 13 view .LVU397
 1474              	.LBB417:
 1475              	.LBI417:
 292:../../libDaisy/src/hid/MidiEvent.h ****     {
 1476              		.loc 15 292 24 view .LVU398
 1477              	.LBB418:
 294:../../libDaisy/src/hid/MidiEvent.h ****         m.channel = channel;
 1478              		.loc 15 294 9 view .LVU399
 295:../../libDaisy/src/hid/MidiEvent.h ****         m.program = data[0];
 1479              		.loc 15 295 9 view .LVU400
 296:../../libDaisy/src/hid/MidiEvent.h ****         return m;
 1480              		.loc 15 296 9 view .LVU401
 297:../../libDaisy/src/hid/MidiEvent.h ****     }
 1481              		.loc 15 297 9 view .LVU402
 297:../../libDaisy/src/hid/MidiEvent.h ****     }
 1482              		.loc 15 297 9 is_stmt 0 view .LVU403
 1483              	.LBE418:
 1484              	.LBE417:
 344:main.cpp      **** 			{
ARM GAS  /var/folders/kw/h2sg8jtn02b91cpsjc1nlpg80000gn/T//cccUH3U8.s 			page 69


 1485              		.loc 13 344 13 is_stmt 1 view .LVU404
 344:main.cpp      **** 			{
 1486              		.loc 13 344 26 is_stmt 0 view .LVU405
 1487 00e2 6A4B     		ldr	r3, .L189
 1488 00e4 93F88930 		ldrb	r3, [r3, #137]	@ zero_extendqisi2
 344:main.cpp      **** 			{
 1489              		.loc 13 344 13 view .LVU406
 1490 00e8 112B     		cmp	r3, #17
 1491 00ea 01D0     		beq	.L139
 344:main.cpp      **** 			{
 1492              		.loc 13 344 61 discriminator 1 view .LVU407
 1493 00ec 8B42     		cmp	r3, r1
 1494 00ee A2D1     		bne	.L77
 1495              	.L139:
 346:main.cpp      **** 				{
 1496              		.loc 13 346 5 is_stmt 1 view .LVU408
 1497 00f0 1C2C     		cmp	r4, #28
 1498 00f2 40F24882 		bls	.L140
 348:main.cpp      **** 					{
 1499              		.loc 13 348 6 view .LVU409
 1500 00f6 233C     		subs	r4, r4, #35
 1501              	.LVL85:
 348:main.cpp      **** 					{
 1502              		.loc 13 348 6 is_stmt 0 view .LVU410
 1503 00f8 172C     		cmp	r4, #23
 1504 00fa 9CD8     		bhi	.L77
 1505 00fc DFE804F0 		tbb	[pc, r4]
 1506              	.L142:
 1507 0100 86       		.byte	(.L165-.L142)/2
 1508 0101 72       		.byte	(.L164-.L142)/2
 1509 0102 68       		.byte	(.L163-.L142)/2
 1510 0103 5D       		.byte	(.L162-.L142)/2
 1511 0104 5B       		.byte	(.L161-.L142)/2
 1512 0105 59       		.byte	(.L160-.L142)/2
 1513 0106 57       		.byte	(.L159-.L142)/2
 1514 0107 55       		.byte	(.L158-.L142)/2
 1515 0108 53       		.byte	(.L157-.L142)/2
 1516 0109 51       		.byte	(.L156-.L142)/2
 1517 010a 4F       		.byte	(.L155-.L142)/2
 1518 010b 4D       		.byte	(.L154-.L142)/2
 1519 010c 4B       		.byte	(.L153-.L142)/2
 1520 010d 43       		.byte	(.L152-.L142)/2
 1521 010e 41       		.byte	(.L151-.L142)/2
 1522 010f 3F       		.byte	(.L150-.L142)/2
 1523 0110 3D       		.byte	(.L149-.L142)/2
 1524 0111 3B       		.byte	(.L148-.L142)/2
 1525 0112 39       		.byte	(.L147-.L142)/2
 1526 0113 37       		.byte	(.L146-.L142)/2
 1527 0114 35       		.byte	(.L145-.L142)/2
 1528 0115 33       		.byte	(.L144-.L142)/2
 1529 0116 31       		.byte	(.L143-.L142)/2
 1530 0117 29       		.byte	(.L141-.L142)/2
 1531              	.LVL86:
 1532              		.p2align 1
 1533              	.L89:
 348:main.cpp      **** 					{
 1534              		.loc 13 348 6 view .LVU411
ARM GAS  /var/folders/kw/h2sg8jtn02b91cpsjc1nlpg80000gn/T//cccUH3U8.s 			page 70


 1535              	.LBE416:
 1536              	.LBB429:
 113:main.cpp      **** 			}			
 1537              		.loc 13 113 5 is_stmt 1 view .LVU412
 1538              	.LBB404:
 1539              	.LBB402:
 314:../../libDaisy/src/hid/MidiEvent.h ****         return m;
 1540              		.loc 15 314 46 is_stmt 0 view .LVU413
 1541 0118 A4F50054 		sub	r4, r4, #8192
 1542              	.LVL87:
 314:../../libDaisy/src/hid/MidiEvent.h ****         return m;
 1543              		.loc 15 314 46 view .LVU414
 1544              	.LBE402:
 1545              	.LBE404:
 113:main.cpp      **** 			}			
 1546              		.loc 13 113 22 view .LVU415
 1547 011c 5B48     		ldr	r0, .L189
 1548              	.LBB405:
 1549              	.LBB403:
 314:../../libDaisy/src/hid/MidiEvent.h ****         return m;
 1550              		.loc 15 314 46 view .LVU416
 1551 011e 04EBC214 		add	r4, r4, r2, lsl #7
 1552              	.LVL88:
 314:../../libDaisy/src/hid/MidiEvent.h ****         return m;
 1553              		.loc 15 314 46 view .LVU417
 1554              	.LBE403:
 1555              	.LBE405:
 113:main.cpp      **** 			}			
 1556              		.loc 13 113 22 view .LVU418
 1557 0122 21B2     		sxth	r1, r4
 1558              	.LBE429:
 1559              	.LBE453:
 498:main.cpp      **** 
 1560              		.loc 13 498 1 view .LVU419
 1561 0124 03B0     		add	sp, sp, #12
 1562              		.cfi_remember_state
 1563              		.cfi_def_cfa_offset 36
 1564              		@ sp needed
 1565 0126 BDE8F040 		pop	{r4, r5, r6, r7, lr}
 1566              		.cfi_restore 14
 1567              		.cfi_restore 7
 1568              		.cfi_restore 6
 1569              		.cfi_restore 5
 1570              		.cfi_restore 4
 1571              		.cfi_def_cfa_offset 16
 1572 012a 04B0     		add	sp, sp, #16
 1573              		.cfi_def_cfa_offset 0
 1574              	.LBB454:
 1575              	.LBB430:
 113:main.cpp      **** 			}			
 1576              		.loc 13 113 22 view .LVU420
 1577 012c FFF7FEBF 		b	_ZN7VASynth9PitchBendEs
 1578              	.LVL89:
 1579              	.L90:
 1580              		.cfi_restore_state
 113:main.cpp      **** 			}			
 1581              		.loc 13 113 22 view .LVU421
ARM GAS  /var/folders/kw/h2sg8jtn02b91cpsjc1nlpg80000gn/T//cccUH3U8.s 			page 71


 1582              	.LBE430:
 1583              	.LBB431:
 122:main.cpp      **** 					vasynth.lfo_amp_ = ((float)p.value / 127.0f);
 1584              		.loc 13 122 5 is_stmt 1 view .LVU422
 123:main.cpp      ****                     vasynth.SetLFO();
 1585              		.loc 13 123 6 view .LVU423
 123:main.cpp      ****                     vasynth.SetLFO();
 1586              		.loc 13 123 26 is_stmt 0 view .LVU424
 1587 0130 07EE902A 		vmov	s15, r2	@ int
 123:main.cpp      ****                     vasynth.SetLFO();
 1588              		.loc 13 123 41 view .LVU425
 1589 0134 9FED5D7A 		vldr.32	s14, .L189+32
 123:main.cpp      ****                     vasynth.SetLFO();
 1590              		.loc 13 123 23 view .LVU426
 1591 0138 5448     		ldr	r0, .L189
 123:main.cpp      ****                     vasynth.SetLFO();
 1592              		.loc 13 123 26 view .LVU427
 1593 013a F8EE676A 		vcvt.f32.u32	s13, s15
 123:main.cpp      ****                     vasynth.SetLFO();
 1594              		.loc 13 123 41 view .LVU428
 1595 013e C6EE877A 		vdiv.f32	s15, s13, s14
 123:main.cpp      ****                     vasynth.SetLFO();
 1596              		.loc 13 123 23 view .LVU429
 1597 0142 C0ED137A 		vstr.32	s15, [r0, #76]
 124:main.cpp      ****                     break;
 1598              		.loc 13 124 21 is_stmt 1 view .LVU430
 1599              	.L180:
 276:main.cpp      **** 							break;
 1600              		.loc 13 276 8 view .LVU431
 1601              	.LBE431:
 1602              	.LBE454:
 498:main.cpp      **** 
 1603              		.loc 13 498 1 is_stmt 0 view .LVU432
 1604 0146 03B0     		add	sp, sp, #12
 1605              		.cfi_remember_state
 1606              		.cfi_def_cfa_offset 36
 1607              		@ sp needed
 1608 0148 BDE8F040 		pop	{r4, r5, r6, r7, lr}
 1609              		.cfi_restore 14
 1610              		.cfi_restore 7
 1611              		.cfi_restore 6
 1612              		.cfi_restore 5
 1613              		.cfi_restore 4
 1614              		.cfi_def_cfa_offset 16
 1615              	.LVL90:
 498:main.cpp      **** 
 1616              		.loc 13 498 1 view .LVU433
 1617 014c 04B0     		add	sp, sp, #16
 1618              		.cfi_def_cfa_offset 0
 1619              	.LBB455:
 1620              	.LBB432:
 276:main.cpp      **** 							break;
 1621              		.loc 13 276 22 view .LVU434
 1622 014e FFF7FEBF 		b	_ZN7VASynth6SetLFOEv
 1623              	.LVL91:
 1624              	.L141:
 1625              		.cfi_restore_state
ARM GAS  /var/folders/kw/h2sg8jtn02b91cpsjc1nlpg80000gn/T//cccUH3U8.s 			page 72


 276:main.cpp      **** 							break;
 1626              		.loc 13 276 22 view .LVU435
 1627              	.LBE432:
 1628              	.LBB433:
 482:main.cpp      **** 						{
 1629              		.loc 13 482 7 is_stmt 1 view .LVU436
 483:main.cpp      **** 							vasynth.FlashSave(9);
 1630              		.loc 13 483 7 view .LVU437
 484:main.cpp      **** 							break;
 1631              		.loc 13 484 8 view .LVU438
 484:main.cpp      **** 							break;
 1632              		.loc 13 484 25 is_stmt 0 view .LVU439
 1633 0152 0921     		movs	r1, #9
 1634              	.L182:
 1635 0154 4D48     		ldr	r0, .L189
 1636              	.LBE433:
 1637              	.LBE455:
 498:main.cpp      **** 
 1638              		.loc 13 498 1 view .LVU440
 1639 0156 03B0     		add	sp, sp, #12
 1640              		.cfi_remember_state
 1641              		.cfi_def_cfa_offset 36
 1642              		@ sp needed
 1643 0158 BDE8F040 		pop	{r4, r5, r6, r7, lr}
 1644              		.cfi_restore 14
 1645              		.cfi_restore 7
 1646              		.cfi_restore 6
 1647              		.cfi_restore 5
 1648              		.cfi_restore 4
 1649              		.cfi_def_cfa_offset 16
 1650              	.LVL92:
 498:main.cpp      **** 
 1651              		.loc 13 498 1 view .LVU441
 1652 015c 04B0     		add	sp, sp, #16
 1653              		.cfi_def_cfa_offset 0
 1654              	.LBB456:
 1655              	.LBB434:
 484:main.cpp      **** 							break;
 1656              		.loc 13 484 25 view .LVU442
 1657 015e FFF7FEBF 		b	_ZN7VASynth9FlashSaveEh
 1658              	.LVL93:
 1659              	.L143:
 1660              		.cfi_restore_state
 477:main.cpp      **** 						{
 1661              		.loc 13 477 7 is_stmt 1 view .LVU443
 478:main.cpp      **** 							vasynth.FlashSave(8);
 1662              		.loc 13 478 7 view .LVU444
 479:main.cpp      **** 							break;
 1663              		.loc 13 479 8 view .LVU445
 479:main.cpp      **** 							break;
 1664              		.loc 13 479 25 is_stmt 0 view .LVU446
 1665 0162 0821     		movs	r1, #8
 1666 0164 F6E7     		b	.L182
 1667              	.L144:
 472:main.cpp      **** 						{
 1668              		.loc 13 472 7 is_stmt 1 view .LVU447
 473:main.cpp      **** 							vasynth.FlashSave(7);
ARM GAS  /var/folders/kw/h2sg8jtn02b91cpsjc1nlpg80000gn/T//cccUH3U8.s 			page 73


 1669              		.loc 13 473 7 view .LVU448
 474:main.cpp      **** 							break;
 1670              		.loc 13 474 8 view .LVU449
 474:main.cpp      **** 							break;
 1671              		.loc 13 474 25 is_stmt 0 view .LVU450
 1672 0166 0721     		movs	r1, #7
 1673 0168 F4E7     		b	.L182
 1674              	.L145:
 467:main.cpp      **** 						{
 1675              		.loc 13 467 7 is_stmt 1 view .LVU451
 468:main.cpp      **** 							vasynth.FlashSave(6);
 1676              		.loc 13 468 7 view .LVU452
 469:main.cpp      **** 							break;
 1677              		.loc 13 469 8 view .LVU453
 469:main.cpp      **** 							break;
 1678              		.loc 13 469 25 is_stmt 0 view .LVU454
 1679 016a 0621     		movs	r1, #6
 1680 016c F2E7     		b	.L182
 1681              	.L146:
 462:main.cpp      **** 						{
 1682              		.loc 13 462 7 is_stmt 1 view .LVU455
 463:main.cpp      **** 							vasynth.FlashSave(5);
 1683              		.loc 13 463 7 view .LVU456
 464:main.cpp      **** 							break;
 1684              		.loc 13 464 8 view .LVU457
 464:main.cpp      **** 							break;
 1685              		.loc 13 464 25 is_stmt 0 view .LVU458
 1686 016e 0521     		movs	r1, #5
 1687 0170 F0E7     		b	.L182
 1688              	.L147:
 457:main.cpp      **** 						{
 1689              		.loc 13 457 7 is_stmt 1 view .LVU459
 458:main.cpp      **** 							vasynth.FlashSave(4);
 1690              		.loc 13 458 7 view .LVU460
 459:main.cpp      **** 							break;
 1691              		.loc 13 459 8 view .LVU461
 459:main.cpp      **** 							break;
 1692              		.loc 13 459 25 is_stmt 0 view .LVU462
 1693 0172 0421     		movs	r1, #4
 1694 0174 EEE7     		b	.L182
 1695              	.L148:
 452:main.cpp      **** 						{
 1696              		.loc 13 452 7 is_stmt 1 view .LVU463
 453:main.cpp      **** 							vasynth.FlashSave(3);
 1697              		.loc 13 453 7 view .LVU464
 454:main.cpp      **** 							break;
 1698              		.loc 13 454 8 view .LVU465
 454:main.cpp      **** 							break;
 1699              		.loc 13 454 25 is_stmt 0 view .LVU466
 1700 0176 0321     		movs	r1, #3
 1701 0178 ECE7     		b	.L182
 1702              	.L149:
 447:main.cpp      **** 						{
 1703              		.loc 13 447 7 is_stmt 1 view .LVU467
 448:main.cpp      **** 							vasynth.FlashSave(2);
 1704              		.loc 13 448 7 view .LVU468
 449:main.cpp      **** 							break;
ARM GAS  /var/folders/kw/h2sg8jtn02b91cpsjc1nlpg80000gn/T//cccUH3U8.s 			page 74


 1705              		.loc 13 449 8 view .LVU469
 449:main.cpp      **** 							break;
 1706              		.loc 13 449 25 is_stmt 0 view .LVU470
 1707 017a 0221     		movs	r1, #2
 1708 017c EAE7     		b	.L182
 1709              	.L150:
 442:main.cpp      **** 						{
 1710              		.loc 13 442 7 is_stmt 1 view .LVU471
 443:main.cpp      **** 							vasynth.FlashSave(1);
 1711              		.loc 13 443 7 view .LVU472
 444:main.cpp      **** 							break;
 1712              		.loc 13 444 8 view .LVU473
 444:main.cpp      **** 							break;
 1713              		.loc 13 444 25 is_stmt 0 view .LVU474
 1714 017e 0121     		movs	r1, #1
 1715 0180 E8E7     		b	.L182
 1716              	.L151:
 437:main.cpp      **** 						{
 1717              		.loc 13 437 7 is_stmt 1 view .LVU475
 438:main.cpp      **** 							vasynth.FlashSave(0);
 1718              		.loc 13 438 7 view .LVU476
 439:main.cpp      **** 							break;
 1719              		.loc 13 439 8 view .LVU477
 439:main.cpp      **** 							break;
 1720              		.loc 13 439 25 is_stmt 0 view .LVU478
 1721 0182 0021     		movs	r1, #0
 1722 0184 E6E7     		b	.L182
 1723              	.L152:
 432:main.cpp      **** 						{
 1724              		.loc 13 432 7 is_stmt 1 view .LVU479
 433:main.cpp      **** 							vasynth.FlashLoad(9);
 1725              		.loc 13 433 7 view .LVU480
 434:main.cpp      **** 							break;
 1726              		.loc 13 434 8 view .LVU481
 434:main.cpp      **** 							break;
 1727              		.loc 13 434 25 is_stmt 0 view .LVU482
 1728 0186 0921     		movs	r1, #9
 1729              	.L183:
 1730 0188 4048     		ldr	r0, .L189
 1731              	.LBE434:
 1732              	.LBE456:
 498:main.cpp      **** 
 1733              		.loc 13 498 1 view .LVU483
 1734 018a 03B0     		add	sp, sp, #12
 1735              		.cfi_remember_state
 1736              		.cfi_def_cfa_offset 36
 1737              		@ sp needed
 1738 018c BDE8F040 		pop	{r4, r5, r6, r7, lr}
 1739              		.cfi_restore 14
 1740              		.cfi_restore 7
 1741              		.cfi_restore 6
 1742              		.cfi_restore 5
 1743              		.cfi_restore 4
 1744              		.cfi_def_cfa_offset 16
 1745 0190 04B0     		add	sp, sp, #16
 1746              		.cfi_def_cfa_offset 0
 1747              	.LBB457:
ARM GAS  /var/folders/kw/h2sg8jtn02b91cpsjc1nlpg80000gn/T//cccUH3U8.s 			page 75


 1748              	.LBB435:
 434:main.cpp      **** 							break;
 1749              		.loc 13 434 25 view .LVU484
 1750 0192 FFF7FEBF 		b	_ZN7VASynth9FlashLoadEh
 1751              	.LVL94:
 1752              	.L153:
 1753              		.cfi_restore_state
 427:main.cpp      **** 						{
 1754              		.loc 13 427 7 is_stmt 1 view .LVU485
 428:main.cpp      **** 							vasynth.FlashLoad(8);
 1755              		.loc 13 428 7 view .LVU486
 429:main.cpp      **** 							break;
 1756              		.loc 13 429 8 view .LVU487
 429:main.cpp      **** 							break;
 1757              		.loc 13 429 25 is_stmt 0 view .LVU488
 1758 0196 0821     		movs	r1, #8
 1759 0198 F6E7     		b	.L183
 1760              	.L154:
 422:main.cpp      **** 						{
 1761              		.loc 13 422 7 is_stmt 1 view .LVU489
 423:main.cpp      **** 							vasynth.FlashLoad(7);
 1762              		.loc 13 423 7 view .LVU490
 424:main.cpp      **** 							break;
 1763              		.loc 13 424 8 view .LVU491
 424:main.cpp      **** 							break;
 1764              		.loc 13 424 25 is_stmt 0 view .LVU492
 1765 019a 0721     		movs	r1, #7
 1766 019c F4E7     		b	.L183
 1767              	.L155:
 417:main.cpp      **** 						{
 1768              		.loc 13 417 7 is_stmt 1 view .LVU493
 418:main.cpp      **** 							vasynth.FlashLoad(6);
 1769              		.loc 13 418 7 view .LVU494
 419:main.cpp      **** 							break;
 1770              		.loc 13 419 8 view .LVU495
 419:main.cpp      **** 							break;
 1771              		.loc 13 419 25 is_stmt 0 view .LVU496
 1772 019e 0621     		movs	r1, #6
 1773 01a0 F2E7     		b	.L183
 1774              	.L156:
 412:main.cpp      **** 						{
 1775              		.loc 13 412 7 is_stmt 1 view .LVU497
 413:main.cpp      **** 							vasynth.FlashLoad(5);
 1776              		.loc 13 413 7 view .LVU498
 414:main.cpp      **** 							break;
 1777              		.loc 13 414 8 view .LVU499
 414:main.cpp      **** 							break;
 1778              		.loc 13 414 25 is_stmt 0 view .LVU500
 1779 01a2 0521     		movs	r1, #5
 1780 01a4 F0E7     		b	.L183
 1781              	.L157:
 407:main.cpp      **** 						{
 1782              		.loc 13 407 7 is_stmt 1 view .LVU501
 408:main.cpp      **** 							vasynth.FlashLoad(4);
 1783              		.loc 13 408 7 view .LVU502
 409:main.cpp      **** 							break;
 1784              		.loc 13 409 8 view .LVU503
ARM GAS  /var/folders/kw/h2sg8jtn02b91cpsjc1nlpg80000gn/T//cccUH3U8.s 			page 76


 409:main.cpp      **** 							break;
 1785              		.loc 13 409 25 is_stmt 0 view .LVU504
 1786 01a6 0421     		movs	r1, #4
 1787 01a8 EEE7     		b	.L183
 1788              	.L158:
 402:main.cpp      **** 						{
 1789              		.loc 13 402 7 is_stmt 1 view .LVU505
 403:main.cpp      **** 							vasynth.FlashLoad(3);
 1790              		.loc 13 403 7 view .LVU506
 404:main.cpp      **** 							break;
 1791              		.loc 13 404 8 view .LVU507
 404:main.cpp      **** 							break;
 1792              		.loc 13 404 25 is_stmt 0 view .LVU508
 1793 01aa 0321     		movs	r1, #3
 1794 01ac ECE7     		b	.L183
 1795              	.L159:
 397:main.cpp      **** 						{
 1796              		.loc 13 397 7 is_stmt 1 view .LVU509
 398:main.cpp      **** 							vasynth.FlashLoad(2);
 1797              		.loc 13 398 7 view .LVU510
 399:main.cpp      **** 							break;
 1798              		.loc 13 399 8 view .LVU511
 399:main.cpp      **** 							break;
 1799              		.loc 13 399 25 is_stmt 0 view .LVU512
 1800 01ae 0221     		movs	r1, #2
 1801 01b0 EAE7     		b	.L183
 1802              	.L160:
 392:main.cpp      **** 						{
 1803              		.loc 13 392 7 is_stmt 1 view .LVU513
 393:main.cpp      **** 							vasynth.FlashLoad(1);
 1804              		.loc 13 393 7 view .LVU514
 394:main.cpp      **** 							break;
 1805              		.loc 13 394 8 view .LVU515
 394:main.cpp      **** 							break;
 1806              		.loc 13 394 25 is_stmt 0 view .LVU516
 1807 01b2 0121     		movs	r1, #1
 1808 01b4 E8E7     		b	.L183
 1809              	.L161:
 387:main.cpp      **** 						{
 1810              		.loc 13 387 7 is_stmt 1 view .LVU517
 388:main.cpp      **** 							vasynth.FlashLoad(0);
 1811              		.loc 13 388 7 view .LVU518
 389:main.cpp      **** 							break;
 1812              		.loc 13 389 8 view .LVU519
 389:main.cpp      **** 							break;
 1813              		.loc 13 389 25 is_stmt 0 view .LVU520
 1814 01b6 0021     		movs	r1, #0
 1815 01b8 E6E7     		b	.L183
 1816              	.L162:
 379:main.cpp      **** 						{
 1817              		.loc 13 379 7 is_stmt 1 view .LVU521
 380:main.cpp      **** 							// Sequencer Mode Play
 1818              		.loc 13 380 7 view .LVU522
 382:main.cpp      **** 							seqclock = 0;
 1819              		.loc 13 382 8 view .LVU523
 383:main.cpp      **** 							seqmem = 0x00010000;
 1820              		.loc 13 383 17 is_stmt 0 view .LVU524
ARM GAS  /var/folders/kw/h2sg8jtn02b91cpsjc1nlpg80000gn/T//cccUH3U8.s 			page 77


 1821 01ba 384A     		ldr	r2, .L189+16
 1822              	.LVL95:
 383:main.cpp      **** 							seqmem = 0x00010000;
 1823              		.loc 13 383 17 view .LVU525
 1824 01bc 0021     		movs	r1, #0
 382:main.cpp      **** 							seqclock = 0;
 1825              		.loc 13 382 16 view .LVU526
 1826 01be 3448     		ldr	r0, .L189+4
 1827 01c0 0324     		movs	r4, #3
 384:main.cpp      **** 							break;
 1828              		.loc 13 384 15 view .LVU527
 1829 01c2 374B     		ldr	r3, .L189+20
 383:main.cpp      **** 							seqmem = 0x00010000;
 1830              		.loc 13 383 17 view .LVU528
 1831 01c4 1180     		strh	r1, [r2]	@ movhi
 384:main.cpp      **** 							break;
 1832              		.loc 13 384 15 view .LVU529
 1833 01c6 4FF48032 		mov	r2, #65536
 382:main.cpp      **** 							seqclock = 0;
 1834              		.loc 13 382 16 view .LVU530
 1835 01ca 0480     		strh	r4, [r0]	@ movhi
 383:main.cpp      **** 							seqmem = 0x00010000;
 1836              		.loc 13 383 8 is_stmt 1 view .LVU531
 384:main.cpp      **** 							break;
 1837              		.loc 13 384 8 view .LVU532
 384:main.cpp      **** 							break;
 1838              		.loc 13 384 15 is_stmt 0 view .LVU533
 1839 01cc 1A60     		str	r2, [r3]
 385:main.cpp      **** 						}
 1840              		.loc 13 385 8 is_stmt 1 view .LVU534
 1841 01ce 32E7     		b	.L77
 1842              	.LVL96:
 1843              	.L163:
 371:main.cpp      **** 						{
 1844              		.loc 13 371 7 view .LVU535
 372:main.cpp      **** 							// Sequencer Mode Stop
 1845              		.loc 13 372 7 view .LVU536
 374:main.cpp      **** 							seqclock = 0;
 1846              		.loc 13 374 8 view .LVU537
 374:main.cpp      **** 							seqclock = 0;
 1847              		.loc 13 374 16 is_stmt 0 view .LVU538
 1848 01d0 0023     		movs	r3, #0
 1849 01d2 2F4C     		ldr	r4, .L189+4
 375:main.cpp      **** 							seqmem = 0x00010000;
 1850              		.loc 13 375 17 view .LVU539
 1851 01d4 3148     		ldr	r0, .L189+16
 376:main.cpp      **** 							break;
 1852              		.loc 13 376 15 view .LVU540
 1853 01d6 4FF48031 		mov	r1, #65536
 1854 01da 314A     		ldr	r2, .L189+20
 1855              	.LVL97:
 374:main.cpp      **** 							seqclock = 0;
 1856              		.loc 13 374 16 view .LVU541
 1857 01dc 2380     		strh	r3, [r4]	@ movhi
 375:main.cpp      **** 							seqmem = 0x00010000;
 1858              		.loc 13 375 8 is_stmt 1 view .LVU542
 375:main.cpp      **** 							seqmem = 0x00010000;
ARM GAS  /var/folders/kw/h2sg8jtn02b91cpsjc1nlpg80000gn/T//cccUH3U8.s 			page 78


 1859              		.loc 13 375 17 is_stmt 0 view .LVU543
 1860 01de 0380     		strh	r3, [r0]	@ movhi
 376:main.cpp      **** 							break;
 1861              		.loc 13 376 8 is_stmt 1 view .LVU544
 376:main.cpp      **** 							break;
 1862              		.loc 13 376 15 is_stmt 0 view .LVU545
 1863 01e0 1160     		str	r1, [r2]
 377:main.cpp      **** 						}
 1864              		.loc 13 377 8 is_stmt 1 view .LVU546
 1865 01e2 28E7     		b	.L77
 1866              	.LVL98:
 1867              	.L164:
 357:main.cpp      **** 						{
 1868              		.loc 13 357 7 view .LVU547
 358:main.cpp      **** 							// Sequencer Mode Record End
 1869              		.loc 13 358 7 view .LVU548
 360:main.cpp      **** 							// Place a time-stamp and stop marker at the current position and stop the sequencer
 1870              		.loc 13 360 8 view .LVU549
 362:main.cpp      **** 							seqmem++;
 1871              		.loc 13 362 8 view .LVU550
 362:main.cpp      **** 							seqmem++;
 1872              		.loc 13 362 21 is_stmt 0 view .LVU551
 1873 01e4 2E4B     		ldr	r3, .L189+20
 1874              	.LBB419:
 1875              	.LBB420:
 607:main.cpp      **** }
 1876              		.loc 13 607 60 view .LVU552
 1877 01e6 4FF6FF7E 		movw	lr, #65535
 1878              	.LBE420:
 1879              	.LBE419:
 362:main.cpp      **** 							seqmem++;
 1880              		.loc 13 362 21 view .LVU553
 1881 01ea 2C4A     		ldr	r2, .L189+16
 1882              	.LVL99:
 366:main.cpp      **** 							seqclock = 0;
 1883              		.loc 13 366 16 view .LVU554
 1884 01ec 0021     		movs	r1, #0
 362:main.cpp      **** 							seqmem++;
 1885              		.loc 13 362 21 view .LVU555
 1886 01ee 1868     		ldr	r0, [r3]
 1887 01f0 1688     		ldrh	r6, [r2]
 1888              	.LVL100:
 1889              	.LBB423:
 1890              	.LBI423:
 604:main.cpp      **** {
 1891              		.loc 13 604 6 is_stmt 1 view .LVU556
 1892              	.LBB424:
 607:main.cpp      **** }
 1893              		.loc 13 607 3 view .LVU557
 607:main.cpp      **** }
 1894              		.loc 13 607 48 is_stmt 0 view .LVU558
 1895 01f2 00F10055 		add	r5, r0, #536870912
 1896              	.LBE424:
 1897              	.LBE423:
 1898              	.LBB426:
 1899              	.LBB421:
 1900 01f6 2B4F     		ldr	r7, .L189+24
ARM GAS  /var/folders/kw/h2sg8jtn02b91cpsjc1nlpg80000gn/T//cccUH3U8.s 			page 79


 1901              	.LBE421:
 1902              	.LBE426:
 366:main.cpp      **** 							seqclock = 0;
 1903              		.loc 13 366 16 view .LVU559
 1904 01f8 254C     		ldr	r4, .L189+4
 1905              	.LBB427:
 1906              	.LBB425:
 607:main.cpp      **** }
 1907              		.loc 13 607 60 view .LVU560
 1908 01fa 2E80     		strh	r6, [r5]	@ movhi
 1909              	.LVL101:
 607:main.cpp      **** }
 1910              		.loc 13 607 60 view .LVU561
 1911              	.LBE425:
 1912              	.LBE427:
 363:main.cpp      **** 							seqmem++;
 1913              		.loc 13 363 8 is_stmt 1 view .LVU562
 364:main.cpp      **** 							writeSramWord(seqmem, 0xFFFF);
 1914              		.loc 13 364 8 view .LVU563
 365:main.cpp      **** 							seqmode = 0;
 1915              		.loc 13 365 8 view .LVU564
 1916              	.LBB428:
 1917              	.LBI419:
 604:main.cpp      **** {
 1918              		.loc 13 604 6 view .LVU565
 1919              	.LBB422:
 607:main.cpp      **** }
 1920              		.loc 13 607 3 view .LVU566
 607:main.cpp      **** }
 1921              		.loc 13 607 60 is_stmt 0 view .LVU567
 1922 01fc 20F807E0 		strh	lr, [r0, r7]	@ movhi
 1923              	.LVL102:
 607:main.cpp      **** }
 1924              		.loc 13 607 60 view .LVU568
 1925              	.LBE422:
 1926              	.LBE428:
 366:main.cpp      **** 							seqclock = 0;
 1927              		.loc 13 366 8 is_stmt 1 view .LVU569
 368:main.cpp      **** 							break;
 1928              		.loc 13 368 15 is_stmt 0 view .LVU570
 1929 0200 4FF48030 		mov	r0, #65536
 366:main.cpp      **** 							seqclock = 0;
 1930              		.loc 13 366 16 view .LVU571
 1931 0204 2180     		strh	r1, [r4]	@ movhi
 367:main.cpp      **** 							seqmem = 0x00010000;
 1932              		.loc 13 367 8 is_stmt 1 view .LVU572
 367:main.cpp      **** 							seqmem = 0x00010000;
 1933              		.loc 13 367 17 is_stmt 0 view .LVU573
 1934 0206 1180     		strh	r1, [r2]	@ movhi
 368:main.cpp      **** 							break;
 1935              		.loc 13 368 8 is_stmt 1 view .LVU574
 368:main.cpp      **** 							break;
 1936              		.loc 13 368 15 is_stmt 0 view .LVU575
 1937 0208 1860     		str	r0, [r3]
 369:main.cpp      **** 						}
 1938              		.loc 13 369 8 is_stmt 1 view .LVU576
 1939 020a 14E7     		b	.L77
ARM GAS  /var/folders/kw/h2sg8jtn02b91cpsjc1nlpg80000gn/T//cccUH3U8.s 			page 80


 1940              	.LVL103:
 1941              	.L165:
 350:main.cpp      **** 						{
 1942              		.loc 13 350 7 view .LVU577
 351:main.cpp      **** 							// Sequencer Mode Record
 1943              		.loc 13 351 7 view .LVU578
 353:main.cpp      **** 							seqclock = 0;
 1944              		.loc 13 353 8 view .LVU579
 353:main.cpp      **** 							seqclock = 0;
 1945              		.loc 13 353 16 is_stmt 0 view .LVU580
 1946 020c 2049     		ldr	r1, .L189+4
 1947 020e 0120     		movs	r0, #1
 354:main.cpp      **** 							break;
 1948              		.loc 13 354 17 view .LVU581
 1949 0210 224B     		ldr	r3, .L189+16
 1950 0212 0022     		movs	r2, #0
 1951              	.LVL104:
 353:main.cpp      **** 							seqclock = 0;
 1952              		.loc 13 353 16 view .LVU582
 1953 0214 0880     		strh	r0, [r1]	@ movhi
 354:main.cpp      **** 							break;
 1954              		.loc 13 354 8 is_stmt 1 view .LVU583
 354:main.cpp      **** 							break;
 1955              		.loc 13 354 17 is_stmt 0 view .LVU584
 1956 0216 1A80     		strh	r2, [r3]	@ movhi
 355:main.cpp      **** 						}
 1957              		.loc 13 355 8 is_stmt 1 view .LVU585
 1958 0218 0DE7     		b	.L77
 1959              	.LVL105:
 1960              	.L92:
 355:main.cpp      **** 						}
 1961              		.loc 13 355 8 is_stmt 0 view .LVU586
 1962              	.LBE435:
 1963              	.LBB436:
 315:main.cpp      **** 						{
 1964              		.loc 13 315 7 is_stmt 1 discriminator 8 view .LVU587
 316:main.cpp      **** 							switch(p.value >> 5)
 1965              		.loc 13 316 7 discriminator 8 view .LVU588
 317:main.cpp      **** 							{
 1966              		.loc 13 317 8 discriminator 8 view .LVU589
 1967 021a 5209     		lsrs	r2, r2, #5
 1968              	.LVL106:
 317:main.cpp      **** 							{
 1969              		.loc 13 317 8 is_stmt 0 discriminator 8 view .LVU590
 1970 021c 032A     		cmp	r2, #3
 1971 021e 00F2A181 		bhi	.L133
 1972 0222 DFE812F0 		tbh	[pc, r2, lsl #1]
 1973              	.L135:
 1974 0226 A601     		.2byte	(.L138-.L135)/2
 1975 0228 AB01     		.2byte	(.L137-.L135)/2
 1976 022a A101     		.2byte	(.L136-.L135)/2
 1977 022c 9B01     		.2byte	(.L134-.L135)/2
 1978              	.LVL107:
 1979              		.p2align 1
 1980              	.L94:
 309:main.cpp      **** 						{
 1981              		.loc 13 309 7 is_stmt 1 view .LVU591
ARM GAS  /var/folders/kw/h2sg8jtn02b91cpsjc1nlpg80000gn/T//cccUH3U8.s 			page 81


 310:main.cpp      **** 							vasynth.vcavcflfo_amp_ = ((float)p.value / 127.0f);
 1982              		.loc 13 310 7 view .LVU592
 311:main.cpp      **** 							vasynth.SetVCAVCFLFO();
 1983              		.loc 13 311 8 view .LVU593
 311:main.cpp      **** 							vasynth.SetVCAVCFLFO();
 1984              		.loc 13 311 34 is_stmt 0 view .LVU594
 1985 022e 07EE902A 		vmov	s15, r2	@ int
 311:main.cpp      **** 							vasynth.SetVCAVCFLFO();
 1986              		.loc 13 311 49 view .LVU595
 1987 0232 9FED1E7A 		vldr.32	s14, .L189+32
 311:main.cpp      **** 							vasynth.SetVCAVCFLFO();
 1988              		.loc 13 311 31 view .LVU596
 1989 0236 1548     		ldr	r0, .L189
 311:main.cpp      **** 							vasynth.SetVCAVCFLFO();
 1990              		.loc 13 311 34 view .LVU597
 1991 0238 F8EE676A 		vcvt.f32.u32	s13, s15
 311:main.cpp      **** 							vasynth.SetVCAVCFLFO();
 1992              		.loc 13 311 49 view .LVU598
 1993 023c C6EE877A 		vdiv.f32	s15, s13, s14
 311:main.cpp      **** 							vasynth.SetVCAVCFLFO();
 1994              		.loc 13 311 31 view .LVU599
 1995 0240 C0ED1C7A 		vstr.32	s15, [r0, #112]
 312:main.cpp      **** 							break;
 1996              		.loc 13 312 8 is_stmt 1 view .LVU600
 1997              	.LVL108:
 1998              	.L184:
 312:main.cpp      **** 							break;
 1999              		.loc 13 312 8 is_stmt 0 view .LVU601
 2000              	.LBE436:
 2001              	.LBE457:
 498:main.cpp      **** 
 2002              		.loc 13 498 1 view .LVU602
 2003 0244 03B0     		add	sp, sp, #12
 2004              		.cfi_remember_state
 2005              		.cfi_def_cfa_offset 36
 2006              		@ sp needed
 2007 0246 BDE8F040 		pop	{r4, r5, r6, r7, lr}
 2008              		.cfi_restore 14
 2009              		.cfi_restore 7
 2010              		.cfi_restore 6
 2011              		.cfi_restore 5
 2012              		.cfi_restore 4
 2013              		.cfi_def_cfa_offset 16
 2014              	.LVL109:
 498:main.cpp      **** 
 2015              		.loc 13 498 1 view .LVU603
 2016 024a 04B0     		add	sp, sp, #16
 2017              		.cfi_def_cfa_offset 0
 2018              	.LBB458:
 2019              	.LBB437:
 332:main.cpp      **** 							break;
 2020              		.loc 13 332 28 view .LVU604
 2021 024c FFF7FEBF 		b	_ZN7VASynth12SetVCAVCFLFOEv
 2022              	.LVL110:
 2023              	.L96:
 2024              		.cfi_restore_state
 297:main.cpp      **** 						{
ARM GAS  /var/folders/kw/h2sg8jtn02b91cpsjc1nlpg80000gn/T//cccUH3U8.s 			page 82


 2025              		.loc 13 297 7 is_stmt 1 view .LVU605
 298:main.cpp      **** 							vasynth.pwm2lfo_amp_ = ((float)p.value / 511.0f);
 2026              		.loc 13 298 7 view .LVU606
 299:main.cpp      **** 							vasynth.SetPWM2LFO();
 2027              		.loc 13 299 8 view .LVU607
 299:main.cpp      **** 							vasynth.SetPWM2LFO();
 2028              		.loc 13 299 32 is_stmt 0 view .LVU608
 2029 0250 07EE902A 		vmov	s15, r2	@ int
 299:main.cpp      **** 							vasynth.SetPWM2LFO();
 2030              		.loc 13 299 47 view .LVU609
 2031 0254 9FED147A 		vldr.32	s14, .L189+28
 299:main.cpp      **** 							vasynth.SetPWM2LFO();
 2032              		.loc 13 299 29 view .LVU610
 2033 0258 0C48     		ldr	r0, .L189
 299:main.cpp      **** 							vasynth.SetPWM2LFO();
 2034              		.loc 13 299 32 view .LVU611
 2035 025a F8EE676A 		vcvt.f32.u32	s13, s15
 299:main.cpp      **** 							vasynth.SetPWM2LFO();
 2036              		.loc 13 299 47 view .LVU612
 2037 025e C6EE877A 		vdiv.f32	s15, s13, s14
 299:main.cpp      **** 							vasynth.SetPWM2LFO();
 2038              		.loc 13 299 29 view .LVU613
 2039 0262 C0ED197A 		vstr.32	s15, [r0, #100]
 2040              	.L185:
 300:main.cpp      **** 							break;
 2041              		.loc 13 300 8 is_stmt 1 view .LVU614
 2042              	.LBE437:
 2043              	.LBE458:
 498:main.cpp      **** 
 2044              		.loc 13 498 1 is_stmt 0 view .LVU615
 2045 0266 03B0     		add	sp, sp, #12
 2046              		.cfi_remember_state
 2047              		.cfi_def_cfa_offset 36
 2048              		@ sp needed
 2049 0268 BDE8F040 		pop	{r4, r5, r6, r7, lr}
 2050              		.cfi_restore 14
 2051              		.cfi_restore 7
 2052              		.cfi_restore 6
 2053              		.cfi_restore 5
 2054              		.cfi_restore 4
 2055              		.cfi_def_cfa_offset 16
 2056              	.LVL111:
 498:main.cpp      **** 
 2057              		.loc 13 498 1 view .LVU616
 2058 026c 04B0     		add	sp, sp, #16
 2059              		.cfi_def_cfa_offset 0
 2060              	.LBB459:
 2061              	.LBB438:
 300:main.cpp      **** 							break;
 2062              		.loc 13 300 26 view .LVU617
 2063 026e FFF7FEBF 		b	_ZN7VASynth10SetPWM2LFOEv
 2064              	.LVL112:
 2065              	.L97:
 2066              		.cfi_restore_state
 291:main.cpp      **** 						{
 2067              		.loc 13 291 7 is_stmt 1 view .LVU618
 292:main.cpp      **** 							vasynth.pwm2lfo_freq_ = ((float)p.value / 127.0f);
ARM GAS  /var/folders/kw/h2sg8jtn02b91cpsjc1nlpg80000gn/T//cccUH3U8.s 			page 83


 2068              		.loc 13 292 7 view .LVU619
 293:main.cpp      **** 							vasynth.SetPWM2LFO();
 2069              		.loc 13 293 8 view .LVU620
 293:main.cpp      **** 							vasynth.SetPWM2LFO();
 2070              		.loc 13 293 33 is_stmt 0 view .LVU621
 2071 0272 07EE902A 		vmov	s15, r2	@ int
 293:main.cpp      **** 							vasynth.SetPWM2LFO();
 2072              		.loc 13 293 48 view .LVU622
 2073 0276 9FED0D7A 		vldr.32	s14, .L189+32
 293:main.cpp      **** 							vasynth.SetPWM2LFO();
 2074              		.loc 13 293 30 view .LVU623
 2075 027a 0448     		ldr	r0, .L189
 293:main.cpp      **** 							vasynth.SetPWM2LFO();
 2076              		.loc 13 293 33 view .LVU624
 2077 027c F8EE676A 		vcvt.f32.u32	s13, s15
 293:main.cpp      **** 							vasynth.SetPWM2LFO();
 2078              		.loc 13 293 48 view .LVU625
 2079 0280 C6EE877A 		vdiv.f32	s15, s13, s14
 293:main.cpp      **** 							vasynth.SetPWM2LFO();
 2080              		.loc 13 293 30 view .LVU626
 2081 0284 C0ED187A 		vstr.32	s15, [r0, #96]
 294:main.cpp      **** 							break;
 2082              		.loc 13 294 8 is_stmt 1 view .LVU627
 2083 0288 EDE7     		b	.L185
 2084              	.L190:
 2085 028a 00BF     		.align	2
 2086              	.L189:
 2087 028c 00000000 		.word	.LANCHOR1
 2088 0290 00000000 		.word	.LANCHOR8
 2089 0294 00000000 		.word	.LANCHOR9
 2090 0298 00000000 		.word	.LANCHOR10
 2091 029c 00000000 		.word	.LANCHOR4
 2092 02a0 00000000 		.word	.LANCHOR2
 2093 02a4 02000020 		.word	536870914
 2094 02a8 0080FF43 		.word	1140817920
 2095 02ac 0000FE42 		.word	1123942400
 2096              	.L95:
 303:main.cpp      **** 						{
 2097              		.loc 13 303 7 view .LVU628
 304:main.cpp      **** 							vasynth.vcavcflfo_freq_ = ((float)p.value / 127.0f);
 2098              		.loc 13 304 7 view .LVU629
 305:main.cpp      **** 							vasynth.SetVCAVCFLFO();
 2099              		.loc 13 305 8 view .LVU630
 305:main.cpp      **** 							vasynth.SetVCAVCFLFO();
 2100              		.loc 13 305 35 is_stmt 0 view .LVU631
 2101 02b0 07EE902A 		vmov	s15, r2	@ int
 305:main.cpp      **** 							vasynth.SetVCAVCFLFO();
 2102              		.loc 13 305 50 view .LVU632
 2103 02b4 1FED037A 		vldr.32	s14, .L189+32
 305:main.cpp      **** 							vasynth.SetVCAVCFLFO();
 2104              		.loc 13 305 32 view .LVU633
 2105 02b8 BD48     		ldr	r0, .L191
 305:main.cpp      **** 							vasynth.SetVCAVCFLFO();
 2106              		.loc 13 305 35 view .LVU634
 2107 02ba F8EE676A 		vcvt.f32.u32	s13, s15
 305:main.cpp      **** 							vasynth.SetVCAVCFLFO();
 2108              		.loc 13 305 50 view .LVU635
ARM GAS  /var/folders/kw/h2sg8jtn02b91cpsjc1nlpg80000gn/T//cccUH3U8.s 			page 84


 2109 02be C6EE877A 		vdiv.f32	s15, s13, s14
 305:main.cpp      **** 							vasynth.SetVCAVCFLFO();
 2110              		.loc 13 305 32 view .LVU636
 2111 02c2 C0ED1B7A 		vstr.32	s15, [r0, #108]
 306:main.cpp      **** 							break;
 2112              		.loc 13 306 8 is_stmt 1 view .LVU637
 2113 02c6 BDE7     		b	.L184
 2114              	.L98:
 285:main.cpp      **** 						{
 2115              		.loc 13 285 7 view .LVU638
 286:main.cpp      **** 							vasynth.pwmlfo_amp_ = ((float)p.value / 511.0f);
 2116              		.loc 13 286 7 view .LVU639
 287:main.cpp      **** 							vasynth.SetPWMLFO();
 2117              		.loc 13 287 8 view .LVU640
 287:main.cpp      **** 							vasynth.SetPWMLFO();
 2118              		.loc 13 287 31 is_stmt 0 view .LVU641
 2119 02c8 07EE902A 		vmov	s15, r2	@ int
 287:main.cpp      **** 							vasynth.SetPWMLFO();
 2120              		.loc 13 287 46 view .LVU642
 2121 02cc 9FEDB97A 		vldr.32	s14, .L191+4
 287:main.cpp      **** 							vasynth.SetPWMLFO();
 2122              		.loc 13 287 28 view .LVU643
 2123 02d0 B748     		ldr	r0, .L191
 287:main.cpp      **** 							vasynth.SetPWMLFO();
 2124              		.loc 13 287 31 view .LVU644
 2125 02d2 F8EE676A 		vcvt.f32.u32	s13, s15
 287:main.cpp      **** 							vasynth.SetPWMLFO();
 2126              		.loc 13 287 46 view .LVU645
 2127 02d6 C6EE877A 		vdiv.f32	s15, s13, s14
 287:main.cpp      **** 							vasynth.SetPWMLFO();
 2128              		.loc 13 287 28 view .LVU646
 2129 02da C0ED167A 		vstr.32	s15, [r0, #88]
 2130              	.L186:
 288:main.cpp      **** 							break;
 2131              		.loc 13 288 8 is_stmt 1 view .LVU647
 2132              	.LBE438:
 2133              	.LBE459:
 498:main.cpp      **** 
 2134              		.loc 13 498 1 is_stmt 0 view .LVU648
 2135 02de 03B0     		add	sp, sp, #12
 2136              		.cfi_remember_state
 2137              		.cfi_def_cfa_offset 36
 2138              		@ sp needed
 2139 02e0 BDE8F040 		pop	{r4, r5, r6, r7, lr}
 2140              		.cfi_restore 14
 2141              		.cfi_restore 7
 2142              		.cfi_restore 6
 2143              		.cfi_restore 5
 2144              		.cfi_restore 4
 2145              		.cfi_def_cfa_offset 16
 2146              	.LVL113:
 498:main.cpp      **** 
 2147              		.loc 13 498 1 view .LVU649
 2148 02e4 04B0     		add	sp, sp, #16
 2149              		.cfi_def_cfa_offset 0
 2150              	.LBB460:
 2151              	.LBB439:
ARM GAS  /var/folders/kw/h2sg8jtn02b91cpsjc1nlpg80000gn/T//cccUH3U8.s 			page 85


 288:main.cpp      **** 							break;
 2152              		.loc 13 288 25 view .LVU650
 2153 02e6 FFF7FEBF 		b	_ZN7VASynth9SetPWMLFOEv
 2154              	.LVL114:
 2155              	.L99:
 2156              		.cfi_restore_state
 279:main.cpp      **** 						{
 2157              		.loc 13 279 7 is_stmt 1 view .LVU651
 280:main.cpp      **** 							vasynth.pwmlfo_freq_ = ((float)p.value / 127.0f);
 2158              		.loc 13 280 7 view .LVU652
 281:main.cpp      **** 							vasynth.SetPWMLFO();
 2159              		.loc 13 281 8 view .LVU653
 281:main.cpp      **** 							vasynth.SetPWMLFO();
 2160              		.loc 13 281 32 is_stmt 0 view .LVU654
 2161 02ea 07EE902A 		vmov	s15, r2	@ int
 281:main.cpp      **** 							vasynth.SetPWMLFO();
 2162              		.loc 13 281 47 view .LVU655
 2163 02ee 9FEDB27A 		vldr.32	s14, .L191+8
 281:main.cpp      **** 							vasynth.SetPWMLFO();
 2164              		.loc 13 281 29 view .LVU656
 2165 02f2 AF48     		ldr	r0, .L191
 281:main.cpp      **** 							vasynth.SetPWMLFO();
 2166              		.loc 13 281 32 view .LVU657
 2167 02f4 F8EE676A 		vcvt.f32.u32	s13, s15
 281:main.cpp      **** 							vasynth.SetPWMLFO();
 2168              		.loc 13 281 47 view .LVU658
 2169 02f8 C6EE877A 		vdiv.f32	s15, s13, s14
 281:main.cpp      **** 							vasynth.SetPWMLFO();
 2170              		.loc 13 281 29 view .LVU659
 2171 02fc C0ED157A 		vstr.32	s15, [r0, #84]
 282:main.cpp      **** 							break;
 2172              		.loc 13 282 8 is_stmt 1 view .LVU660
 2173 0300 EDE7     		b	.L186
 2174              	.L100:
 273:main.cpp      **** 						{
 2175              		.loc 13 273 7 view .LVU661
 274:main.cpp      **** 							vasynth.lfo_freq_ = ((float)p.value / 127.0f);
 2176              		.loc 13 274 7 view .LVU662
 275:main.cpp      **** 							vasynth.SetLFO();
 2177              		.loc 13 275 8 view .LVU663
 275:main.cpp      **** 							vasynth.SetLFO();
 2178              		.loc 13 275 29 is_stmt 0 view .LVU664
 2179 0302 07EE902A 		vmov	s15, r2	@ int
 275:main.cpp      **** 							vasynth.SetLFO();
 2180              		.loc 13 275 44 view .LVU665
 2181 0306 9FEDAC7A 		vldr.32	s14, .L191+8
 275:main.cpp      **** 							vasynth.SetLFO();
 2182              		.loc 13 275 26 view .LVU666
 2183 030a A948     		ldr	r0, .L191
 275:main.cpp      **** 							vasynth.SetLFO();
 2184              		.loc 13 275 29 view .LVU667
 2185 030c F8EE676A 		vcvt.f32.u32	s13, s15
 275:main.cpp      **** 							vasynth.SetLFO();
 2186              		.loc 13 275 44 view .LVU668
 2187 0310 C6EE877A 		vdiv.f32	s15, s13, s14
 275:main.cpp      **** 							vasynth.SetLFO();
 2188              		.loc 13 275 26 view .LVU669
ARM GAS  /var/folders/kw/h2sg8jtn02b91cpsjc1nlpg80000gn/T//cccUH3U8.s 			page 86


 2189 0314 C0ED127A 		vstr.32	s15, [r0, #72]
 2190 0318 15E7     		b	.L180
 2191              	.L101:
 268:main.cpp      **** 						{
 2192              		.loc 13 268 7 is_stmt 1 view .LVU670
 269:main.cpp      **** 							vasynth.eg_f_amount_ = ((float)p.value / 127.0f);
 2193              		.loc 13 269 7 view .LVU671
 270:main.cpp      **** 							break;
 2194              		.loc 13 270 8 view .LVU672
 270:main.cpp      **** 							break;
 2195              		.loc 13 270 32 is_stmt 0 view .LVU673
 2196 031a 07EE902A 		vmov	s15, r2	@ int
 270:main.cpp      **** 							break;
 2197              		.loc 13 270 47 view .LVU674
 2198 031e 9FEDA67A 		vldr.32	s14, .L191+8
 270:main.cpp      **** 							break;
 2199              		.loc 13 270 29 view .LVU675
 2200 0322 A34B     		ldr	r3, .L191
 270:main.cpp      **** 							break;
 2201              		.loc 13 270 32 view .LVU676
 2202 0324 F8EE676A 		vcvt.f32.u32	s13, s15
 270:main.cpp      **** 							break;
 2203              		.loc 13 270 47 view .LVU677
 2204 0328 C6EE877A 		vdiv.f32	s15, s13, s14
 270:main.cpp      **** 							break;
 2205              		.loc 13 270 29 view .LVU678
 2206 032c C3ED217A 		vstr.32	s15, [r3, #132]
 271:main.cpp      **** 						}
 2207              		.loc 13 271 8 is_stmt 1 view .LVU679
 2208 0330 81E6     		b	.L77
 2209              	.L102:
 263:main.cpp      **** 						{
 2210              		.loc 13 263 7 view .LVU680
 264:main.cpp      **** 							vasynth.vel_select_ = p.value >> 5;
 2211              		.loc 13 264 7 view .LVU681
