ARM GAS  /var/folders/kw/h2sg8jtn02b91cpsjc1nlpg80000gn/T//cc9L9FMQ.s 			page 1


   1              		.cpu cortex-m7
   2              		.arch armv7e-m
   3              		.fpu fpv5-d16
   4              		.eabi_attribute 28, 1
   5              		.eabi_attribute 20, 1
   6              		.eabi_attribute 21, 1
   7              		.eabi_attribute 23, 3
   8              		.eabi_attribute 24, 1
   9              		.eabi_attribute 25, 1
  10              		.eabi_attribute 26, 1
  11              		.eabi_attribute 30, 2
  12              		.eabi_attribute 34, 1
  13              		.eabi_attribute 18, 4
  14              		.file	"vasynth.cpp"
  15              		.text
  16              	.Ltext0:
  17              		.cfi_sections	.debug_frame
  18              		.section	.text._ZN7VASynth4InitEv,"ax",%progbits
  19              		.align	1
  20              		.p2align 2,,3
  21              		.global	_ZN7VASynth4InitEv
  22              		.syntax unified
  23              		.thumb
  24              		.thumb_func
  26              	_ZN7VASynth4InitEv:
  27              	.LVL0:
  28              	.LFB4853:
  29              		.file 1 "vasynth.cpp"
   1:vasynth.cpp   **** #include "daisy_seed.h"
   2:vasynth.cpp   **** #include "daisysp.h"
   3:vasynth.cpp   **** 
   4:vasynth.cpp   **** #include "main.h"
   5:vasynth.cpp   **** #include "vasynth.h"
   6:vasynth.cpp   **** 
   7:vasynth.cpp   **** using namespace daisy;
   8:vasynth.cpp   **** using namespace daisysp;
   9:vasynth.cpp   **** 
  10:vasynth.cpp   **** // globals
  11:vasynth.cpp   **** extern DaisySeed hardware;
  12:vasynth.cpp   **** extern float sysSampleRate;
  13:vasynth.cpp   **** extern uint8_t gPlay;
  14:vasynth.cpp   **** 
  15:vasynth.cpp   **** extern uint8_t param_;
  16:vasynth.cpp   **** extern float pitch_bend;
  17:vasynth.cpp   **** extern float master_tune;
  18:vasynth.cpp   **** 
  19:vasynth.cpp   **** extern DelayLine<float, DELAY_MAX> DSY_SDRAM_BSS delay_;
  20:vasynth.cpp   **** 
  21:vasynth.cpp   **** // presets
  22:vasynth.cpp   **** 
  23:vasynth.cpp   **** uint8_t preset_max = PRESET_MAX;
  24:vasynth.cpp   **** uint8_t preset_number = 0;
  25:vasynth.cpp   **** 
  26:vasynth.cpp   **** VASynthSetting preset_setting[PRESET_MAX] = 
  27:vasynth.cpp   **** {
  28:vasynth.cpp   **** 	{//1
  29:vasynth.cpp   **** 		WAVE_POLYBLEP_SAW, 0.5f, 0.0f, 0.5f,
ARM GAS  /var/folders/kw/h2sg8jtn02b91cpsjc1nlpg80000gn/T//cc9L9FMQ.s 			page 2


  30:vasynth.cpp   **** 		WAVE_POLYBLEP_SAW, 0.06f, 1.0f, 0.5f,
  31:vasynth.cpp   **** 		0.0f, 0.4f, 1.0f, 0.1f,   0.0f, 0.4f, 0.2f, 0.1f,
  32:vasynth.cpp   **** 		WAVE_TRI, 0.5f, 0.0f,
  33:vasynth.cpp   **** 		WAVE_TRI, 0.2f, 0.2f,
  34:vasynth.cpp   **** 		WAVE_TRI, 0.1f, 0.2f,
  35:vasynth.cpp   **** 		WAVE_SAW, 0.2f, 0.0f,
  36:vasynth.cpp   **** 		0.0f, 0.0f,
  37:vasynth.cpp   **** 		0.2f, FILTER_CUTOFF_MAX, 1.0f, 1, MIDI_CHANNEL_ONE
  38:vasynth.cpp   **** 	},
  39:vasynth.cpp   **** 	{//2
  40:vasynth.cpp   **** 		WAVE_SQUARE, 0.5f, 0.0f, 0.5f,
  41:vasynth.cpp   **** 		WAVE_SQUARE, 0.06f, 1.0f, 0.5f,
  42:vasynth.cpp   **** 		0.0f, 0.4f, 1.0f, 0.1f,   0.0f, 0.4f, 0.2f, 0.1f,
  43:vasynth.cpp   **** 		WAVE_TRI, 0.5f, 0.0f,
  44:vasynth.cpp   **** 		WAVE_TRI, 0.2f, 0.2f,
  45:vasynth.cpp   **** 		WAVE_TRI, 0.1f, 0.2f,
  46:vasynth.cpp   **** 		WAVE_SAW, 0.2f, 0.0f,
  47:vasynth.cpp   **** 		0.0f, 0.0f,
  48:vasynth.cpp   **** 		0.2f, FILTER_CUTOFF_MAX, 1.0f, 1, MIDI_CHANNEL_ONE
  49:vasynth.cpp   **** 	}
  50:vasynth.cpp   **** };
  51:vasynth.cpp   **** 
  52:vasynth.cpp   **** /*
  53:vasynth.cpp   **** osc_waveform, osc_mix, detune, osc_pw,
  54:vasynth.cpp   **** osc2_waveform, osc2_detune, osc2_transpose, osc2_pw,
  55:vasynth.cpp   **** eg_a_attack, d, s, r,
  56:vasynth.cpp   **** eg_f_attack, d, s, r,
  57:vasynth.cpp   **** lfo_waveform, lfo_freq, lfo_amp,
  58:vasynth.cpp   **** pwmlfo_waveform, pwmlfo_freq, pwmlfo_amp,
  59:vasynth.cpp   **** pwm2lfo_waveform, pwm2lfo_freq, pwm2lfo_amp,
  60:vasynth.cpp   **** vcavcflfo_waveform, vcavcflfo_freq, vcavcflfo_amp,
  61:vasynth.cpp   **** vcf_kbd_follow, env_kbd_follow,
  62:vasynth.cpp   **** filter_res, filter_cutoff, eg_f_amount, vel_select, midi_channel;
  63:vasynth.cpp   **** */
  64:vasynth.cpp   **** 
  65:vasynth.cpp   **** void VASynth::Init()
  66:vasynth.cpp   **** {
  30              		.loc 1 66 1 view -0
  31              		.cfi_startproc
  32              		@ args = 0, pretend = 0, frame = 8
  33              		@ frame_needed = 0, uses_anonymous_args = 0
  67:vasynth.cpp   **** 	for (uint8_t i = 0; i < VOICES_MAX; i++)
  34              		.loc 1 67 2 view .LVU1
  35              	.LBB214:
  36              		.loc 1 67 24 view .LVU2
  37              	.LBE214:
  66:vasynth.cpp   **** 	for (uint8_t i = 0; i < VOICES_MAX; i++)
  38              		.loc 1 66 1 is_stmt 0 view .LVU3
  39 0000 2DE9F047 		push	{r4, r5, r6, r7, r8, r9, r10, lr}
  40              		.cfi_def_cfa_offset 32
  41              		.cfi_offset 4, -32
  42              		.cfi_offset 5, -28
  43              		.cfi_offset 6, -24
  44              		.cfi_offset 7, -20
  45              		.cfi_offset 8, -16
  46              		.cfi_offset 9, -12
  47              		.cfi_offset 10, -8
ARM GAS  /var/folders/kw/h2sg8jtn02b91cpsjc1nlpg80000gn/T//cc9L9FMQ.s 			page 3


  48              		.cfi_offset 14, -4
  49 0004 0546     		mov	r5, r0
  50 0006 00F58274 		add	r4, r0, #260
  51 000a 00F21C46 		addw	r6, r0, #1052
  52 000e 00F2BC68 		addw	r8, r0, #1724
  53 0012 00F50E79 		add	r9, r0, #568
  54 0016 2DED068B 		vpush.64	{d8, d9, d10}
  55              		.cfi_def_cfa_offset 56
  56              		.cfi_offset 80, -56
  57              		.cfi_offset 81, -52
  58              		.cfi_offset 82, -48
  59              		.cfi_offset 83, -44
  60              		.cfi_offset 84, -40
  61              		.cfi_offset 85, -36
  62 001a 82B0     		sub	sp, sp, #8
  63              		.cfi_def_cfa_offset 64
  64 001c 46E0     		b	.L6
  65              	.LVL1:
  66              	.L19:
  67              	.LBB310:
  68              	.LBB215:
  69              	.LBB216:
  70              		.file 2 "../../DaisySP/Source/Control/adsr.h"
   1:../../DaisySP/Source/Control/adsr.h **** /*
   2:../../DaisySP/Source/Control/adsr.h **** Copyright (c) 2020 Electrosmith, Corp, Paul Batchelor
   3:../../DaisySP/Source/Control/adsr.h **** 
   4:../../DaisySP/Source/Control/adsr.h **** Use of this source code is governed by an MIT-style
   5:../../DaisySP/Source/Control/adsr.h **** license that can be found in the LICENSE file or at
   6:../../DaisySP/Source/Control/adsr.h **** https://opensource.org/licenses/MIT.
   7:../../DaisySP/Source/Control/adsr.h **** */
   8:../../DaisySP/Source/Control/adsr.h **** 
   9:../../DaisySP/Source/Control/adsr.h **** #pragma once
  10:../../DaisySP/Source/Control/adsr.h **** #ifndef DSY_ADSR_H
  11:../../DaisySP/Source/Control/adsr.h **** #define DSY_ADSR_H
  12:../../DaisySP/Source/Control/adsr.h **** 
  13:../../DaisySP/Source/Control/adsr.h **** #include <stdint.h>
  14:../../DaisySP/Source/Control/adsr.h **** #ifdef __cplusplus
  15:../../DaisySP/Source/Control/adsr.h **** 
  16:../../DaisySP/Source/Control/adsr.h **** namespace daisysp
  17:../../DaisySP/Source/Control/adsr.h **** {
  18:../../DaisySP/Source/Control/adsr.h **** /** Distinct stages that the phase of the envelope can be located in.
  19:../../DaisySP/Source/Control/adsr.h **** - IDLE   = located at phase location 0, and not currently running
  20:../../DaisySP/Source/Control/adsr.h **** - ATTACK  = First segment of envelope where phase moves from 0 to 1
  21:../../DaisySP/Source/Control/adsr.h **** - DECAY   = Second segment of envelope where phase moves from 1 to SUSTAIN value
  22:../../DaisySP/Source/Control/adsr.h **** - RELEASE =     Fourth segment of envelop where phase moves from SUSTAIN to 0
  23:../../DaisySP/Source/Control/adsr.h **** */
  24:../../DaisySP/Source/Control/adsr.h **** enum
  25:../../DaisySP/Source/Control/adsr.h **** {
  26:../../DaisySP/Source/Control/adsr.h ****     ADSR_SEG_IDLE    = 0,
  27:../../DaisySP/Source/Control/adsr.h ****     ADSR_SEG_ATTACK  = 1,
  28:../../DaisySP/Source/Control/adsr.h ****     ADSR_SEG_DECAY   = 2,
  29:../../DaisySP/Source/Control/adsr.h ****     ADSR_SEG_RELEASE = 4
  30:../../DaisySP/Source/Control/adsr.h **** };
  31:../../DaisySP/Source/Control/adsr.h **** 
  32:../../DaisySP/Source/Control/adsr.h **** 
  33:../../DaisySP/Source/Control/adsr.h **** /** adsr envelope module
  34:../../DaisySP/Source/Control/adsr.h **** 
ARM GAS  /var/folders/kw/h2sg8jtn02b91cpsjc1nlpg80000gn/T//cc9L9FMQ.s 			page 4


  35:../../DaisySP/Source/Control/adsr.h **** Original author(s) : Paul Batchelor
  36:../../DaisySP/Source/Control/adsr.h **** 
  37:../../DaisySP/Source/Control/adsr.h **** Ported from Soundpipe by Ben Sergentanis, May 2020
  38:../../DaisySP/Source/Control/adsr.h ****  
  39:../../DaisySP/Source/Control/adsr.h **** Remake by Steffan DIedrichsen, May 2021
  40:../../DaisySP/Source/Control/adsr.h **** */
  41:../../DaisySP/Source/Control/adsr.h **** class Adsr
  42:../../DaisySP/Source/Control/adsr.h **** {
  43:../../DaisySP/Source/Control/adsr.h ****   public:
  44:../../DaisySP/Source/Control/adsr.h ****     Adsr() {}
  45:../../DaisySP/Source/Control/adsr.h ****     ~Adsr() {}
  46:../../DaisySP/Source/Control/adsr.h ****     /** Initializes the Adsr module.
  47:../../DaisySP/Source/Control/adsr.h ****         \param sample_rate - The sample rate of the audio engine being run. 
  48:../../DaisySP/Source/Control/adsr.h ****     */
  49:../../DaisySP/Source/Control/adsr.h ****     void Init(float sample_rate, int blockSize = 1);
  50:../../DaisySP/Source/Control/adsr.h ****     /**
  51:../../DaisySP/Source/Control/adsr.h ****      \function Retrigger forces the envelope back to attack phase
  52:../../DaisySP/Source/Control/adsr.h ****      \param hard  resets the history to zero, results in a click.
  53:../../DaisySP/Source/Control/adsr.h ****      */
  54:../../DaisySP/Source/Control/adsr.h ****     void Retrigger(bool hard);
  55:../../DaisySP/Source/Control/adsr.h ****     /** Processes one sample through the filter and returns one sample.
  56:../../DaisySP/Source/Control/adsr.h ****         \param gate - trigger the envelope, hold it to sustain 
  57:../../DaisySP/Source/Control/adsr.h ****     */
  58:../../DaisySP/Source/Control/adsr.h ****     float Process(bool gate);
  59:../../DaisySP/Source/Control/adsr.h ****     /** Sets time
  60:../../DaisySP/Source/Control/adsr.h ****         Set time per segment in seconds
  61:../../DaisySP/Source/Control/adsr.h ****     */
  62:../../DaisySP/Source/Control/adsr.h ****     void SetTime(int seg, float time);
  63:../../DaisySP/Source/Control/adsr.h ****     void SetAttackTime(float timeInS, float shape = 0.0f);
  64:../../DaisySP/Source/Control/adsr.h ****     void SetDecayTime(float timeInS);
  65:../../DaisySP/Source/Control/adsr.h ****     void SetReleaseTime(float timeInS);
  66:../../DaisySP/Source/Control/adsr.h **** 
  67:../../DaisySP/Source/Control/adsr.h ****   private:
  68:../../DaisySP/Source/Control/adsr.h ****     void SetTimeConstant(float timeInS, float& time, float& coeff);
  69:../../DaisySP/Source/Control/adsr.h **** 
  70:../../DaisySP/Source/Control/adsr.h ****   public:
  71:../../DaisySP/Source/Control/adsr.h ****     /** Sustain level
  72:../../DaisySP/Source/Control/adsr.h ****         \param sus_level - sets sustain level, 0...1.0
  73:../../DaisySP/Source/Control/adsr.h ****     */
  74:../../DaisySP/Source/Control/adsr.h ****     inline void SetSustainLevel(float sus_level)
  75:../../DaisySP/Source/Control/adsr.h ****     {
  76:../../DaisySP/Source/Control/adsr.h ****         sus_level = (sus_level <= 0.f) ? -0.01f // forces envelope into idle
  77:../../DaisySP/Source/Control/adsr.h ****                                        : (sus_level > 1.f) ? 1.f : sus_level;
  71              		.loc 2 77 60 view .LVU4
  72 001e F4EE487A 		vcmp.f32	s15, s16
  73 0022 F1EE10FA 		vmrs	APSR_nzcv, FPSCR
  74 0026 78FE277A 		vselgt.f32	s15, s16, s15
  75              	.LVL2:
  76              	.L4:
  78:../../DaisySP/Source/Control/adsr.h ****         sus_level_ = sus_level;
  77              		.loc 2 78 9 is_stmt 1 view .LVU5
  78 002a 06F5A870 		add	r0, r6, #336
  79              		.loc 2 78 20 is_stmt 0 view .LVU6
  80 002e C6ED007A 		vstr.32	s15, [r6]
  81              	.LVL3:
  82              		.loc 2 78 20 view .LVU7
  83              	.LBE216:
ARM GAS  /var/folders/kw/h2sg8jtn02b91cpsjc1nlpg80000gn/T//cc9L9FMQ.s 			page 5


  84              	.LBE215:
  68:vasynth.cpp   **** 	{
  69:vasynth.cpp   **** 		// oscillator
  70:vasynth.cpp   **** 		osc_[i].Init(sample_rate_);
  71:vasynth.cpp   **** 		osc_[i].SetWaveform(waveform_);
  72:vasynth.cpp   **** 		osc_[i].SetAmp(1.0f); // default
  73:vasynth.cpp   **** 		osc_[i].SetFreq(440.0f); // default
  74:vasynth.cpp   **** 		osc_[i].SetPw(0.5f);
  75:vasynth.cpp   **** 
  76:vasynth.cpp   **** 		osc2_[i].Init(sample_rate_);
  77:vasynth.cpp   **** 		osc2_[i].SetWaveform(osc2_waveform_);
  78:vasynth.cpp   **** 		osc2_[i].SetAmp(1.0f); // default
  79:vasynth.cpp   **** 		osc2_[i].SetFreq(440.0f * osc2_detune_); // default
  80:vasynth.cpp   **** 		osc2_[i].SetPw(0.5f);
  81:vasynth.cpp   **** 		
  82:vasynth.cpp   **** 		// EG - amplitude
  83:vasynth.cpp   **** 		eg_a_[i].Init(sample_rate_);
  84:vasynth.cpp   **** 		eg_a_[i].SetTime(ADSR_SEG_ATTACK, eg_a_attack_);
  85:vasynth.cpp   **** 		eg_a_[i].SetTime(ADSR_SEG_DECAY, eg_a_decay_);
  86:vasynth.cpp   **** 		eg_a_[i].SetTime(ADSR_SEG_RELEASE, eg_a_release_);
  87:vasynth.cpp   **** 		eg_a_[i].SetSustainLevel(eg_a_sustain_);
  88:vasynth.cpp   **** 
  89:vasynth.cpp   **** 		// EG - filter
  90:vasynth.cpp   **** 		eg_f_[i].Init(sample_rate_);
  85              		.loc 1 90 3 is_stmt 1 view .LVU8
  86              		.loc 1 90 16 is_stmt 0 view .LVU9
  87 0032 0121     		movs	r1, #1
  88 0034 95ED000A 		vldr.32	s0, [r5]
  89 0038 0190     		str	r0, [sp, #4]
  90 003a FFF7FEFF 		bl	_ZN7daisysp4Adsr4InitEfi
  91              	.LVL4:
  91:vasynth.cpp   **** 		eg_f_[i].SetTime(ADSR_SEG_ATTACK, eg_f_attack_);
  92              		.loc 1 91 3 is_stmt 1 view .LVU10
  93              		.loc 1 91 19 is_stmt 0 view .LVU11
  94 003e 95ED0D0A 		vldr.32	s0, [r5, #52]
  95 0042 0121     		movs	r1, #1
  96 0044 0198     		ldr	r0, [sp, #4]
  97 0046 FFF7FEFF 		bl	_ZN7daisysp4Adsr7SetTimeEif
  98              	.LVL5:
  92:vasynth.cpp   **** 		eg_f_[i].SetTime(ADSR_SEG_DECAY, eg_f_decay_);
  99              		.loc 1 92 3 is_stmt 1 view .LVU12
 100              		.loc 1 92 19 is_stmt 0 view .LVU13
 101 004a 95ED0E0A 		vldr.32	s0, [r5, #56]
 102 004e 0221     		movs	r1, #2
 103 0050 0198     		ldr	r0, [sp, #4]
 104 0052 FFF7FEFF 		bl	_ZN7daisysp4Adsr7SetTimeEif
 105              	.LVL6:
  93:vasynth.cpp   **** 		eg_f_[i].SetTime(ADSR_SEG_RELEASE, eg_f_release_);
 106              		.loc 1 93 3 is_stmt 1 view .LVU14
 107              		.loc 1 93 19 is_stmt 0 view .LVU15
 108 0056 95ED100A 		vldr.32	s0, [r5, #64]
 109 005a 0421     		movs	r1, #4
 110 005c 0198     		ldr	r0, [sp, #4]
 111 005e FFF7FEFF 		bl	_ZN7daisysp4Adsr7SetTimeEif
 112              	.LVL7:
  94:vasynth.cpp   **** 		eg_f_[i].SetSustainLevel(eg_f_sustain_);
 113              		.loc 1 94 3 is_stmt 1 view .LVU16
ARM GAS  /var/folders/kw/h2sg8jtn02b91cpsjc1nlpg80000gn/T//cc9L9FMQ.s 			page 6


 114              		.loc 1 94 27 is_stmt 0 view .LVU17
 115 0062 D5ED0F7A 		vldr.32	s15, [r5, #60]
 116              	.LVL8:
 117              	.LBB218:
 118              	.LBI218:
  74:../../DaisySP/Source/Control/adsr.h ****     {
 119              		.loc 2 74 17 is_stmt 1 view .LVU18
 120              	.LBB219:
  76:../../DaisySP/Source/Control/adsr.h ****                                        : (sus_level > 1.f) ? 1.f : sus_level;
 121              		.loc 2 76 9 view .LVU19
  76:../../DaisySP/Source/Control/adsr.h ****                                        : (sus_level > 1.f) ? 1.f : sus_level;
 122              		.loc 2 76 40 is_stmt 0 view .LVU20
 123 0066 F5EEC07A 		vcmpe.f32	s15, #0
 124 006a F1EE10FA 		vmrs	APSR_nzcv, FPSCR
 125 006e 40F2B080 		bls	.L13
  77:../../DaisySP/Source/Control/adsr.h ****         sus_level_ = sus_level;
 126              		.loc 2 77 60 view .LVU21
 127 0072 B7EE007A 		vmov.f32	s14, #1.0e+0
 128 0076 F4EE477A 		vcmp.f32	s15, s14
 129 007a F1EE10FA 		vmrs	APSR_nzcv, FPSCR
 130 007e 77FE277A 		vselgt.f32	s15, s14, s15
 131              	.LVL9:
 132              	.L5:
 133              		.loc 2 78 9 is_stmt 1 view .LVU22
 134              	.LBE219:
 135              	.LBE218:
  95:vasynth.cpp   **** 
  96:vasynth.cpp   **** 		// LP - filter
  97:vasynth.cpp   **** 		flt[i].Init(sample_rate_);
 136              		.loc 1 97 14 is_stmt 0 view .LVU23
 137 0082 4046     		mov	r0, r8
 138              	.LBB222:
 139              	.LBB220:
 140              		.loc 2 78 20 view .LVU24
 141 0084 C6ED547A 		vstr.32	s15, [r6, #336]
 142              	.LVL10:
 143              		.loc 2 78 20 view .LVU25
 144              	.LBE220:
 145              	.LBE222:
 146              		.loc 1 97 3 is_stmt 1 view .LVU26
 147              		.loc 1 97 14 is_stmt 0 view .LVU27
 148 0088 95ED000A 		vldr.32	s0, [r5]
  67:vasynth.cpp   **** 	{
 149              		.loc 1 67 24 view .LVU28
 150 008c 08F14408 		add	r8, r8, #68
 151              		.loc 1 97 14 view .LVU29
 152 0090 FFF7FEFF 		bl	_ZN7daisysp10MoogLadder4InitEf
 153              	.LVL11:
  98:vasynth.cpp   **** 		flt[i].SetFreq(filter_cutoff_);
 154              		.loc 1 98 3 is_stmt 1 view .LVU30
  67:vasynth.cpp   **** 	{
 155              		.loc 1 67 24 is_stmt 0 view .LVU31
 156 0094 2C34     		adds	r4, r4, #44
 157              	.LVL12:
 158              		.loc 1 98 17 view .LVU32
 159 0096 D5F88030 		ldr	r3, [r5, #128]	@ float
 160              	.LVL13:
ARM GAS  /var/folders/kw/h2sg8jtn02b91cpsjc1nlpg80000gn/T//cc9L9FMQ.s 			page 7


 161              	.LBB223:
 162              	.LBI223:
 163              		.file 3 "../../DaisySP/DaisySP-LGPL/Source/Filters/moogladder.h"
   1:../../DaisySP/DaisySP-LGPL/Source/Filters/moogladder.h **** /*
   2:../../DaisySP/DaisySP-LGPL/Source/Filters/moogladder.h **** Copyright (c) 2023 Electrosmith, Corp, Victor Lazzarini, John ffitch (fast tanh), Bob Moog
   3:../../DaisySP/DaisySP-LGPL/Source/Filters/moogladder.h **** 
   4:../../DaisySP/DaisySP-LGPL/Source/Filters/moogladder.h **** Use of this source code is governed by the LGPL V2.1
   5:../../DaisySP/DaisySP-LGPL/Source/Filters/moogladder.h **** license that can be found in the LICENSE file or at
   6:../../DaisySP/DaisySP-LGPL/Source/Filters/moogladder.h **** https://opensource.org/license/lgpl-2-1/
   7:../../DaisySP/DaisySP-LGPL/Source/Filters/moogladder.h **** */
   8:../../DaisySP/DaisySP-LGPL/Source/Filters/moogladder.h **** 
   9:../../DaisySP/DaisySP-LGPL/Source/Filters/moogladder.h **** #pragma once
  10:../../DaisySP/DaisySP-LGPL/Source/Filters/moogladder.h **** #ifndef DSY_MOOGLADDER_H
  11:../../DaisySP/DaisySP-LGPL/Source/Filters/moogladder.h **** #define DSY_MOOGLADDER_H
  12:../../DaisySP/DaisySP-LGPL/Source/Filters/moogladder.h **** 
  13:../../DaisySP/DaisySP-LGPL/Source/Filters/moogladder.h **** #include <stdint.h>
  14:../../DaisySP/DaisySP-LGPL/Source/Filters/moogladder.h **** #ifdef __cplusplus
  15:../../DaisySP/DaisySP-LGPL/Source/Filters/moogladder.h **** 
  16:../../DaisySP/DaisySP-LGPL/Source/Filters/moogladder.h **** namespace daisysp
  17:../../DaisySP/DaisySP-LGPL/Source/Filters/moogladder.h **** {
  18:../../DaisySP/DaisySP-LGPL/Source/Filters/moogladder.h **** /** Moog ladder filter module*/
  19:../../DaisySP/DaisySP-LGPL/Source/Filters/moogladder.h **** class MoogLadder
  20:../../DaisySP/DaisySP-LGPL/Source/Filters/moogladder.h **** {
  21:../../DaisySP/DaisySP-LGPL/Source/Filters/moogladder.h ****   public:
  22:../../DaisySP/DaisySP-LGPL/Source/Filters/moogladder.h ****     MoogLadder() {}
  23:../../DaisySP/DaisySP-LGPL/Source/Filters/moogladder.h ****     ~MoogLadder() {}
  24:../../DaisySP/DaisySP-LGPL/Source/Filters/moogladder.h ****     /** Initializes the MoogLadder module.
  25:../../DaisySP/DaisySP-LGPL/Source/Filters/moogladder.h ****         sample_rate - The sample rate of the audio engine being run. 
  26:../../DaisySP/DaisySP-LGPL/Source/Filters/moogladder.h ****     */
  27:../../DaisySP/DaisySP-LGPL/Source/Filters/moogladder.h ****     void Init(float sample_rate);
  28:../../DaisySP/DaisySP-LGPL/Source/Filters/moogladder.h **** 
  29:../../DaisySP/DaisySP-LGPL/Source/Filters/moogladder.h **** 
  30:../../DaisySP/DaisySP-LGPL/Source/Filters/moogladder.h ****     /** Processes the lowpass filter
  31:../../DaisySP/DaisySP-LGPL/Source/Filters/moogladder.h ****     */
  32:../../DaisySP/DaisySP-LGPL/Source/Filters/moogladder.h ****     float Process(float in);
  33:../../DaisySP/DaisySP-LGPL/Source/Filters/moogladder.h **** 
  34:../../DaisySP/DaisySP-LGPL/Source/Filters/moogladder.h ****     /** 
  35:../../DaisySP/DaisySP-LGPL/Source/Filters/moogladder.h ****         Sets the cutoff frequency or half-way point of the filter.
  36:../../DaisySP/DaisySP-LGPL/Source/Filters/moogladder.h ****         Arguments
  37:../../DaisySP/DaisySP-LGPL/Source/Filters/moogladder.h ****         - freq - frequency value in Hz. Range: Any positive value.
  38:../../DaisySP/DaisySP-LGPL/Source/Filters/moogladder.h ****     */
  39:../../DaisySP/DaisySP-LGPL/Source/Filters/moogladder.h ****     inline void SetFreq(float freq) { freq_ = freq; }
 164              		.loc 3 39 17 is_stmt 1 view .LVU33
 165              	.LBB224:
 166              		.loc 3 39 39 view .LVU34
 167              	.LBE224:
 168              	.LBE223:
  67:vasynth.cpp   **** 	{
 169              		.loc 1 67 24 is_stmt 0 view .LVU35
 170 009a 3036     		adds	r6, r6, #48
 171 009c 4C45     		cmp	r4, r9
 172              	.LBB226:
 173              	.LBB225:
 174              		.loc 3 39 45 view .LVU36
 175 009e 48F83C3C 		str	r3, [r8, #-60]	@ float
 176              	.LVL14:
 177              		.loc 3 39 45 view .LVU37
ARM GAS  /var/folders/kw/h2sg8jtn02b91cpsjc1nlpg80000gn/T//cc9L9FMQ.s 			page 8


 178              	.LBE225:
 179              	.LBE226:
  99:vasynth.cpp   **** 		flt[i].SetRes(filter_res_);
 180              		.loc 1 99 3 is_stmt 1 view .LVU38
 181              		.loc 1 99 16 is_stmt 0 view .LVU39
 182 00a2 EB6F     		ldr	r3, [r5, #124]	@ float
 183              	.LVL15:
 184              	.LBB227:
 185              	.LBI227:
  40:../../DaisySP/DaisySP-LGPL/Source/Filters/moogladder.h ****     /** 
  41:../../DaisySP/DaisySP-LGPL/Source/Filters/moogladder.h ****         Sets the resonance of the filter.
  42:../../DaisySP/DaisySP-LGPL/Source/Filters/moogladder.h ****     */
  43:../../DaisySP/DaisySP-LGPL/Source/Filters/moogladder.h ****     inline void SetRes(float res) { res_ = res; }
 186              		.loc 3 43 17 is_stmt 1 view .LVU40
 187              	.LBB228:
 188              		.loc 3 43 37 view .LVU41
 189              		.loc 3 43 42 is_stmt 0 view .LVU42
 190 00a4 48F8403C 		str	r3, [r8, #-64]	@ float
 191              	.LVL16:
 192              		.loc 3 43 42 view .LVU43
 193              	.LBE228:
 194              	.LBE227:
  67:vasynth.cpp   **** 	{
 195              		.loc 1 67 2 is_stmt 1 view .LVU44
  67:vasynth.cpp   **** 	{
 196              		.loc 1 67 24 view .LVU45
 197 00a8 00F09680 		beq	.L18
 198              	.L6:
 199              	.LVL17:
  70:vasynth.cpp   **** 		osc_[i].SetWaveform(waveform_);
 200              		.loc 1 70 3 discriminator 2 view .LVU46
 201              	.LBB229:
 202              	.LBB230:
 203              		.file 4 "../../DaisySP/Source/Synthesis/oscillator.h"
   1:../../DaisySP/Source/Synthesis/oscillator.h **** /*
   2:../../DaisySP/Source/Synthesis/oscillator.h **** Copyright (c) 2020 Electrosmith, Corp
   3:../../DaisySP/Source/Synthesis/oscillator.h **** 
   4:../../DaisySP/Source/Synthesis/oscillator.h **** Use of this source code is governed by an MIT-style
   5:../../DaisySP/Source/Synthesis/oscillator.h **** license that can be found in the LICENSE file or at
   6:../../DaisySP/Source/Synthesis/oscillator.h **** https://opensource.org/licenses/MIT.
   7:../../DaisySP/Source/Synthesis/oscillator.h **** */
   8:../../DaisySP/Source/Synthesis/oscillator.h **** 
   9:../../DaisySP/Source/Synthesis/oscillator.h **** #pragma once
  10:../../DaisySP/Source/Synthesis/oscillator.h **** #ifndef DSY_OSCILLATOR_H
  11:../../DaisySP/Source/Synthesis/oscillator.h **** #define DSY_OSCILLATOR_H
  12:../../DaisySP/Source/Synthesis/oscillator.h **** #include <stdint.h>
  13:../../DaisySP/Source/Synthesis/oscillator.h **** #include "Utility/dsp.h"
  14:../../DaisySP/Source/Synthesis/oscillator.h **** #ifdef __cplusplus
  15:../../DaisySP/Source/Synthesis/oscillator.h **** 
  16:../../DaisySP/Source/Synthesis/oscillator.h **** namespace daisysp
  17:../../DaisySP/Source/Synthesis/oscillator.h **** {
  18:../../DaisySP/Source/Synthesis/oscillator.h **** /** Synthesis of several waveforms, including polyBLEP bandlimited waveforms.
  19:../../DaisySP/Source/Synthesis/oscillator.h **** */
  20:../../DaisySP/Source/Synthesis/oscillator.h **** class Oscillator
  21:../../DaisySP/Source/Synthesis/oscillator.h **** {
  22:../../DaisySP/Source/Synthesis/oscillator.h ****   public:
  23:../../DaisySP/Source/Synthesis/oscillator.h ****     Oscillator() {}
ARM GAS  /var/folders/kw/h2sg8jtn02b91cpsjc1nlpg80000gn/T//cc9L9FMQ.s 			page 9


  24:../../DaisySP/Source/Synthesis/oscillator.h ****     ~Oscillator() {}
  25:../../DaisySP/Source/Synthesis/oscillator.h ****     /** Choices for output waveforms, POLYBLEP are appropriately labeled. Others are naive forms.
  26:../../DaisySP/Source/Synthesis/oscillator.h ****     */
  27:../../DaisySP/Source/Synthesis/oscillator.h ****     enum
  28:../../DaisySP/Source/Synthesis/oscillator.h ****     {
  29:../../DaisySP/Source/Synthesis/oscillator.h ****         WAVE_SIN,
  30:../../DaisySP/Source/Synthesis/oscillator.h ****         WAVE_TRI,
  31:../../DaisySP/Source/Synthesis/oscillator.h ****         WAVE_SAW,
  32:../../DaisySP/Source/Synthesis/oscillator.h ****         WAVE_RAMP,
  33:../../DaisySP/Source/Synthesis/oscillator.h ****         WAVE_SQUARE,
  34:../../DaisySP/Source/Synthesis/oscillator.h ****         WAVE_POLYBLEP_TRI,
  35:../../DaisySP/Source/Synthesis/oscillator.h ****         WAVE_POLYBLEP_SAW,
  36:../../DaisySP/Source/Synthesis/oscillator.h ****         WAVE_POLYBLEP_SQUARE,
  37:../../DaisySP/Source/Synthesis/oscillator.h ****         WAVE_LAST,
  38:../../DaisySP/Source/Synthesis/oscillator.h ****     };
  39:../../DaisySP/Source/Synthesis/oscillator.h **** 
  40:../../DaisySP/Source/Synthesis/oscillator.h **** 
  41:../../DaisySP/Source/Synthesis/oscillator.h ****     /** Initializes the Oscillator
  42:../../DaisySP/Source/Synthesis/oscillator.h **** 
  43:../../DaisySP/Source/Synthesis/oscillator.h ****         \param sample_rate - sample rate of the audio engine being run, and the frequency that the 
  44:../../DaisySP/Source/Synthesis/oscillator.h **** 
  45:../../DaisySP/Source/Synthesis/oscillator.h ****         Defaults:
  46:../../DaisySP/Source/Synthesis/oscillator.h ****         - freq_ = 100 Hz
  47:../../DaisySP/Source/Synthesis/oscillator.h ****         - amp_ = 0.5
  48:../../DaisySP/Source/Synthesis/oscillator.h ****         - waveform_ = sine wave.
  49:../../DaisySP/Source/Synthesis/oscillator.h ****     */
  50:../../DaisySP/Source/Synthesis/oscillator.h ****     void Init(float sample_rate)
  51:../../DaisySP/Source/Synthesis/oscillator.h ****     {
  52:../../DaisySP/Source/Synthesis/oscillator.h ****         sr_        = sample_rate;
  53:../../DaisySP/Source/Synthesis/oscillator.h ****         sr_recip_  = 1.0f / sample_rate;
 204              		.loc 4 53 27 is_stmt 0 discriminator 2 view .LVU47
 205 00ac B7EE008A 		vmov.f32	s16, #1.0e+0
 206              	.LBE230:
 207              	.LBE229:
  70:vasynth.cpp   **** 		osc_[i].SetWaveform(waveform_);
 208              		.loc 1 70 15 discriminator 2 view .LVU48
 209 00b0 D5ED007A 		vldr.32	s15, [r5]
 210              	.LVL18:
 211              	.LBB234:
 212              	.LBI229:
  50:../../DaisySP/Source/Synthesis/oscillator.h ****     {
 213              		.loc 4 50 10 is_stmt 1 discriminator 2 view .LVU49
 214              	.LBB231:
  52:../../DaisySP/Source/Synthesis/oscillator.h ****         sr_recip_  = 1.0f / sample_rate;
 215              		.loc 4 52 9 discriminator 2 view .LVU50
  54:../../DaisySP/Source/Synthesis/oscillator.h ****         freq_      = 100.0f;
  55:../../DaisySP/Source/Synthesis/oscillator.h ****         amp_       = 0.5f;
 216              		.loc 4 55 20 is_stmt 0 discriminator 2 view .LVU51
 217 00b4 F6EE008A 		vmov.f32	s17, #5.0e-1
  54:../../DaisySP/Source/Synthesis/oscillator.h ****         freq_      = 100.0f;
 218              		.loc 4 54 20 discriminator 2 view .LVU52
 219 00b8 DFEDB39A 		vldr.32	s19, .L20
  56:../../DaisySP/Source/Synthesis/oscillator.h ****         pw_        = 0.5f;
  57:../../DaisySP/Source/Synthesis/oscillator.h ****         phase_     = 0.0f;
 220              		.loc 4 57 20 discriminator 2 view .LVU53
 221 00bc DFEDB3AA 		vldr.32	s21, .L20+4
  58:../../DaisySP/Source/Synthesis/oscillator.h ****         phase_inc_ = CalcPhaseInc(freq_);
ARM GAS  /var/folders/kw/h2sg8jtn02b91cpsjc1nlpg80000gn/T//cc9L9FMQ.s 			page 10


  59:../../DaisySP/Source/Synthesis/oscillator.h ****         waveform_  = WAVE_SIN;
  60:../../DaisySP/Source/Synthesis/oscillator.h ****         eoc_       = true;
 222              		.loc 4 60 20 discriminator 2 view .LVU54
 223 00c0 0127     		movs	r7, #1
  53:../../DaisySP/Source/Synthesis/oscillator.h ****         freq_      = 100.0f;
 224              		.loc 4 53 27 discriminator 2 view .LVU55
 225 00c2 88EE277A 		vdiv.f32	s14, s16, s15
  52:../../DaisySP/Source/Synthesis/oscillator.h ****         sr_recip_  = 1.0f / sample_rate;
 226              		.loc 4 52 20 discriminator 2 view .LVU56
 227 00c6 C4ED047A 		vstr.32	s15, [r4, #16]
  53:../../DaisySP/Source/Synthesis/oscillator.h ****         freq_      = 100.0f;
 228              		.loc 4 53 9 is_stmt 1 discriminator 2 view .LVU57
  58:../../DaisySP/Source/Synthesis/oscillator.h ****         phase_inc_ = CalcPhaseInc(freq_);
 229              		.loc 4 58 34 is_stmt 0 discriminator 2 view .LVU58
 230 00ca 2046     		mov	r0, r4
  54:../../DaisySP/Source/Synthesis/oscillator.h ****         amp_       = 0.5f;
 231              		.loc 4 54 20 discriminator 2 view .LVU59
 232 00cc C4ED029A 		vstr.32	s19, [r4, #8]
  55:../../DaisySP/Source/Synthesis/oscillator.h ****         pw_        = 0.5f;
 233              		.loc 4 55 20 discriminator 2 view .LVU60
 234 00d0 C4ED018A 		vstr.32	s17, [r4, #4]
 235 00d4 04F59A7A 		add	r10, r4, #308
  56:../../DaisySP/Source/Synthesis/oscillator.h ****         phase_     = 0.0f;
 236              		.loc 4 56 20 discriminator 2 view .LVU61
 237 00d8 C4ED038A 		vstr.32	s17, [r4, #12]
  57:../../DaisySP/Source/Synthesis/oscillator.h ****         phase_inc_ = CalcPhaseInc(freq_);
 238              		.loc 4 57 20 discriminator 2 view .LVU62
 239 00dc C4ED06AA 		vstr.32	s21, [r4, #24]
  58:../../DaisySP/Source/Synthesis/oscillator.h ****         waveform_  = WAVE_SIN;
 240              		.loc 4 58 34 discriminator 2 view .LVU63
 241 00e0 B0EE690A 		vmov.f32	s0, s19
 242              	.LBE231:
 243              	.LBE234:
 244              	.LBB235:
 245              	.LBB236:
  61:../../DaisySP/Source/Synthesis/oscillator.h ****         eor_       = true;
  62:../../DaisySP/Source/Synthesis/oscillator.h ****     }
  63:../../DaisySP/Source/Synthesis/oscillator.h **** 
  64:../../DaisySP/Source/Synthesis/oscillator.h **** 
  65:../../DaisySP/Source/Synthesis/oscillator.h ****     /** Changes the frequency of the Oscillator, and recalculates phase increment.
  66:../../DaisySP/Source/Synthesis/oscillator.h ****     */
  67:../../DaisySP/Source/Synthesis/oscillator.h ****     inline void SetFreq(const float f)
  68:../../DaisySP/Source/Synthesis/oscillator.h ****     {
  69:../../DaisySP/Source/Synthesis/oscillator.h ****         freq_      = f;
 246              		.loc 4 69 20 discriminator 2 view .LVU64
 247 00e4 9FEDAAAA 		vldr.32	s20, .L20+8
 248              	.LBE236:
 249              	.LBE235:
 250              	.LBB242:
 251              	.LBB243:
 252              	.LBB244:
 253              	.LBB245:
 254              	.LBB246:
 255              		.file 5 "../../DaisySP/Source/Utility/dsp.h"
   1:../../DaisySP/Source/Utility/dsp.h **** /*
   2:../../DaisySP/Source/Utility/dsp.h **** Copyright (c) 2020 Electrosmith, Corp, Emilie Gillet
   3:../../DaisySP/Source/Utility/dsp.h **** 
ARM GAS  /var/folders/kw/h2sg8jtn02b91cpsjc1nlpg80000gn/T//cc9L9FMQ.s 			page 11


   4:../../DaisySP/Source/Utility/dsp.h **** Use of this source code is governed by an MIT-style
   5:../../DaisySP/Source/Utility/dsp.h **** license that can be found in the LICENSE file or at
   6:../../DaisySP/Source/Utility/dsp.h **** https://opensource.org/licenses/MIT.
   7:../../DaisySP/Source/Utility/dsp.h **** */
   8:../../DaisySP/Source/Utility/dsp.h **** 
   9:../../DaisySP/Source/Utility/dsp.h **** /** Helpful defines, functions, and other utilities for use in/with daisysp modules.
  10:../../DaisySP/Source/Utility/dsp.h **** */
  11:../../DaisySP/Source/Utility/dsp.h **** #pragma once
  12:../../DaisySP/Source/Utility/dsp.h **** #ifndef DSY_CORE_DSP
  13:../../DaisySP/Source/Utility/dsp.h **** #define DSY_CORE_DSP
  14:../../DaisySP/Source/Utility/dsp.h **** #include <cassert>
  15:../../DaisySP/Source/Utility/dsp.h **** #include <cstdint>
  16:../../DaisySP/Source/Utility/dsp.h **** #include <random>
  17:../../DaisySP/Source/Utility/dsp.h **** #include <cmath>
  18:../../DaisySP/Source/Utility/dsp.h **** 
  19:../../DaisySP/Source/Utility/dsp.h **** /** PIs
  20:../../DaisySP/Source/Utility/dsp.h **** */
  21:../../DaisySP/Source/Utility/dsp.h **** #define PI_F 3.1415927410125732421875f
  22:../../DaisySP/Source/Utility/dsp.h **** #define TWOPI_F (2.0f * PI_F)
  23:../../DaisySP/Source/Utility/dsp.h **** #define HALFPI_F (PI_F * 0.5f)
  24:../../DaisySP/Source/Utility/dsp.h **** #define DSY_MIN(in, mn) (in < mn ? in : mn)
  25:../../DaisySP/Source/Utility/dsp.h **** #define DSY_MAX(in, mx) (in > mx ? in : mx)
  26:../../DaisySP/Source/Utility/dsp.h **** #define DSY_CLAMP(in, mn, mx) (DSY_MIN(DSY_MAX(in, mn), mx))
  27:../../DaisySP/Source/Utility/dsp.h **** #define DSY_COUNTOF(_arr) (sizeof(_arr) / sizeof(_arr[0]))
  28:../../DaisySP/Source/Utility/dsp.h **** 
  29:../../DaisySP/Source/Utility/dsp.h **** namespace daisysp
  30:../../DaisySP/Source/Utility/dsp.h **** {
  31:../../DaisySP/Source/Utility/dsp.h **** //Avoids division for random floats. e.g. rand() * kRandFrac
  32:../../DaisySP/Source/Utility/dsp.h **** static constexpr float kRandFrac = 1.f / (float)RAND_MAX;
  33:../../DaisySP/Source/Utility/dsp.h **** 
  34:../../DaisySP/Source/Utility/dsp.h **** //Convert from semitones to other units. e.g. 2 ^ (kOneTwelfth * x)
  35:../../DaisySP/Source/Utility/dsp.h **** static constexpr float kOneTwelfth = 1.f / 12.f;
  36:../../DaisySP/Source/Utility/dsp.h **** 
  37:../../DaisySP/Source/Utility/dsp.h **** /** efficient floating point min/max
  38:../../DaisySP/Source/Utility/dsp.h **** c/o stephen mccaul
  39:../../DaisySP/Source/Utility/dsp.h **** */
  40:../../DaisySP/Source/Utility/dsp.h **** inline float fmax(float a, float b)
  41:../../DaisySP/Source/Utility/dsp.h **** {
  42:../../DaisySP/Source/Utility/dsp.h ****     float r;
  43:../../DaisySP/Source/Utility/dsp.h **** #ifdef __arm__
  44:../../DaisySP/Source/Utility/dsp.h ****     asm("vmaxnm.f32 %[d], %[n], %[m]" : [d] "=t"(r) : [n] "t"(a), [m] "t"(b) :);
 256              		.loc 5 44 5 discriminator 2 view .LVU65
 257              		.syntax unified
 258              	@ 44 "../../DaisySP/Source/Utility/dsp.h" 1
 259 00e8 88FEAA9A 		vmaxnm.f32 s18, s17, s21
 260              	@ 0 "" 2
 261              		.thumb
 262              		.syntax unified
 263              	.LBE246:
 264              	.LBE245:
 265              	.LBB248:
 266              	.LBB249:
  45:../../DaisySP/Source/Utility/dsp.h **** #else
  46:../../DaisySP/Source/Utility/dsp.h ****     r = (a > b) ? a : b;
  47:../../DaisySP/Source/Utility/dsp.h **** #endif // __arm__
  48:../../DaisySP/Source/Utility/dsp.h ****     return r;
  49:../../DaisySP/Source/Utility/dsp.h **** }
ARM GAS  /var/folders/kw/h2sg8jtn02b91cpsjc1nlpg80000gn/T//cc9L9FMQ.s 			page 12


  50:../../DaisySP/Source/Utility/dsp.h **** 
  51:../../DaisySP/Source/Utility/dsp.h **** inline float fmin(float a, float b)
  52:../../DaisySP/Source/Utility/dsp.h **** {
  53:../../DaisySP/Source/Utility/dsp.h ****     float r;
  54:../../DaisySP/Source/Utility/dsp.h **** #ifdef __arm__
  55:../../DaisySP/Source/Utility/dsp.h ****     asm("vminnm.f32 %[d], %[n], %[m]" : [d] "=t"(r) : [n] "t"(a), [m] "t"(b) :);
 267              		.loc 5 55 5 discriminator 2 view .LVU66
 268              		.syntax unified
 269              	@ 55 "../../DaisySP/Source/Utility/dsp.h" 1
 270 00ec 89FE489A 		vminnm.f32 s18, s18, s16
 271              	@ 0 "" 2
 272              		.thumb
 273              		.syntax unified
 274              	.LBE249:
 275              	.LBE248:
 276              	.LBE244:
 277              	.LBE243:
 278              	.LBE242:
 279              	.LBB258:
 280              	.LBB232:
  53:../../DaisySP/Source/Synthesis/oscillator.h ****         freq_      = 100.0f;
 281              		.loc 4 53 20 discriminator 2 view .LVU67
 282 00f0 84ED057A 		vstr.32	s14, [r4, #20]
  54:../../DaisySP/Source/Synthesis/oscillator.h ****         amp_       = 0.5f;
 283              		.loc 4 54 9 is_stmt 1 discriminator 2 view .LVU68
  55:../../DaisySP/Source/Synthesis/oscillator.h ****         pw_        = 0.5f;
 284              		.loc 4 55 9 discriminator 2 view .LVU69
  56:../../DaisySP/Source/Synthesis/oscillator.h ****         phase_     = 0.0f;
 285              		.loc 4 56 9 discriminator 2 view .LVU70
  57:../../DaisySP/Source/Synthesis/oscillator.h ****         phase_inc_ = CalcPhaseInc(freq_);
 286              		.loc 4 57 9 discriminator 2 view .LVU71
  58:../../DaisySP/Source/Synthesis/oscillator.h ****         waveform_  = WAVE_SIN;
 287              		.loc 4 58 9 discriminator 2 view .LVU72
  58:../../DaisySP/Source/Synthesis/oscillator.h ****         waveform_  = WAVE_SIN;
 288              		.loc 4 58 34 is_stmt 0 discriminator 2 view .LVU73
 289 00f4 FFF7FEFF 		bl	_ZN7daisysp10Oscillator12CalcPhaseIncEf
 290              	.LVL19:
  60:../../DaisySP/Source/Synthesis/oscillator.h ****         eor_       = true;
 291              		.loc 4 60 20 discriminator 2 view .LVU74
 292 00f8 84F82970 		strb	r7, [r4, #41]
  58:../../DaisySP/Source/Synthesis/oscillator.h ****         waveform_  = WAVE_SIN;
 293              		.loc 4 58 20 discriminator 2 view .LVU75
 294 00fc 84ED070A 		vstr.32	s0, [r4, #28]
  59:../../DaisySP/Source/Synthesis/oscillator.h ****         eoc_       = true;
 295              		.loc 4 59 9 is_stmt 1 discriminator 2 view .LVU76
  60:../../DaisySP/Source/Synthesis/oscillator.h ****         eor_       = true;
 296              		.loc 4 60 9 discriminator 2 view .LVU77
  61:../../DaisySP/Source/Synthesis/oscillator.h ****     }
 297              		.loc 4 61 9 discriminator 2 view .LVU78
 298              	.LVL20:
  61:../../DaisySP/Source/Synthesis/oscillator.h ****     }
 299              		.loc 4 61 9 is_stmt 0 discriminator 2 view .LVU79
 300              	.LBE232:
 301              	.LBE258:
  71:vasynth.cpp   **** 		osc_[i].SetAmp(1.0f); // default
 302              		.loc 1 71 3 is_stmt 1 discriminator 2 view .LVU80
 303              	.LBB259:
ARM GAS  /var/folders/kw/h2sg8jtn02b91cpsjc1nlpg80000gn/T//cc9L9FMQ.s 			page 13


 304              	.LBB237:
  70:../../DaisySP/Source/Synthesis/oscillator.h ****         phase_inc_ = CalcPhaseInc(f);
 305              		.loc 4 70 34 is_stmt 0 discriminator 2 view .LVU81
 306 0100 2046     		mov	r0, r4
 307              	.LBE237:
 308              	.LBE259:
 309              	.LBB260:
 310              	.LBB233:
  61:../../DaisySP/Source/Synthesis/oscillator.h ****     }
 311              		.loc 4 61 20 discriminator 2 view .LVU82
 312 0102 84F82870 		strb	r7, [r4, #40]
 313              	.LBE233:
 314              	.LBE260:
 315              	.LBB261:
 316              	.LBB238:
 317              		.loc 4 70 34 discriminator 2 view .LVU83
 318 0106 B0EE4A0A 		vmov.f32	s0, s20
 319              	.LBE238:
 320              	.LBE261:
  71:vasynth.cpp   **** 		osc_[i].SetAmp(1.0f); // default
 321              		.loc 1 71 22 discriminator 2 view .LVU84
 322 010a 2B79     		ldrb	r3, [r5, #4]	@ zero_extendqisi2
 323              	.LVL21:
 324              	.LBB262:
 325              	.LBI262:
  71:../../DaisySP/Source/Synthesis/oscillator.h ****     }
  72:../../DaisySP/Source/Synthesis/oscillator.h **** 
  73:../../DaisySP/Source/Synthesis/oscillator.h **** 
  74:../../DaisySP/Source/Synthesis/oscillator.h ****     /** Sets the amplitude of the waveform.
  75:../../DaisySP/Source/Synthesis/oscillator.h ****     */
  76:../../DaisySP/Source/Synthesis/oscillator.h ****     inline void SetAmp(const float a) { amp_ = a; }
  77:../../DaisySP/Source/Synthesis/oscillator.h ****     /** Sets the waveform to be synthesized by the Process() function.
  78:../../DaisySP/Source/Synthesis/oscillator.h ****     */
  79:../../DaisySP/Source/Synthesis/oscillator.h ****     inline void SetWaveform(const uint8_t wf)
 326              		.loc 4 79 17 is_stmt 1 discriminator 2 view .LVU85
 327              	.LBB263:
  80:../../DaisySP/Source/Synthesis/oscillator.h ****     {
  81:../../DaisySP/Source/Synthesis/oscillator.h ****         waveform_ = wf < WAVE_LAST ? wf : WAVE_SIN;
 328              		.loc 4 81 9 discriminator 2 view .LVU86
 329              	.LBE263:
 330              	.LBE262:
 331              	.LBB266:
 332              	.LBB267:
  76:../../DaisySP/Source/Synthesis/oscillator.h ****     /** Sets the waveform to be synthesized by the Process() function.
 333              		.loc 4 76 46 is_stmt 0 discriminator 2 view .LVU87
 334 010c 84ED018A 		vstr.32	s16, [r4, #4]
 335              	.LBE267:
 336              	.LBE266:
 337              	.LBB269:
 338              	.LBB264:
 339              		.loc 4 81 19 discriminator 2 view .LVU88
 340 0110 082B     		cmp	r3, #8
 341              	.LBE264:
 342              	.LBE269:
 343              	.LBB270:
 344              	.LBB239:
  69:../../DaisySP/Source/Synthesis/oscillator.h ****         phase_inc_ = CalcPhaseInc(f);
ARM GAS  /var/folders/kw/h2sg8jtn02b91cpsjc1nlpg80000gn/T//cc9L9FMQ.s 			page 14


 345              		.loc 4 69 20 discriminator 2 view .LVU89
 346 0112 84ED02AA 		vstr.32	s20, [r4, #8]
 347              	.LBE239:
 348              	.LBE270:
 349              	.LBB271:
 350              	.LBB265:
 351              		.loc 4 81 19 discriminator 2 view .LVU90
 352 0116 28BF     		it	cs
 353 0118 0023     		movcs	r3, #0
 354              	.LVL22:
 355              		.loc 4 81 19 discriminator 2 view .LVU91
 356 011a 2370     		strb	r3, [r4]
 357              		.loc 4 81 19 discriminator 2 view .LVU92
 358              	.LBE265:
 359              	.LBE271:
  72:vasynth.cpp   **** 		osc_[i].SetFreq(440.0f); // default
 360              		.loc 1 72 3 is_stmt 1 discriminator 2 view .LVU93
 361              	.LVL23:
 362              	.LBB272:
 363              	.LBI266:
  76:../../DaisySP/Source/Synthesis/oscillator.h ****     /** Sets the waveform to be synthesized by the Process() function.
 364              		.loc 4 76 17 discriminator 2 view .LVU94
 365              	.LBB268:
  76:../../DaisySP/Source/Synthesis/oscillator.h ****     /** Sets the waveform to be synthesized by the Process() function.
 366              		.loc 4 76 41 discriminator 2 view .LVU95
  76:../../DaisySP/Source/Synthesis/oscillator.h ****     /** Sets the waveform to be synthesized by the Process() function.
 367              		.loc 4 76 41 is_stmt 0 discriminator 2 view .LVU96
 368              	.LBE268:
 369              	.LBE272:
  73:vasynth.cpp   **** 		osc_[i].SetPw(0.5f);
 370              		.loc 1 73 3 is_stmt 1 discriminator 2 view .LVU97
 371              	.LBB273:
 372              	.LBI235:
  67:../../DaisySP/Source/Synthesis/oscillator.h ****     {
 373              		.loc 4 67 17 discriminator 2 view .LVU98
 374              	.LBB240:
  69:../../DaisySP/Source/Synthesis/oscillator.h ****         phase_inc_ = CalcPhaseInc(f);
 375              		.loc 4 69 9 discriminator 2 view .LVU99
  70:../../DaisySP/Source/Synthesis/oscillator.h ****     }
 376              		.loc 4 70 9 discriminator 2 view .LVU100
  70:../../DaisySP/Source/Synthesis/oscillator.h ****     }
 377              		.loc 4 70 34 is_stmt 0 discriminator 2 view .LVU101
 378 011c FFF7FEFF 		bl	_ZN7daisysp10Oscillator12CalcPhaseIncEf
 379              	.LVL24:
 380              	.LBE240:
 381              	.LBE273:
 382              	.LBB274:
 383              	.LBB255:
  82:../../DaisySP/Source/Synthesis/oscillator.h ****     }
  83:../../DaisySP/Source/Synthesis/oscillator.h ****     /** Sets the pulse width for WAVE_SQUARE and WAVE_POLYBLEP_SQUARE (range 0 - 1)
  84:../../DaisySP/Source/Synthesis/oscillator.h ****      */
  85:../../DaisySP/Source/Synthesis/oscillator.h ****     inline void SetPw(const float pw) { pw_ = fclamp(pw, 0.0f, 1.0f); }
 384              		.loc 4 85 45 discriminator 2 view .LVU102
 385 0120 84ED039A 		vstr.32	s18, [r4, #12]
 386              	.LBE255:
 387              	.LBE274:
 388              	.LBB275:
ARM GAS  /var/folders/kw/h2sg8jtn02b91cpsjc1nlpg80000gn/T//cc9L9FMQ.s 			page 15


 389              	.LBB241:
  70:../../DaisySP/Source/Synthesis/oscillator.h ****     }
 390              		.loc 4 70 20 discriminator 2 view .LVU103
 391 0124 84ED070A 		vstr.32	s0, [r4, #28]
 392              	.LVL25:
  70:../../DaisySP/Source/Synthesis/oscillator.h ****     }
 393              		.loc 4 70 20 discriminator 2 view .LVU104
 394              	.LBE241:
 395              	.LBE275:
  74:vasynth.cpp   **** 
 396              		.loc 1 74 3 is_stmt 1 discriminator 2 view .LVU105
 397              	.LBB276:
 398              	.LBI242:
 399              		.loc 4 85 17 discriminator 2 view .LVU106
 400              	.LBB256:
 401              		.loc 4 85 41 discriminator 2 view .LVU107
 402              	.LBB253:
 403              	.LBI244:
  56:../../DaisySP/Source/Utility/dsp.h **** #else
  57:../../DaisySP/Source/Utility/dsp.h ****     r = (a < b) ? a : b;
  58:../../DaisySP/Source/Utility/dsp.h **** #endif // __arm__
  59:../../DaisySP/Source/Utility/dsp.h ****     return r;
  60:../../DaisySP/Source/Utility/dsp.h **** }
  61:../../DaisySP/Source/Utility/dsp.h **** 
  62:../../DaisySP/Source/Utility/dsp.h **** /** quick fp clamp
  63:../../DaisySP/Source/Utility/dsp.h **** */
  64:../../DaisySP/Source/Utility/dsp.h **** inline float fclamp(float in, float min, float max)
 404              		.loc 5 64 14 discriminator 2 view .LVU108
 405              	.LBE253:
 406              	.LBE256:
 407              	.LBE276:
 408              	.LBE310:
  65:../../DaisySP/Source/Utility/dsp.h **** {
  66:../../DaisySP/Source/Utility/dsp.h ****     return fmin(fmax(in, min), max);
 409              		.loc 5 66 5 discriminator 2 view .LVU109
 410              	.LBB311:
 411              	.LBB277:
 412              	.LBB257:
 413              	.LBB254:
 414              	.LBB251:
 415              	.LBI245:
  40:../../DaisySP/Source/Utility/dsp.h **** {
 416              		.loc 5 40 14 discriminator 2 view .LVU110
 417              	.LBB247:
  42:../../DaisySP/Source/Utility/dsp.h **** #ifdef __arm__
 418              		.loc 5 42 5 discriminator 2 view .LVU111
  44:../../DaisySP/Source/Utility/dsp.h **** #else
 419              		.loc 5 44 5 discriminator 2 view .LVU112
  48:../../DaisySP/Source/Utility/dsp.h **** }
 420              		.loc 5 48 5 discriminator 2 view .LVU113
  48:../../DaisySP/Source/Utility/dsp.h **** }
 421              		.loc 5 48 5 is_stmt 0 discriminator 2 view .LVU114
 422              	.LBE247:
 423              	.LBE251:
 424              	.LBB252:
 425              	.LBI248:
  51:../../DaisySP/Source/Utility/dsp.h **** {
ARM GAS  /var/folders/kw/h2sg8jtn02b91cpsjc1nlpg80000gn/T//cc9L9FMQ.s 			page 16


 426              		.loc 5 51 14 is_stmt 1 discriminator 2 view .LVU115
 427              	.LBB250:
  53:../../DaisySP/Source/Utility/dsp.h **** #ifdef __arm__
 428              		.loc 5 53 5 discriminator 2 view .LVU116
  55:../../DaisySP/Source/Utility/dsp.h **** #else
 429              		.loc 5 55 5 discriminator 2 view .LVU117
  59:../../DaisySP/Source/Utility/dsp.h **** }
 430              		.loc 5 59 5 discriminator 2 view .LVU118
  59:../../DaisySP/Source/Utility/dsp.h **** }
 431              		.loc 5 59 5 is_stmt 0 discriminator 2 view .LVU119
 432              	.LBE250:
 433              	.LBE252:
 434              	.LBE254:
 435              	.LBE257:
 436              	.LBE277:
  76:vasynth.cpp   **** 		osc2_[i].SetWaveform(osc2_waveform_);
 437              		.loc 1 76 3 is_stmt 1 discriminator 2 view .LVU120
 438              	.LBB278:
 439              	.LBB279:
  58:../../DaisySP/Source/Synthesis/oscillator.h ****         waveform_  = WAVE_SIN;
 440              		.loc 4 58 34 is_stmt 0 discriminator 2 view .LVU121
 441 0128 5046     		mov	r0, r10
 442              	.LBE279:
 443              	.LBE278:
  76:vasynth.cpp   **** 		osc2_[i].SetWaveform(osc2_waveform_);
 444              		.loc 1 76 16 discriminator 2 view .LVU122
 445 012a D5ED007A 		vldr.32	s15, [r5]
 446              	.LVL26:
 447              	.LBB281:
 448              	.LBI278:
  50:../../DaisySP/Source/Synthesis/oscillator.h ****     {
 449              		.loc 4 50 10 is_stmt 1 discriminator 2 view .LVU123
 450              	.LBB280:
  52:../../DaisySP/Source/Synthesis/oscillator.h ****         sr_recip_  = 1.0f / sample_rate;
 451              		.loc 4 52 9 discriminator 2 view .LVU124
  58:../../DaisySP/Source/Synthesis/oscillator.h ****         waveform_  = WAVE_SIN;
 452              		.loc 4 58 34 is_stmt 0 discriminator 2 view .LVU125
 453 012e B0EE690A 		vmov.f32	s0, s19
  54:../../DaisySP/Source/Synthesis/oscillator.h ****         amp_       = 0.5f;
 454              		.loc 4 54 20 discriminator 2 view .LVU126
 455 0132 C4ED4F9A 		vstr.32	s19, [r4, #316]
  53:../../DaisySP/Source/Synthesis/oscillator.h ****         freq_      = 100.0f;
 456              		.loc 4 53 27 discriminator 2 view .LVU127
 457 0136 88EE277A 		vdiv.f32	s14, s16, s15
  52:../../DaisySP/Source/Synthesis/oscillator.h ****         sr_recip_  = 1.0f / sample_rate;
 458              		.loc 4 52 20 discriminator 2 view .LVU128
 459 013a C4ED517A 		vstr.32	s15, [r4, #324]
  53:../../DaisySP/Source/Synthesis/oscillator.h ****         freq_      = 100.0f;
 460              		.loc 4 53 9 is_stmt 1 discriminator 2 view .LVU129
  55:../../DaisySP/Source/Synthesis/oscillator.h ****         pw_        = 0.5f;
 461              		.loc 4 55 20 is_stmt 0 discriminator 2 view .LVU130
 462 013e C4ED4E8A 		vstr.32	s17, [r4, #312]
  56:../../DaisySP/Source/Synthesis/oscillator.h ****         phase_     = 0.0f;
 463              		.loc 4 56 20 discriminator 2 view .LVU131
 464 0142 C4ED508A 		vstr.32	s17, [r4, #320]
  57:../../DaisySP/Source/Synthesis/oscillator.h ****         phase_inc_ = CalcPhaseInc(freq_);
 465              		.loc 4 57 20 discriminator 2 view .LVU132
ARM GAS  /var/folders/kw/h2sg8jtn02b91cpsjc1nlpg80000gn/T//cc9L9FMQ.s 			page 17


 466 0146 C4ED53AA 		vstr.32	s21, [r4, #332]
  58:../../DaisySP/Source/Synthesis/oscillator.h ****         waveform_  = WAVE_SIN;
 467              		.loc 4 58 34 discriminator 2 view .LVU133
 468 014a CDF804A0 		str	r10, [sp, #4]
 469              	.LVL27:
  53:../../DaisySP/Source/Synthesis/oscillator.h ****         freq_      = 100.0f;
 470              		.loc 4 53 20 discriminator 2 view .LVU134
 471 014e 84ED527A 		vstr.32	s14, [r4, #328]
  54:../../DaisySP/Source/Synthesis/oscillator.h ****         amp_       = 0.5f;
 472              		.loc 4 54 9 is_stmt 1 discriminator 2 view .LVU135
  55:../../DaisySP/Source/Synthesis/oscillator.h ****         pw_        = 0.5f;
 473              		.loc 4 55 9 discriminator 2 view .LVU136
  56:../../DaisySP/Source/Synthesis/oscillator.h ****         phase_     = 0.0f;
 474              		.loc 4 56 9 discriminator 2 view .LVU137
  57:../../DaisySP/Source/Synthesis/oscillator.h ****         phase_inc_ = CalcPhaseInc(freq_);
 475              		.loc 4 57 9 discriminator 2 view .LVU138
  58:../../DaisySP/Source/Synthesis/oscillator.h ****         waveform_  = WAVE_SIN;
 476              		.loc 4 58 9 discriminator 2 view .LVU139
  58:../../DaisySP/Source/Synthesis/oscillator.h ****         waveform_  = WAVE_SIN;
 477              		.loc 4 58 34 is_stmt 0 discriminator 2 view .LVU140
 478 0152 FFF7FEFF 		bl	_ZN7daisysp10Oscillator12CalcPhaseIncEf
 479              	.LVL28:
  60:../../DaisySP/Source/Synthesis/oscillator.h ****         eor_       = true;
 480              		.loc 4 60 20 discriminator 2 view .LVU141
 481 0156 84F85D71 		strb	r7, [r4, #349]
  61:../../DaisySP/Source/Synthesis/oscillator.h ****     }
 482              		.loc 4 61 20 discriminator 2 view .LVU142
 483 015a 84F85C71 		strb	r7, [r4, #348]
  58:../../DaisySP/Source/Synthesis/oscillator.h ****         waveform_  = WAVE_SIN;
 484              		.loc 4 58 20 discriminator 2 view .LVU143
 485 015e 84ED540A 		vstr.32	s0, [r4, #336]
  59:../../DaisySP/Source/Synthesis/oscillator.h ****         eoc_       = true;
 486              		.loc 4 59 9 is_stmt 1 discriminator 2 view .LVU144
  60:../../DaisySP/Source/Synthesis/oscillator.h ****         eor_       = true;
 487              		.loc 4 60 9 discriminator 2 view .LVU145
  61:../../DaisySP/Source/Synthesis/oscillator.h ****     }
 488              		.loc 4 61 9 discriminator 2 view .LVU146
  61:../../DaisySP/Source/Synthesis/oscillator.h ****     }
 489              		.loc 4 61 9 is_stmt 0 discriminator 2 view .LVU147
 490              	.LBE280:
 491              	.LBE281:
  77:vasynth.cpp   **** 		osc2_[i].SetAmp(1.0f); // default
 492              		.loc 1 77 3 is_stmt 1 discriminator 2 view .LVU148
  77:vasynth.cpp   **** 		osc2_[i].SetAmp(1.0f); // default
 493              		.loc 1 77 23 is_stmt 0 discriminator 2 view .LVU149
 494 0162 2B7D     		ldrb	r3, [r5, #20]	@ zero_extendqisi2
 495              	.LVL29:
 496              	.LBB282:
 497              	.LBI282:
  79:../../DaisySP/Source/Synthesis/oscillator.h ****     {
 498              		.loc 4 79 17 is_stmt 1 discriminator 2 view .LVU150
 499              	.LBB283:
  81:../../DaisySP/Source/Synthesis/oscillator.h ****     }
 500              		.loc 4 81 9 discriminator 2 view .LVU151
 501              	.LBE283:
 502              	.LBE282:
 503              	.LBB286:
ARM GAS  /var/folders/kw/h2sg8jtn02b91cpsjc1nlpg80000gn/T//cc9L9FMQ.s 			page 18


 504              	.LBB287:
  76:../../DaisySP/Source/Synthesis/oscillator.h ****     /** Sets the waveform to be synthesized by the Process() function.
 505              		.loc 4 76 46 is_stmt 0 discriminator 2 view .LVU152
 506 0164 84ED4E8A 		vstr.32	s16, [r4, #312]
 507              	.LBE287:
 508              	.LBE286:
 509              	.LBB289:
 510              	.LBB284:
  81:../../DaisySP/Source/Synthesis/oscillator.h ****     }
 511              		.loc 4 81 19 discriminator 2 view .LVU153
 512 0168 082B     		cmp	r3, #8
 513              	.LBE284:
 514              	.LBE289:
 515              	.LBB290:
 516              	.LBB291:
  70:../../DaisySP/Source/Synthesis/oscillator.h ****     }
 517              		.loc 4 70 34 discriminator 2 view .LVU154
 518 016a 0198     		ldr	r0, [sp, #4]
 519              	.LBE291:
 520              	.LBE290:
 521              	.LBB294:
 522              	.LBB285:
  81:../../DaisySP/Source/Synthesis/oscillator.h ****     }
 523              		.loc 4 81 19 discriminator 2 view .LVU155
 524 016c 28BF     		it	cs
 525 016e 0023     		movcs	r3, #0
 526              	.LVL30:
  81:../../DaisySP/Source/Synthesis/oscillator.h ****     }
 527              		.loc 4 81 19 discriminator 2 view .LVU156
 528 0170 84F83431 		strb	r3, [r4, #308]
  81:../../DaisySP/Source/Synthesis/oscillator.h ****     }
 529              		.loc 4 81 19 discriminator 2 view .LVU157
 530              	.LBE285:
 531              	.LBE294:
  78:vasynth.cpp   **** 		osc2_[i].SetFreq(440.0f * osc2_detune_); // default
 532              		.loc 1 78 3 is_stmt 1 discriminator 2 view .LVU158
 533              	.LVL31:
 534              	.LBB295:
 535              	.LBI286:
  76:../../DaisySP/Source/Synthesis/oscillator.h ****     /** Sets the waveform to be synthesized by the Process() function.
 536              		.loc 4 76 17 discriminator 2 view .LVU159
 537              	.LBB288:
  76:../../DaisySP/Source/Synthesis/oscillator.h ****     /** Sets the waveform to be synthesized by the Process() function.
 538              		.loc 4 76 41 discriminator 2 view .LVU160
  76:../../DaisySP/Source/Synthesis/oscillator.h ****     /** Sets the waveform to be synthesized by the Process() function.
 539              		.loc 4 76 41 is_stmt 0 discriminator 2 view .LVU161
 540              	.LBE288:
 541              	.LBE295:
  79:vasynth.cpp   **** 		osc2_[i].SetPw(0.5f);
 542              		.loc 1 79 3 is_stmt 1 discriminator 2 view .LVU162
  79:vasynth.cpp   **** 		osc2_[i].SetPw(0.5f);
 543              		.loc 1 79 19 is_stmt 0 discriminator 2 view .LVU163
 544 0174 95ED060A 		vldr.32	s0, [r5, #24]
 545 0178 20EE0A0A 		vmul.f32	s0, s0, s20
 546              	.LVL32:
 547              	.LBB296:
 548              	.LBI290:
ARM GAS  /var/folders/kw/h2sg8jtn02b91cpsjc1nlpg80000gn/T//cc9L9FMQ.s 			page 19


  67:../../DaisySP/Source/Synthesis/oscillator.h ****     {
 549              		.loc 4 67 17 is_stmt 1 discriminator 2 view .LVU164
 550              	.LBB292:
  69:../../DaisySP/Source/Synthesis/oscillator.h ****         phase_inc_ = CalcPhaseInc(f);
 551              		.loc 4 69 9 discriminator 2 view .LVU165
  69:../../DaisySP/Source/Synthesis/oscillator.h ****         phase_inc_ = CalcPhaseInc(f);
 552              		.loc 4 69 20 is_stmt 0 discriminator 2 view .LVU166
 553 017c 84ED4F0A 		vstr.32	s0, [r4, #316]
  70:../../DaisySP/Source/Synthesis/oscillator.h ****     }
 554              		.loc 4 70 9 is_stmt 1 discriminator 2 view .LVU167
  70:../../DaisySP/Source/Synthesis/oscillator.h ****     }
 555              		.loc 4 70 34 is_stmt 0 discriminator 2 view .LVU168
 556 0180 FFF7FEFF 		bl	_ZN7daisysp10Oscillator12CalcPhaseIncEf
 557              	.LVL33:
  70:../../DaisySP/Source/Synthesis/oscillator.h ****     }
 558              		.loc 4 70 34 discriminator 2 view .LVU169
 559              	.LBE292:
 560              	.LBE296:
  83:vasynth.cpp   **** 		eg_a_[i].SetTime(ADSR_SEG_ATTACK, eg_a_attack_);
 561              		.loc 1 83 16 discriminator 2 view .LVU170
 562 0184 3946     		mov	r1, r7
 563 0186 3046     		mov	r0, r6
 564              	.LBB297:
 565              	.LBB293:
  70:../../DaisySP/Source/Synthesis/oscillator.h ****     }
 566              		.loc 4 70 20 discriminator 2 view .LVU171
 567 0188 84ED540A 		vstr.32	s0, [r4, #336]
 568              	.LVL34:
  70:../../DaisySP/Source/Synthesis/oscillator.h ****     }
 569              		.loc 4 70 20 discriminator 2 view .LVU172
 570              	.LBE293:
 571              	.LBE297:
  80:vasynth.cpp   **** 		
 572              		.loc 1 80 3 is_stmt 1 discriminator 2 view .LVU173
 573              	.LBB298:
 574              	.LBI298:
 575              		.loc 4 85 17 discriminator 2 view .LVU174
 576              	.LBB299:
 577              		.loc 4 85 41 discriminator 2 view .LVU175
 578              	.LBB300:
 579              	.LBI300:
  64:../../DaisySP/Source/Utility/dsp.h **** {
 580              		.loc 5 64 14 discriminator 2 view .LVU176
 581              	.LBE300:
 582              	.LBE299:
 583              	.LBE298:
 584              	.LBE311:
 585              		.loc 5 66 5 discriminator 2 view .LVU177
 586              	.LBB312:
 587              	.LBB307:
 588              	.LBB306:
 589              	.LBB305:
 590              	.LBB301:
 591              	.LBI301:
  40:../../DaisySP/Source/Utility/dsp.h **** {
 592              		.loc 5 40 14 discriminator 2 view .LVU178
 593              	.LBB302:
ARM GAS  /var/folders/kw/h2sg8jtn02b91cpsjc1nlpg80000gn/T//cc9L9FMQ.s 			page 20


  42:../../DaisySP/Source/Utility/dsp.h **** #ifdef __arm__
 594              		.loc 5 42 5 discriminator 2 view .LVU179
  44:../../DaisySP/Source/Utility/dsp.h **** #else
 595              		.loc 5 44 5 discriminator 2 view .LVU180
  48:../../DaisySP/Source/Utility/dsp.h **** }
 596              		.loc 5 48 5 discriminator 2 view .LVU181
  48:../../DaisySP/Source/Utility/dsp.h **** }
 597              		.loc 5 48 5 is_stmt 0 discriminator 2 view .LVU182
 598              	.LBE302:
 599              	.LBE301:
 600              	.LBB303:
 601              	.LBI303:
  51:../../DaisySP/Source/Utility/dsp.h **** {
 602              		.loc 5 51 14 is_stmt 1 discriminator 2 view .LVU183
 603              	.LBB304:
  53:../../DaisySP/Source/Utility/dsp.h **** #ifdef __arm__
 604              		.loc 5 53 5 discriminator 2 view .LVU184
  55:../../DaisySP/Source/Utility/dsp.h **** #else
 605              		.loc 5 55 5 discriminator 2 view .LVU185
  59:../../DaisySP/Source/Utility/dsp.h **** }
 606              		.loc 5 59 5 discriminator 2 view .LVU186
  59:../../DaisySP/Source/Utility/dsp.h **** }
 607              		.loc 5 59 5 is_stmt 0 discriminator 2 view .LVU187
 608              	.LBE304:
 609              	.LBE303:
 610              	.LBE305:
 611              		.loc 4 85 45 discriminator 2 view .LVU188
 612 018c 84ED509A 		vstr.32	s18, [r4, #320]
 613              	.LVL35:
 614              		.loc 4 85 45 discriminator 2 view .LVU189
 615              	.LBE306:
 616              	.LBE307:
  83:vasynth.cpp   **** 		eg_a_[i].SetTime(ADSR_SEG_ATTACK, eg_a_attack_);
 617              		.loc 1 83 3 is_stmt 1 discriminator 2 view .LVU190
  83:vasynth.cpp   **** 		eg_a_[i].SetTime(ADSR_SEG_ATTACK, eg_a_attack_);
 618              		.loc 1 83 16 is_stmt 0 discriminator 2 view .LVU191
 619 0190 95ED000A 		vldr.32	s0, [r5]
 620 0194 FFF7FEFF 		bl	_ZN7daisysp4Adsr4InitEfi
 621              	.LVL36:
  84:vasynth.cpp   **** 		eg_a_[i].SetTime(ADSR_SEG_DECAY, eg_a_decay_);
 622              		.loc 1 84 3 is_stmt 1 discriminator 2 view .LVU192
  84:vasynth.cpp   **** 		eg_a_[i].SetTime(ADSR_SEG_DECAY, eg_a_decay_);
 623              		.loc 1 84 19 is_stmt 0 discriminator 2 view .LVU193
 624 0198 95ED090A 		vldr.32	s0, [r5, #36]
 625 019c 3946     		mov	r1, r7
 626 019e 3046     		mov	r0, r6
 627 01a0 FFF7FEFF 		bl	_ZN7daisysp4Adsr7SetTimeEif
 628              	.LVL37:
  85:vasynth.cpp   **** 		eg_a_[i].SetTime(ADSR_SEG_RELEASE, eg_a_release_);
 629              		.loc 1 85 3 is_stmt 1 discriminator 2 view .LVU194
  85:vasynth.cpp   **** 		eg_a_[i].SetTime(ADSR_SEG_RELEASE, eg_a_release_);
 630              		.loc 1 85 19 is_stmt 0 discriminator 2 view .LVU195
 631 01a4 95ED0A0A 		vldr.32	s0, [r5, #40]
 632 01a8 0221     		movs	r1, #2
 633 01aa 3046     		mov	r0, r6
 634 01ac FFF7FEFF 		bl	_ZN7daisysp4Adsr7SetTimeEif
 635              	.LVL38:
ARM GAS  /var/folders/kw/h2sg8jtn02b91cpsjc1nlpg80000gn/T//cc9L9FMQ.s 			page 21


  86:vasynth.cpp   **** 		eg_a_[i].SetSustainLevel(eg_a_sustain_);
 636              		.loc 1 86 3 is_stmt 1 discriminator 2 view .LVU196
  86:vasynth.cpp   **** 		eg_a_[i].SetSustainLevel(eg_a_sustain_);
 637              		.loc 1 86 19 is_stmt 0 discriminator 2 view .LVU197
 638 01b0 95ED0C0A 		vldr.32	s0, [r5, #48]
 639 01b4 0421     		movs	r1, #4
 640 01b6 3046     		mov	r0, r6
 641 01b8 FFF7FEFF 		bl	_ZN7daisysp4Adsr7SetTimeEif
 642              	.LVL39:
  87:vasynth.cpp   **** 
 643              		.loc 1 87 3 is_stmt 1 discriminator 2 view .LVU198
  87:vasynth.cpp   **** 
 644              		.loc 1 87 27 is_stmt 0 discriminator 2 view .LVU199
 645 01bc D5ED0B7A 		vldr.32	s15, [r5, #44]
 646              	.LVL40:
 647              	.LBB308:
 648              	.LBI215:
  74:../../DaisySP/Source/Control/adsr.h ****     {
 649              		.loc 2 74 17 is_stmt 1 discriminator 2 view .LVU200
 650              	.LBB217:
  76:../../DaisySP/Source/Control/adsr.h ****                                        : (sus_level > 1.f) ? 1.f : sus_level;
 651              		.loc 2 76 9 discriminator 2 view .LVU201
  76:../../DaisySP/Source/Control/adsr.h ****                                        : (sus_level > 1.f) ? 1.f : sus_level;
 652              		.loc 2 76 40 is_stmt 0 discriminator 2 view .LVU202
 653 01c0 F4EEEA7A 		vcmpe.f32	s15, s21
 654 01c4 F1EE10FA 		vmrs	APSR_nzcv, FPSCR
 655 01c8 3FF629AF 		bhi	.L19
  76:../../DaisySP/Source/Control/adsr.h ****                                        : (sus_level > 1.f) ? 1.f : sus_level;
 656              		.loc 2 76 40 view .LVU203
 657 01cc DFED717A 		vldr.32	s15, .L20+12
 658              	.LVL41:
  76:../../DaisySP/Source/Control/adsr.h ****                                        : (sus_level > 1.f) ? 1.f : sus_level;
 659              		.loc 2 76 40 view .LVU204
 660 01d0 2BE7     		b	.L4
 661              	.LVL42:
 662              	.L13:
  76:../../DaisySP/Source/Control/adsr.h ****                                        : (sus_level > 1.f) ? 1.f : sus_level;
 663              		.loc 2 76 40 view .LVU205
 664              	.LBE217:
 665              	.LBE308:
 666              	.LBB309:
 667              	.LBB221:
 668 01d2 DFED707A 		vldr.32	s15, .L20+12
 669              	.LVL43:
  76:../../DaisySP/Source/Control/adsr.h ****                                        : (sus_level > 1.f) ? 1.f : sus_level;
 670              		.loc 2 76 40 view .LVU206
 671 01d6 54E7     		b	.L5
 672              	.LVL44:
 673              	.L18:
  76:../../DaisySP/Source/Control/adsr.h ****                                        : (sus_level > 1.f) ? 1.f : sus_level;
 674              		.loc 2 76 40 view .LVU207
 675              	.LBE221:
 676              	.LBE309:
 677              	.LBE312:
 100:vasynth.cpp   **** 	}
 101:vasynth.cpp   **** 
 102:vasynth.cpp   **** 	// lfo
ARM GAS  /var/folders/kw/h2sg8jtn02b91cpsjc1nlpg80000gn/T//cc9L9FMQ.s 			page 22


 103:vasynth.cpp   **** 	lfo_.Init(sample_rate_);
 678              		.loc 1 103 2 is_stmt 1 view .LVU208
 679              	.LBB313:
 680              	.LBB314:
  53:../../DaisySP/Source/Synthesis/oscillator.h ****         freq_      = 100.0f;
 681              		.loc 4 53 27 is_stmt 0 view .LVU209
 682 01d8 F7EE008A 		vmov.f32	s17, #1.0e+0
 683              	.LBE314:
 684              	.LBE313:
 685              		.loc 1 103 11 view .LVU210
 686 01dc D5ED007A 		vldr.32	s15, [r5]
 687              	.LBB319:
 688              	.LBB315:
  55:../../DaisySP/Source/Synthesis/oscillator.h ****         pw_        = 0.5f;
 689              		.loc 4 55 20 view .LVU211
 690 01e0 4FF07C54 		mov	r4, #1056964608
  54:../../DaisySP/Source/Synthesis/oscillator.h ****         amp_       = 0.5f;
 691              		.loc 4 54 20 view .LVU212
 692 01e4 9FED688A 		vldr.32	s16, .L20
  57:../../DaisySP/Source/Synthesis/oscillator.h ****         phase_inc_ = CalcPhaseInc(freq_);
 693              		.loc 4 57 20 view .LVU213
 694 01e8 0027     		movs	r7, #0
 695              	.LBE315:
 696              	.LBE319:
 697              		.loc 1 103 11 view .LVU214
 698 01ea 05F55B70 		add	r0, r5, #876
 699              	.LVL45:
 700              	.LBB320:
 701              	.LBI313:
  50:../../DaisySP/Source/Synthesis/oscillator.h ****     {
 702              		.loc 4 50 10 is_stmt 1 view .LVU215
 703              	.LBB316:
  52:../../DaisySP/Source/Synthesis/oscillator.h ****         sr_recip_  = 1.0f / sample_rate;
 704              		.loc 4 52 9 view .LVU216
  53:../../DaisySP/Source/Synthesis/oscillator.h ****         freq_      = 100.0f;
 705              		.loc 4 53 27 is_stmt 0 view .LVU217
 706 01ee 88EEA77A 		vdiv.f32	s14, s17, s15
  52:../../DaisySP/Source/Synthesis/oscillator.h ****         sr_recip_  = 1.0f / sample_rate;
 707              		.loc 4 52 20 view .LVU218
 708 01f2 C5EDDF7A 		vstr.32	s15, [r5, #892]
  53:../../DaisySP/Source/Synthesis/oscillator.h ****         freq_      = 100.0f;
 709              		.loc 4 53 9 is_stmt 1 view .LVU219
  55:../../DaisySP/Source/Synthesis/oscillator.h ****         pw_        = 0.5f;
 710              		.loc 4 55 20 is_stmt 0 view .LVU220
 711 01f6 C5F87043 		str	r4, [r5, #880]	@ float
  61:../../DaisySP/Source/Synthesis/oscillator.h ****     }
 712              		.loc 4 61 20 view .LVU221
 713 01fa 40F20116 		movw	r6, #257
  56:../../DaisySP/Source/Synthesis/oscillator.h ****         phase_     = 0.0f;
 714              		.loc 4 56 20 view .LVU222
 715 01fe C5F87843 		str	r4, [r5, #888]	@ float
  54:../../DaisySP/Source/Synthesis/oscillator.h ****         amp_       = 0.5f;
 716              		.loc 4 54 20 view .LVU223
 717 0202 85EDDD8A 		vstr.32	s16, [r5, #884]
  57:../../DaisySP/Source/Synthesis/oscillator.h ****         phase_inc_ = CalcPhaseInc(freq_);
 718              		.loc 4 57 20 view .LVU224
 719 0206 C5F88473 		str	r7, [r5, #900]	@ float
ARM GAS  /var/folders/kw/h2sg8jtn02b91cpsjc1nlpg80000gn/T//cc9L9FMQ.s 			page 23


  58:../../DaisySP/Source/Synthesis/oscillator.h ****         waveform_  = WAVE_SIN;
 720              		.loc 4 58 34 view .LVU225
 721 020a B0EE480A 		vmov.f32	s0, s16
 722 020e 0190     		str	r0, [sp, #4]
  53:../../DaisySP/Source/Synthesis/oscillator.h ****         freq_      = 100.0f;
 723              		.loc 4 53 20 view .LVU226
 724 0210 85EDE07A 		vstr.32	s14, [r5, #896]
  54:../../DaisySP/Source/Synthesis/oscillator.h ****         amp_       = 0.5f;
 725              		.loc 4 54 9 is_stmt 1 view .LVU227
  55:../../DaisySP/Source/Synthesis/oscillator.h ****         pw_        = 0.5f;
 726              		.loc 4 55 9 view .LVU228
  56:../../DaisySP/Source/Synthesis/oscillator.h ****         phase_     = 0.0f;
 727              		.loc 4 56 9 view .LVU229
  57:../../DaisySP/Source/Synthesis/oscillator.h ****         phase_inc_ = CalcPhaseInc(freq_);
 728              		.loc 4 57 9 view .LVU230
  58:../../DaisySP/Source/Synthesis/oscillator.h ****         waveform_  = WAVE_SIN;
 729              		.loc 4 58 9 view .LVU231
  58:../../DaisySP/Source/Synthesis/oscillator.h ****         waveform_  = WAVE_SIN;
 730              		.loc 4 58 34 is_stmt 0 view .LVU232
 731 0214 FFF7FEFF 		bl	_ZN7daisysp10Oscillator12CalcPhaseIncEf
 732              	.LVL46:
  58:../../DaisySP/Source/Synthesis/oscillator.h ****         waveform_  = WAVE_SIN;
 733              		.loc 4 58 34 view .LVU233
 734              	.LBE316:
 735              	.LBE320:
 104:vasynth.cpp   **** 	lfo_.SetWaveform(lfo_waveform_);
 736              		.loc 1 104 18 view .LVU234
 737 0218 95F84430 		ldrb	r3, [r5, #68]	@ zero_extendqisi2
 105:vasynth.cpp   **** 	lfo_.SetFreq(lfo_freq_);
 738              		.loc 1 105 14 view .LVU235
 739 021c D5ED127A 		vldr.32	s15, [r5, #72]
 740              	.LBB321:
 741              	.LBB322:
  81:../../DaisySP/Source/Synthesis/oscillator.h ****     }
 742              		.loc 4 81 19 view .LVU236
 743 0220 082B     		cmp	r3, #8
 744              	.LBE322:
 745              	.LBE321:
 746              	.LBB325:
 747              	.LBB326:
  70:../../DaisySP/Source/Synthesis/oscillator.h ****     }
 748              		.loc 4 70 34 view .LVU237
 749 0222 0198     		ldr	r0, [sp, #4]
 750              	.LBE326:
 751              	.LBE325:
 752              	.LBB331:
 753              	.LBB317:
  58:../../DaisySP/Source/Synthesis/oscillator.h ****         waveform_  = WAVE_SIN;
 754              		.loc 4 58 20 view .LVU238
 755 0224 85EDE20A 		vstr.32	s0, [r5, #904]
  59:../../DaisySP/Source/Synthesis/oscillator.h ****         eoc_       = true;
 756              		.loc 4 59 9 is_stmt 1 view .LVU239
  60:../../DaisySP/Source/Synthesis/oscillator.h ****         eor_       = true;
 757              		.loc 4 60 9 view .LVU240
  61:../../DaisySP/Source/Synthesis/oscillator.h ****     }
 758              		.loc 4 61 9 view .LVU241
 759              	.LBE317:
ARM GAS  /var/folders/kw/h2sg8jtn02b91cpsjc1nlpg80000gn/T//cc9L9FMQ.s 			page 24


 760              	.LBE331:
 761              	.LBB332:
 762              	.LBB327:
  70:../../DaisySP/Source/Synthesis/oscillator.h ****     }
 763              		.loc 4 70 34 is_stmt 0 view .LVU242
 764 0228 B0EE670A 		vmov.f32	s0, s15
 765              	.LBE327:
 766              	.LBE332:
 767              	.LBB333:
 768              	.LBB323:
  81:../../DaisySP/Source/Synthesis/oscillator.h ****     }
 769              		.loc 4 81 19 view .LVU243
 770 022c 28BF     		it	cs
 771 022e 0023     		movcs	r3, #0
 772              	.LBE323:
 773              	.LBE333:
 774              	.LBB334:
 775              	.LBB328:
  69:../../DaisySP/Source/Synthesis/oscillator.h ****         phase_inc_ = CalcPhaseInc(f);
 776              		.loc 4 69 20 view .LVU244
 777 0230 C5EDDD7A 		vstr.32	s15, [r5, #884]
 778              	.LBE328:
 779              	.LBE334:
 780              	.LBB335:
 781              	.LBB318:
  61:../../DaisySP/Source/Synthesis/oscillator.h ****     }
 782              		.loc 4 61 20 view .LVU245
 783 0234 A5F89463 		strh	r6, [r5, #916]	@ movhi
 784              	.LVL47:
  61:../../DaisySP/Source/Synthesis/oscillator.h ****     }
 785              		.loc 4 61 20 view .LVU246
 786              	.LBE318:
 787              	.LBE335:
 104:vasynth.cpp   **** 	lfo_.SetFreq(lfo_freq_);
 788              		.loc 1 104 2 is_stmt 1 view .LVU247
 789              	.LBB336:
 790              	.LBI321:
  79:../../DaisySP/Source/Synthesis/oscillator.h ****     {
 791              		.loc 4 79 17 view .LVU248
 792              	.LBB324:
  81:../../DaisySP/Source/Synthesis/oscillator.h ****     }
 793              		.loc 4 81 9 view .LVU249
  81:../../DaisySP/Source/Synthesis/oscillator.h ****     }
 794              		.loc 4 81 19 is_stmt 0 view .LVU250
 795 0238 85F86C33 		strb	r3, [r5, #876]
 796              	.LVL48:
  81:../../DaisySP/Source/Synthesis/oscillator.h ****     }
 797              		.loc 4 81 19 view .LVU251
 798              	.LBE324:
 799              	.LBE336:
 800              		.loc 1 105 2 is_stmt 1 view .LVU252
 801              	.LBB337:
 802              	.LBI325:
  67:../../DaisySP/Source/Synthesis/oscillator.h ****     {
 803              		.loc 4 67 17 view .LVU253
 804              	.LBB329:
  69:../../DaisySP/Source/Synthesis/oscillator.h ****         phase_inc_ = CalcPhaseInc(f);
ARM GAS  /var/folders/kw/h2sg8jtn02b91cpsjc1nlpg80000gn/T//cc9L9FMQ.s 			page 25


 805              		.loc 4 69 9 view .LVU254
  70:../../DaisySP/Source/Synthesis/oscillator.h ****     }
 806              		.loc 4 70 9 view .LVU255
  70:../../DaisySP/Source/Synthesis/oscillator.h ****     }
 807              		.loc 4 70 34 is_stmt 0 view .LVU256
 808 023c FFF7FEFF 		bl	_ZN7daisysp10Oscillator12CalcPhaseIncEf
 809              	.LVL49:
  70:../../DaisySP/Source/Synthesis/oscillator.h ****     }
 810              		.loc 4 70 34 view .LVU257
 811 0240 B0EE407A 		vmov.f32	s14, s0
 812              	.LBE329:
 813              	.LBE337:
 106:vasynth.cpp   **** 	lfo_.SetAmp(lfo_amp_);
 107:vasynth.cpp   **** 	
 108:vasynth.cpp   **** 	pwmlfo_.Init(sample_rate_);
 814              		.loc 1 108 14 view .LVU258
 815 0244 D5ED007A 		vldr.32	s15, [r5]
 816 0248 05F56670 		add	r0, r5, #920
 817              	.LBB338:
 818              	.LBB339:
  76:../../DaisySP/Source/Synthesis/oscillator.h ****     /** Sets the waveform to be synthesized by the Process() function.
 819              		.loc 4 76 46 view .LVU259
 820 024c EB6C     		ldr	r3, [r5, #76]	@ float
 821              	.LBE339:
 822              	.LBE338:
 823              	.LBB342:
 824              	.LBB343:
  58:../../DaisySP/Source/Synthesis/oscillator.h ****         waveform_  = WAVE_SIN;
 825              		.loc 4 58 34 view .LVU260
 826 024e B0EE480A 		vmov.f32	s0, s16
 827              	.LBE343:
 828              	.LBE342:
 829              	.LBB348:
 830              	.LBB330:
  70:../../DaisySP/Source/Synthesis/oscillator.h ****     }
 831              		.loc 4 70 20 view .LVU261
 832 0252 85EDE27A 		vstr.32	s14, [r5, #904]
 833              	.LVL50:
  70:../../DaisySP/Source/Synthesis/oscillator.h ****     }
 834              		.loc 4 70 20 view .LVU262
 835              	.LBE330:
 836              	.LBE348:
 106:vasynth.cpp   **** 	
 837              		.loc 1 106 2 is_stmt 1 view .LVU263
 838              	.LBB349:
 839              	.LBI338:
  76:../../DaisySP/Source/Synthesis/oscillator.h ****     /** Sets the waveform to be synthesized by the Process() function.
 840              		.loc 4 76 17 view .LVU264
 841              	.LBB340:
  76:../../DaisySP/Source/Synthesis/oscillator.h ****     /** Sets the waveform to be synthesized by the Process() function.
 842              		.loc 4 76 41 view .LVU265
 843              	.LBE340:
 844              	.LBE349:
 845              	.LBB350:
 846              	.LBB344:
  53:../../DaisySP/Source/Synthesis/oscillator.h ****         freq_      = 100.0f;
 847              		.loc 4 53 27 is_stmt 0 view .LVU266
ARM GAS  /var/folders/kw/h2sg8jtn02b91cpsjc1nlpg80000gn/T//cc9L9FMQ.s 			page 26


 848 0256 88EEA77A 		vdiv.f32	s14, s17, s15
  52:../../DaisySP/Source/Synthesis/oscillator.h ****         sr_recip_  = 1.0f / sample_rate;
 849              		.loc 4 52 20 view .LVU267
 850 025a C5EDEA7A 		vstr.32	s15, [r5, #936]
 851              	.LBE344:
 852              	.LBE350:
 853              	.LBB351:
 854              	.LBB341:
  76:../../DaisySP/Source/Synthesis/oscillator.h ****     /** Sets the waveform to be synthesized by the Process() function.
 855              		.loc 4 76 46 view .LVU268
 856 025e C5F87033 		str	r3, [r5, #880]	@ float
 857              	.LVL51:
  76:../../DaisySP/Source/Synthesis/oscillator.h ****     /** Sets the waveform to be synthesized by the Process() function.
 858              		.loc 4 76 46 view .LVU269
 859              	.LBE341:
 860              	.LBE351:
 861              		.loc 1 108 2 is_stmt 1 view .LVU270
 862              	.LBB352:
 863              	.LBI342:
  50:../../DaisySP/Source/Synthesis/oscillator.h ****     {
 864              		.loc 4 50 10 view .LVU271
 865              	.LBB345:
  52:../../DaisySP/Source/Synthesis/oscillator.h ****         sr_recip_  = 1.0f / sample_rate;
 866              		.loc 4 52 9 view .LVU272
  53:../../DaisySP/Source/Synthesis/oscillator.h ****         freq_      = 100.0f;
 867              		.loc 4 53 9 view .LVU273
  55:../../DaisySP/Source/Synthesis/oscillator.h ****         pw_        = 0.5f;
 868              		.loc 4 55 20 is_stmt 0 view .LVU274
 869 0262 C5F89C43 		str	r4, [r5, #924]	@ float
  56:../../DaisySP/Source/Synthesis/oscillator.h ****         phase_     = 0.0f;
 870              		.loc 4 56 20 view .LVU275
 871 0266 C5F8A443 		str	r4, [r5, #932]	@ float
  54:../../DaisySP/Source/Synthesis/oscillator.h ****         amp_       = 0.5f;
 872              		.loc 4 54 20 view .LVU276
 873 026a 85EDE88A 		vstr.32	s16, [r5, #928]
  57:../../DaisySP/Source/Synthesis/oscillator.h ****         phase_inc_ = CalcPhaseInc(freq_);
 874              		.loc 4 57 20 view .LVU277
 875 026e C5F8B073 		str	r7, [r5, #944]	@ float
  58:../../DaisySP/Source/Synthesis/oscillator.h ****         waveform_  = WAVE_SIN;
 876              		.loc 4 58 34 view .LVU278
 877 0272 0190     		str	r0, [sp, #4]
  53:../../DaisySP/Source/Synthesis/oscillator.h ****         freq_      = 100.0f;
 878              		.loc 4 53 20 view .LVU279
 879 0274 85EDEB7A 		vstr.32	s14, [r5, #940]
  54:../../DaisySP/Source/Synthesis/oscillator.h ****         amp_       = 0.5f;
 880              		.loc 4 54 9 is_stmt 1 view .LVU280
  55:../../DaisySP/Source/Synthesis/oscillator.h ****         pw_        = 0.5f;
 881              		.loc 4 55 9 view .LVU281
  56:../../DaisySP/Source/Synthesis/oscillator.h ****         phase_     = 0.0f;
 882              		.loc 4 56 9 view .LVU282
  57:../../DaisySP/Source/Synthesis/oscillator.h ****         phase_inc_ = CalcPhaseInc(freq_);
 883              		.loc 4 57 9 view .LVU283
  58:../../DaisySP/Source/Synthesis/oscillator.h ****         waveform_  = WAVE_SIN;
 884              		.loc 4 58 9 view .LVU284
  58:../../DaisySP/Source/Synthesis/oscillator.h ****         waveform_  = WAVE_SIN;
 885              		.loc 4 58 34 is_stmt 0 view .LVU285
 886 0278 FFF7FEFF 		bl	_ZN7daisysp10Oscillator12CalcPhaseIncEf
ARM GAS  /var/folders/kw/h2sg8jtn02b91cpsjc1nlpg80000gn/T//cc9L9FMQ.s 			page 27


 887              	.LVL52:
  58:../../DaisySP/Source/Synthesis/oscillator.h ****         waveform_  = WAVE_SIN;
 888              		.loc 4 58 34 view .LVU286
 889              	.LBE345:
 890              	.LBE352:
 109:vasynth.cpp   **** 	pwmlfo_.SetWaveform(pwmlfo_waveform_);
 891              		.loc 1 109 21 view .LVU287
 892 027c 95F85030 		ldrb	r3, [r5, #80]	@ zero_extendqisi2
 893              	.LBB353:
 894              	.LBB346:
  58:../../DaisySP/Source/Synthesis/oscillator.h ****         waveform_  = WAVE_SIN;
 895              		.loc 4 58 20 view .LVU288
 896 0280 85EDED0A 		vstr.32	s0, [r5, #948]
  59:../../DaisySP/Source/Synthesis/oscillator.h ****         eoc_       = true;
 897              		.loc 4 59 9 is_stmt 1 view .LVU289
  60:../../DaisySP/Source/Synthesis/oscillator.h ****         eor_       = true;
 898              		.loc 4 60 9 view .LVU290
  61:../../DaisySP/Source/Synthesis/oscillator.h ****     }
 899              		.loc 4 61 9 view .LVU291
 900              	.LBE346:
 901              	.LBE353:
 902              	.LBB354:
 903              	.LBB355:
  81:../../DaisySP/Source/Synthesis/oscillator.h ****     }
 904              		.loc 4 81 19 is_stmt 0 view .LVU292
 905 0284 082B     		cmp	r3, #8
 906              	.LBE355:
 907              	.LBE354:
 110:vasynth.cpp   **** 	pwmlfo_.SetFreq(pwmlfo_freq_);
 908              		.loc 1 110 17 view .LVU293
 909 0286 95ED150A 		vldr.32	s0, [r5, #84]
 910              	.LBB359:
 911              	.LBB360:
  70:../../DaisySP/Source/Synthesis/oscillator.h ****     }
 912              		.loc 4 70 34 view .LVU294
 913 028a 0198     		ldr	r0, [sp, #4]
 914              	.LBE360:
 915              	.LBE359:
 916              	.LBB364:
 917              	.LBB356:
  81:../../DaisySP/Source/Synthesis/oscillator.h ****     }
 918              		.loc 4 81 19 view .LVU295
 919 028c 28BF     		it	cs
 920 028e 0023     		movcs	r3, #0
 921              	.LBE356:
 922              	.LBE364:
 923              	.LBB365:
 924              	.LBB347:
  61:../../DaisySP/Source/Synthesis/oscillator.h ****     }
 925              		.loc 4 61 20 view .LVU296
 926 0290 A5F8C063 		strh	r6, [r5, #960]	@ movhi
 927              	.LVL53:
  61:../../DaisySP/Source/Synthesis/oscillator.h ****     }
 928              		.loc 4 61 20 view .LVU297
 929              	.LBE347:
 930              	.LBE365:
 109:vasynth.cpp   **** 	pwmlfo_.SetFreq(pwmlfo_freq_);
ARM GAS  /var/folders/kw/h2sg8jtn02b91cpsjc1nlpg80000gn/T//cc9L9FMQ.s 			page 28


 931              		.loc 1 109 2 is_stmt 1 view .LVU298
 932              	.LBB366:
 933              	.LBI354:
  79:../../DaisySP/Source/Synthesis/oscillator.h ****     {
 934              		.loc 4 79 17 view .LVU299
 935              	.LBB357:
  81:../../DaisySP/Source/Synthesis/oscillator.h ****     }
 936              		.loc 4 81 9 view .LVU300
 937              	.LBE357:
 938              	.LBE366:
 939              	.LBB367:
 940              	.LBB361:
  69:../../DaisySP/Source/Synthesis/oscillator.h ****         phase_inc_ = CalcPhaseInc(f);
 941              		.loc 4 69 20 is_stmt 0 view .LVU301
 942 0294 85EDE80A 		vstr.32	s0, [r5, #928]
 943              	.LBE361:
 944              	.LBE367:
 945              	.LBB368:
 946              	.LBB358:
  81:../../DaisySP/Source/Synthesis/oscillator.h ****     }
 947              		.loc 4 81 19 view .LVU302
 948 0298 85F89833 		strb	r3, [r5, #920]
 949              	.LVL54:
  81:../../DaisySP/Source/Synthesis/oscillator.h ****     }
 950              		.loc 4 81 19 view .LVU303
 951              	.LBE358:
 952              	.LBE368:
 953              		.loc 1 110 2 is_stmt 1 view .LVU304
 954              	.LBB369:
 955              	.LBI359:
  67:../../DaisySP/Source/Synthesis/oscillator.h ****     {
 956              		.loc 4 67 17 view .LVU305
 957              	.LBB362:
  69:../../DaisySP/Source/Synthesis/oscillator.h ****         phase_inc_ = CalcPhaseInc(f);
 958              		.loc 4 69 9 view .LVU306
  70:../../DaisySP/Source/Synthesis/oscillator.h ****     }
 959              		.loc 4 70 9 view .LVU307
  70:../../DaisySP/Source/Synthesis/oscillator.h ****     }
 960              		.loc 4 70 34 is_stmt 0 view .LVU308
 961 029c FFF7FEFF 		bl	_ZN7daisysp10Oscillator12CalcPhaseIncEf
 962              	.LVL55:
  70:../../DaisySP/Source/Synthesis/oscillator.h ****     }
 963              		.loc 4 70 34 view .LVU309
 964 02a0 B0EE407A 		vmov.f32	s14, s0
 965              	.LBE362:
 966              	.LBE369:
 111:vasynth.cpp   **** 	pwmlfo_.SetAmp(pwmlfo_amp_);
 112:vasynth.cpp   **** 
 113:vasynth.cpp   **** 	pwm2lfo_.Init(sample_rate_);
 967              		.loc 1 113 15 view .LVU310
 968 02a4 D5ED007A 		vldr.32	s15, [r5]
 969 02a8 05F57170 		add	r0, r5, #964
 970              	.LBB370:
 971              	.LBB371:
  76:../../DaisySP/Source/Synthesis/oscillator.h ****     /** Sets the waveform to be synthesized by the Process() function.
 972              		.loc 4 76 46 view .LVU311
 973 02ac AB6D     		ldr	r3, [r5, #88]	@ float
ARM GAS  /var/folders/kw/h2sg8jtn02b91cpsjc1nlpg80000gn/T//cc9L9FMQ.s 			page 29


 974              	.LBE371:
 975              	.LBE370:
 976              	.LBB374:
 977              	.LBB375:
  58:../../DaisySP/Source/Synthesis/oscillator.h ****         waveform_  = WAVE_SIN;
 978              		.loc 4 58 34 view .LVU312
 979 02ae B0EE480A 		vmov.f32	s0, s16
 980              	.LBE375:
 981              	.LBE374:
 982              	.LBB380:
 983              	.LBB363:
  70:../../DaisySP/Source/Synthesis/oscillator.h ****     }
 984              		.loc 4 70 20 view .LVU313
 985 02b2 85EDED7A 		vstr.32	s14, [r5, #948]
 986              	.LVL56:
  70:../../DaisySP/Source/Synthesis/oscillator.h ****     }
 987              		.loc 4 70 20 view .LVU314
 988              	.LBE363:
 989              	.LBE380:
 111:vasynth.cpp   **** 
 990              		.loc 1 111 2 is_stmt 1 view .LVU315
 991              	.LBB381:
 992              	.LBI370:
  76:../../DaisySP/Source/Synthesis/oscillator.h ****     /** Sets the waveform to be synthesized by the Process() function.
 993              		.loc 4 76 17 view .LVU316
 994              	.LBB372:
  76:../../DaisySP/Source/Synthesis/oscillator.h ****     /** Sets the waveform to be synthesized by the Process() function.
 995              		.loc 4 76 41 view .LVU317
 996              	.LBE372:
 997              	.LBE381:
 998              	.LBB382:
 999              	.LBB376:
  53:../../DaisySP/Source/Synthesis/oscillator.h ****         freq_      = 100.0f;
 1000              		.loc 4 53 27 is_stmt 0 view .LVU318
 1001 02b6 88EEA77A 		vdiv.f32	s14, s17, s15
  52:../../DaisySP/Source/Synthesis/oscillator.h ****         sr_recip_  = 1.0f / sample_rate;
 1002              		.loc 4 52 20 view .LVU319
 1003 02ba C5EDF57A 		vstr.32	s15, [r5, #980]
 1004              	.LBE376:
 1005              	.LBE382:
 1006              	.LBB383:
 1007              	.LBB373:
  76:../../DaisySP/Source/Synthesis/oscillator.h ****     /** Sets the waveform to be synthesized by the Process() function.
 1008              		.loc 4 76 46 view .LVU320
 1009 02be C5F89C33 		str	r3, [r5, #924]	@ float
 1010              	.LVL57:
  76:../../DaisySP/Source/Synthesis/oscillator.h ****     /** Sets the waveform to be synthesized by the Process() function.
 1011              		.loc 4 76 46 view .LVU321
 1012              	.LBE373:
 1013              	.LBE383:
 1014              		.loc 1 113 2 is_stmt 1 view .LVU322
 1015              	.LBB384:
 1016              	.LBI374:
  50:../../DaisySP/Source/Synthesis/oscillator.h ****     {
 1017              		.loc 4 50 10 view .LVU323
 1018              	.LBB377:
  52:../../DaisySP/Source/Synthesis/oscillator.h ****         sr_recip_  = 1.0f / sample_rate;
ARM GAS  /var/folders/kw/h2sg8jtn02b91cpsjc1nlpg80000gn/T//cc9L9FMQ.s 			page 30


 1019              		.loc 4 52 9 view .LVU324
  53:../../DaisySP/Source/Synthesis/oscillator.h ****         freq_      = 100.0f;
 1020              		.loc 4 53 9 view .LVU325
  55:../../DaisySP/Source/Synthesis/oscillator.h ****         pw_        = 0.5f;
 1021              		.loc 4 55 20 is_stmt 0 view .LVU326
 1022 02c2 C5F8C843 		str	r4, [r5, #968]	@ float
  56:../../DaisySP/Source/Synthesis/oscillator.h ****         phase_     = 0.0f;
 1023              		.loc 4 56 20 view .LVU327
 1024 02c6 C5F8D043 		str	r4, [r5, #976]	@ float
  54:../../DaisySP/Source/Synthesis/oscillator.h ****         amp_       = 0.5f;
 1025              		.loc 4 54 20 view .LVU328
 1026 02ca 85EDF38A 		vstr.32	s16, [r5, #972]
  57:../../DaisySP/Source/Synthesis/oscillator.h ****         phase_inc_ = CalcPhaseInc(freq_);
 1027              		.loc 4 57 20 view .LVU329
 1028 02ce C5F8DC73 		str	r7, [r5, #988]	@ float
  58:../../DaisySP/Source/Synthesis/oscillator.h ****         waveform_  = WAVE_SIN;
 1029              		.loc 4 58 34 view .LVU330
 1030 02d2 0190     		str	r0, [sp, #4]
  53:../../DaisySP/Source/Synthesis/oscillator.h ****         freq_      = 100.0f;
 1031              		.loc 4 53 20 view .LVU331
 1032 02d4 85EDF67A 		vstr.32	s14, [r5, #984]
  54:../../DaisySP/Source/Synthesis/oscillator.h ****         amp_       = 0.5f;
 1033              		.loc 4 54 9 is_stmt 1 view .LVU332
  55:../../DaisySP/Source/Synthesis/oscillator.h ****         pw_        = 0.5f;
 1034              		.loc 4 55 9 view .LVU333
  56:../../DaisySP/Source/Synthesis/oscillator.h ****         phase_     = 0.0f;
 1035              		.loc 4 56 9 view .LVU334
  57:../../DaisySP/Source/Synthesis/oscillator.h ****         phase_inc_ = CalcPhaseInc(freq_);
 1036              		.loc 4 57 9 view .LVU335
  58:../../DaisySP/Source/Synthesis/oscillator.h ****         waveform_  = WAVE_SIN;
 1037              		.loc 4 58 9 view .LVU336
  58:../../DaisySP/Source/Synthesis/oscillator.h ****         waveform_  = WAVE_SIN;
 1038              		.loc 4 58 34 is_stmt 0 view .LVU337
 1039 02d8 FFF7FEFF 		bl	_ZN7daisysp10Oscillator12CalcPhaseIncEf
 1040              	.LVL58:
  58:../../DaisySP/Source/Synthesis/oscillator.h ****         waveform_  = WAVE_SIN;
 1041              		.loc 4 58 34 view .LVU338
 1042              	.LBE377:
 1043              	.LBE384:
 114:vasynth.cpp   **** 	pwm2lfo_.SetWaveform(pwm2lfo_waveform_);
 1044              		.loc 1 114 22 view .LVU339
 1045 02dc 95F85C30 		ldrb	r3, [r5, #92]	@ zero_extendqisi2
 1046              	.LBB385:
 1047              	.LBB378:
  58:../../DaisySP/Source/Synthesis/oscillator.h ****         waveform_  = WAVE_SIN;
 1048              		.loc 4 58 20 view .LVU340
 1049 02e0 85EDF80A 		vstr.32	s0, [r5, #992]
  59:../../DaisySP/Source/Synthesis/oscillator.h ****         eoc_       = true;
 1050              		.loc 4 59 9 is_stmt 1 view .LVU341
  60:../../DaisySP/Source/Synthesis/oscillator.h ****         eor_       = true;
 1051              		.loc 4 60 9 view .LVU342
  61:../../DaisySP/Source/Synthesis/oscillator.h ****     }
 1052              		.loc 4 61 9 view .LVU343
 1053              	.LBE378:
 1054              	.LBE385:
 1055              	.LBB386:
 1056              	.LBB387:
ARM GAS  /var/folders/kw/h2sg8jtn02b91cpsjc1nlpg80000gn/T//cc9L9FMQ.s 			page 31


  81:../../DaisySP/Source/Synthesis/oscillator.h ****     }
 1057              		.loc 4 81 19 is_stmt 0 view .LVU344
 1058 02e4 082B     		cmp	r3, #8
 1059              	.LBE387:
 1060              	.LBE386:
 115:vasynth.cpp   **** 	pwm2lfo_.SetFreq(pwm2lfo_freq_);
 1061              		.loc 1 115 18 view .LVU345
 1062 02e6 95ED180A 		vldr.32	s0, [r5, #96]
 1063              	.LBB391:
 1064              	.LBB392:
  70:../../DaisySP/Source/Synthesis/oscillator.h ****     }
 1065              		.loc 4 70 34 view .LVU346
 1066 02ea 0198     		ldr	r0, [sp, #4]
 1067              	.LBE392:
 1068              	.LBE391:
 1069              	.LBB396:
 1070              	.LBB388:
  81:../../DaisySP/Source/Synthesis/oscillator.h ****     }
 1071              		.loc 4 81 19 view .LVU347
 1072 02ec 28BF     		it	cs
 1073 02ee 0023     		movcs	r3, #0
 1074              	.LBE388:
 1075              	.LBE396:
 1076              	.LBB397:
 1077              	.LBB379:
  61:../../DaisySP/Source/Synthesis/oscillator.h ****     }
 1078              		.loc 4 61 20 view .LVU348
 1079 02f0 A5F8EC63 		strh	r6, [r5, #1004]	@ movhi
 1080              	.LVL59:
  61:../../DaisySP/Source/Synthesis/oscillator.h ****     }
 1081              		.loc 4 61 20 view .LVU349
 1082              	.LBE379:
 1083              	.LBE397:
 114:vasynth.cpp   **** 	pwm2lfo_.SetFreq(pwm2lfo_freq_);
 1084              		.loc 1 114 2 is_stmt 1 view .LVU350
 1085              	.LBB398:
 1086              	.LBI386:
  79:../../DaisySP/Source/Synthesis/oscillator.h ****     {
 1087              		.loc 4 79 17 view .LVU351
 1088              	.LBB389:
  81:../../DaisySP/Source/Synthesis/oscillator.h ****     }
 1089              		.loc 4 81 9 view .LVU352
 1090              	.LBE389:
 1091              	.LBE398:
 1092              	.LBB399:
 1093              	.LBB393:
  69:../../DaisySP/Source/Synthesis/oscillator.h ****         phase_inc_ = CalcPhaseInc(f);
 1094              		.loc 4 69 20 is_stmt 0 view .LVU353
 1095 02f4 85EDF30A 		vstr.32	s0, [r5, #972]
 1096              	.LBE393:
 1097              	.LBE399:
 1098              	.LBB400:
 1099              	.LBB390:
  81:../../DaisySP/Source/Synthesis/oscillator.h ****     }
 1100              		.loc 4 81 19 view .LVU354
 1101 02f8 85F8C433 		strb	r3, [r5, #964]
 1102              	.LVL60:
ARM GAS  /var/folders/kw/h2sg8jtn02b91cpsjc1nlpg80000gn/T//cc9L9FMQ.s 			page 32


  81:../../DaisySP/Source/Synthesis/oscillator.h ****     }
 1103              		.loc 4 81 19 view .LVU355
 1104              	.LBE390:
 1105              	.LBE400:
 1106              		.loc 1 115 2 is_stmt 1 view .LVU356
 1107              	.LBB401:
 1108              	.LBI391:
  67:../../DaisySP/Source/Synthesis/oscillator.h ****     {
 1109              		.loc 4 67 17 view .LVU357
 1110              	.LBB394:
  69:../../DaisySP/Source/Synthesis/oscillator.h ****         phase_inc_ = CalcPhaseInc(f);
 1111              		.loc 4 69 9 view .LVU358
  70:../../DaisySP/Source/Synthesis/oscillator.h ****     }
 1112              		.loc 4 70 9 view .LVU359
  70:../../DaisySP/Source/Synthesis/oscillator.h ****     }
 1113              		.loc 4 70 34 is_stmt 0 view .LVU360
 1114 02fc FFF7FEFF 		bl	_ZN7daisysp10Oscillator12CalcPhaseIncEf
 1115              	.LVL61:
  70:../../DaisySP/Source/Synthesis/oscillator.h ****     }
 1116              		.loc 4 70 34 view .LVU361
 1117 0300 B0EE407A 		vmov.f32	s14, s0
 1118              	.LBE394:
 1119              	.LBE401:
 116:vasynth.cpp   **** 	pwm2lfo_.SetAmp(pwm2lfo_amp_);
 117:vasynth.cpp   **** 
 118:vasynth.cpp   **** 	vcavcflfo_.Init(sample_rate_);
 1120              		.loc 1 118 17 view .LVU362
 1121 0304 D5ED007A 		vldr.32	s15, [r5]
 1122 0308 05F57C70 		add	r0, r5, #1008
 1123              	.LBB402:
 1124              	.LBB403:
  76:../../DaisySP/Source/Synthesis/oscillator.h ****     /** Sets the waveform to be synthesized by the Process() function.
 1125              		.loc 4 76 46 view .LVU363
 1126 030c 6B6E     		ldr	r3, [r5, #100]	@ float
 1127              	.LBE403:
 1128              	.LBE402:
 1129              	.LBB406:
 1130              	.LBB407:
  58:../../DaisySP/Source/Synthesis/oscillator.h ****         waveform_  = WAVE_SIN;
 1131              		.loc 4 58 34 view .LVU364
 1132 030e B0EE480A 		vmov.f32	s0, s16
 1133              	.LBE407:
 1134              	.LBE406:
 1135              	.LBB411:
 1136              	.LBB395:
  70:../../DaisySP/Source/Synthesis/oscillator.h ****     }
 1137              		.loc 4 70 20 view .LVU365
 1138 0312 85EDF87A 		vstr.32	s14, [r5, #992]
 1139              	.LVL62:
  70:../../DaisySP/Source/Synthesis/oscillator.h ****     }
 1140              		.loc 4 70 20 view .LVU366
 1141              	.LBE395:
 1142              	.LBE411:
 116:vasynth.cpp   **** 
 1143              		.loc 1 116 2 is_stmt 1 view .LVU367
 1144              	.LBB412:
 1145              	.LBI402:
ARM GAS  /var/folders/kw/h2sg8jtn02b91cpsjc1nlpg80000gn/T//cc9L9FMQ.s 			page 33


  76:../../DaisySP/Source/Synthesis/oscillator.h ****     /** Sets the waveform to be synthesized by the Process() function.
 1146              		.loc 4 76 17 view .LVU368
 1147              	.LBB404:
  76:../../DaisySP/Source/Synthesis/oscillator.h ****     /** Sets the waveform to be synthesized by the Process() function.
 1148              		.loc 4 76 41 view .LVU369
 1149              	.LBE404:
 1150              	.LBE412:
 1151              	.LBB413:
 1152              	.LBB408:
  53:../../DaisySP/Source/Synthesis/oscillator.h ****         freq_      = 100.0f;
 1153              		.loc 4 53 27 is_stmt 0 view .LVU370
 1154 0316 88EEA77A 		vdiv.f32	s14, s17, s15
 1155              	.LBE408:
 1156              	.LBE413:
 1157              	.LBB414:
 1158              	.LBB405:
  76:../../DaisySP/Source/Synthesis/oscillator.h ****     /** Sets the waveform to be synthesized by the Process() function.
 1159              		.loc 4 76 46 view .LVU371
 1160 031a C5F8C833 		str	r3, [r5, #968]	@ float
 1161              	.LVL63:
  76:../../DaisySP/Source/Synthesis/oscillator.h ****     /** Sets the waveform to be synthesized by the Process() function.
 1162              		.loc 4 76 46 view .LVU372
 1163              	.LBE405:
 1164              	.LBE414:
 1165              		.loc 1 118 2 is_stmt 1 view .LVU373
 1166              	.LBB415:
 1167              	.LBI406:
  50:../../DaisySP/Source/Synthesis/oscillator.h ****     {
 1168              		.loc 4 50 10 view .LVU374
 1169              	.LBB409:
  52:../../DaisySP/Source/Synthesis/oscillator.h ****         sr_recip_  = 1.0f / sample_rate;
 1170              		.loc 4 52 9 view .LVU375
  52:../../DaisySP/Source/Synthesis/oscillator.h ****         sr_recip_  = 1.0f / sample_rate;
 1171              		.loc 4 52 20 is_stmt 0 view .LVU376
 1172 031e 05F58063 		add	r3, r5, #1024
  58:../../DaisySP/Source/Synthesis/oscillator.h ****         waveform_  = WAVE_SIN;
 1173              		.loc 4 58 34 view .LVU377
 1174 0322 0190     		str	r0, [sp, #4]
  52:../../DaisySP/Source/Synthesis/oscillator.h ****         sr_recip_  = 1.0f / sample_rate;
 1175              		.loc 4 52 20 view .LVU378
 1176 0324 C3ED007A 		vstr.32	s15, [r3]
  53:../../DaisySP/Source/Synthesis/oscillator.h ****         freq_      = 100.0f;
 1177              		.loc 4 53 9 is_stmt 1 view .LVU379
  53:../../DaisySP/Source/Synthesis/oscillator.h ****         freq_      = 100.0f;
 1178              		.loc 4 53 20 is_stmt 0 view .LVU380
 1179 0328 05F20443 		addw	r3, r5, #1028
 1180 032c 83ED007A 		vstr.32	s14, [r3]
  54:../../DaisySP/Source/Synthesis/oscillator.h ****         amp_       = 0.5f;
 1181              		.loc 4 54 9 is_stmt 1 view .LVU381
  57:../../DaisySP/Source/Synthesis/oscillator.h ****         phase_inc_ = CalcPhaseInc(freq_);
 1182              		.loc 4 57 20 is_stmt 0 view .LVU382
 1183 0330 05F58163 		add	r3, r5, #1032
  55:../../DaisySP/Source/Synthesis/oscillator.h ****         pw_        = 0.5f;
 1184              		.loc 4 55 20 view .LVU383
 1185 0334 C5F8F443 		str	r4, [r5, #1012]	@ float
  56:../../DaisySP/Source/Synthesis/oscillator.h ****         phase_     = 0.0f;
 1186              		.loc 4 56 20 view .LVU384
ARM GAS  /var/folders/kw/h2sg8jtn02b91cpsjc1nlpg80000gn/T//cc9L9FMQ.s 			page 34


 1187 0338 C5F8FC43 		str	r4, [r5, #1020]	@ float
  58:../../DaisySP/Source/Synthesis/oscillator.h ****         waveform_  = WAVE_SIN;
 1188              		.loc 4 58 20 view .LVU385
 1189 033c 05F20C44 		addw	r4, r5, #1036
  54:../../DaisySP/Source/Synthesis/oscillator.h ****         amp_       = 0.5f;
 1190              		.loc 4 54 20 view .LVU386
 1191 0340 85EDFE8A 		vstr.32	s16, [r5, #1016]
  55:../../DaisySP/Source/Synthesis/oscillator.h ****         pw_        = 0.5f;
 1192              		.loc 4 55 9 is_stmt 1 view .LVU387
  56:../../DaisySP/Source/Synthesis/oscillator.h ****         phase_     = 0.0f;
 1193              		.loc 4 56 9 view .LVU388
  57:../../DaisySP/Source/Synthesis/oscillator.h ****         phase_inc_ = CalcPhaseInc(freq_);
 1194              		.loc 4 57 9 view .LVU389
  57:../../DaisySP/Source/Synthesis/oscillator.h ****         phase_inc_ = CalcPhaseInc(freq_);
 1195              		.loc 4 57 20 is_stmt 0 view .LVU390
 1196 0344 1F60     		str	r7, [r3]	@ float
  58:../../DaisySP/Source/Synthesis/oscillator.h ****         waveform_  = WAVE_SIN;
 1197              		.loc 4 58 9 is_stmt 1 view .LVU391
  58:../../DaisySP/Source/Synthesis/oscillator.h ****         waveform_  = WAVE_SIN;
 1198              		.loc 4 58 34 is_stmt 0 view .LVU392
 1199 0346 FFF7FEFF 		bl	_ZN7daisysp10Oscillator12CalcPhaseIncEf
 1200              	.LVL64:
  58:../../DaisySP/Source/Synthesis/oscillator.h ****         waveform_  = WAVE_SIN;
 1201              		.loc 4 58 20 view .LVU393
 1202 034a 84ED000A 		vstr.32	s0, [r4]
  59:../../DaisySP/Source/Synthesis/oscillator.h ****         eoc_       = true;
 1203              		.loc 4 59 9 is_stmt 1 view .LVU394
  60:../../DaisySP/Source/Synthesis/oscillator.h ****         eor_       = true;
 1204              		.loc 4 60 9 view .LVU395
  61:../../DaisySP/Source/Synthesis/oscillator.h ****     }
 1205              		.loc 4 61 9 view .LVU396
 1206              	.LBE409:
 1207              	.LBE415:
 119:vasynth.cpp   **** 	vcavcflfo_.SetWaveform(vcavcflfo_waveform_);
 1208              		.loc 1 119 24 is_stmt 0 view .LVU397
 1209 034e 95F86830 		ldrb	r3, [r5, #104]	@ zero_extendqisi2
 120:vasynth.cpp   **** 	vcavcflfo_.SetFreq(vcavcflfo_freq_);
 1210              		.loc 1 120 20 view .LVU398
 1211 0352 95ED1B0A 		vldr.32	s0, [r5, #108]
 1212              	.LBB416:
 1213              	.LBB417:
  81:../../DaisySP/Source/Synthesis/oscillator.h ****     }
 1214              		.loc 4 81 19 view .LVU399
 1215 0356 082B     		cmp	r3, #8
 1216              	.LBE417:
 1217              	.LBE416:
 1218              	.LBB420:
 1219              	.LBB421:
  70:../../DaisySP/Source/Synthesis/oscillator.h ****     }
 1220              		.loc 4 70 34 view .LVU400
 1221 0358 0198     		ldr	r0, [sp, #4]
 1222              	.LBE421:
 1223              	.LBE420:
 1224              	.LBB425:
 1225              	.LBB410:
  61:../../DaisySP/Source/Synthesis/oscillator.h ****     }
 1226              		.loc 4 61 20 view .LVU401
ARM GAS  /var/folders/kw/h2sg8jtn02b91cpsjc1nlpg80000gn/T//cc9L9FMQ.s 			page 35


 1227 035a A5F81864 		strh	r6, [r5, #1048]	@ movhi
 1228              	.LVL65:
  61:../../DaisySP/Source/Synthesis/oscillator.h ****     }
 1229              		.loc 4 61 20 view .LVU402
 1230              	.LBE410:
 1231              	.LBE425:
 119:vasynth.cpp   **** 	vcavcflfo_.SetFreq(vcavcflfo_freq_);
 1232              		.loc 1 119 2 is_stmt 1 view .LVU403
 1233              	.LBB426:
 1234              	.LBI416:
  79:../../DaisySP/Source/Synthesis/oscillator.h ****     {
 1235              		.loc 4 79 17 view .LVU404
 1236              	.LBB418:
  81:../../DaisySP/Source/Synthesis/oscillator.h ****     }
 1237              		.loc 4 81 9 view .LVU405
  81:../../DaisySP/Source/Synthesis/oscillator.h ****     }
 1238              		.loc 4 81 19 is_stmt 0 view .LVU406
 1239 035e 28BF     		it	cs
 1240 0360 0023     		movcs	r3, #0
 1241              	.LVL66:
  81:../../DaisySP/Source/Synthesis/oscillator.h ****     }
 1242              		.loc 4 81 19 view .LVU407
 1243              	.LBE418:
 1244              	.LBE426:
 1245              	.LBB427:
 1246              	.LBB422:
  69:../../DaisySP/Source/Synthesis/oscillator.h ****         phase_inc_ = CalcPhaseInc(f);
 1247              		.loc 4 69 20 view .LVU408
 1248 0362 85EDFE0A 		vstr.32	s0, [r5, #1016]
 1249              	.LBE422:
 1250              	.LBE427:
 1251              	.LBB428:
 1252              	.LBB419:
  81:../../DaisySP/Source/Synthesis/oscillator.h ****     }
 1253              		.loc 4 81 19 view .LVU409
 1254 0366 85F8F033 		strb	r3, [r5, #1008]
 1255              	.LVL67:
  81:../../DaisySP/Source/Synthesis/oscillator.h ****     }
 1256              		.loc 4 81 19 view .LVU410
 1257              	.LBE419:
 1258              	.LBE428:
 1259              		.loc 1 120 2 is_stmt 1 view .LVU411
 1260              	.LBB429:
 1261              	.LBI420:
  67:../../DaisySP/Source/Synthesis/oscillator.h ****     {
 1262              		.loc 4 67 17 view .LVU412
 1263              	.LBB423:
  69:../../DaisySP/Source/Synthesis/oscillator.h ****         phase_inc_ = CalcPhaseInc(f);
 1264              		.loc 4 69 9 view .LVU413
  70:../../DaisySP/Source/Synthesis/oscillator.h ****     }
 1265              		.loc 4 70 9 view .LVU414
  70:../../DaisySP/Source/Synthesis/oscillator.h ****     }
 1266              		.loc 4 70 34 is_stmt 0 view .LVU415
 1267 036a FFF7FEFF 		bl	_ZN7daisysp10Oscillator12CalcPhaseIncEf
 1268              	.LVL68:
  70:../../DaisySP/Source/Synthesis/oscillator.h ****     }
 1269              		.loc 4 70 34 view .LVU416
ARM GAS  /var/folders/kw/h2sg8jtn02b91cpsjc1nlpg80000gn/T//cc9L9FMQ.s 			page 36


 1270              	.LBE423:
 1271              	.LBE429:
 121:vasynth.cpp   **** 	vcavcflfo_.SetAmp(vcavcflfo_amp_);
 122:vasynth.cpp   **** 
 123:vasynth.cpp   ****     // init
 124:vasynth.cpp   ****     osc_next_ = 0;
 1272              		.loc 1 124 15 view .LVU417
 1273 036e 0022     		movs	r2, #0
 1274              	.LBB430:
 1275              	.LBB424:
  70:../../DaisySP/Source/Synthesis/oscillator.h ****     }
 1276              		.loc 4 70 20 view .LVU418
 1277 0370 84ED000A 		vstr.32	s0, [r4]
 1278              	.LVL69:
  70:../../DaisySP/Source/Synthesis/oscillator.h ****     }
 1279              		.loc 4 70 20 view .LVU419
 1280              	.LBE424:
 1281              	.LBE430:
 121:vasynth.cpp   **** 	vcavcflfo_.SetAmp(vcavcflfo_amp_);
 1282              		.loc 1 121 2 is_stmt 1 view .LVU420
 1283              	.LBB431:
 1284              	.LBI431:
  76:../../DaisySP/Source/Synthesis/oscillator.h ****     /** Sets the waveform to be synthesized by the Process() function.
 1285              		.loc 4 76 17 view .LVU421
 1286              	.LBB432:
  76:../../DaisySP/Source/Synthesis/oscillator.h ****     /** Sets the waveform to be synthesized by the Process() function.
 1287              		.loc 4 76 41 view .LVU422
  76:../../DaisySP/Source/Synthesis/oscillator.h ****     /** Sets the waveform to be synthesized by the Process() function.
 1288              		.loc 4 76 46 is_stmt 0 view .LVU423
 1289 0374 2B6F     		ldr	r3, [r5, #112]	@ float
 1290              	.LBE432:
 1291              	.LBE431:
 1292              		.loc 1 124 15 view .LVU424
 1293 0376 85F88A20 		strb	r2, [r5, #138]
 1294              	.LBB434:
 1295              	.LBB433:
  76:../../DaisySP/Source/Synthesis/oscillator.h ****     /** Sets the waveform to be synthesized by the Process() function.
 1296              		.loc 4 76 46 view .LVU425
 1297 037a C5F8F433 		str	r3, [r5, #1012]	@ float
 1298              	.LVL70:
  76:../../DaisySP/Source/Synthesis/oscillator.h ****     /** Sets the waveform to be synthesized by the Process() function.
 1299              		.loc 4 76 46 view .LVU426
 1300              	.LBE433:
 1301              	.LBE434:
 1302              		.loc 1 124 5 is_stmt 1 view .LVU427
 125:vasynth.cpp   **** }
 1303              		.loc 1 125 1 is_stmt 0 view .LVU428
 1304 037e 02B0     		add	sp, sp, #8
 1305              		.cfi_def_cfa_offset 56
 1306              		@ sp needed
 1307 0380 BDEC068B 		vldm	sp!, {d8-d10}
 1308              		.cfi_restore 84
 1309              		.cfi_restore 85
 1310              		.cfi_restore 82
 1311              		.cfi_restore 83
 1312              		.cfi_restore 80
 1313              		.cfi_restore 81
ARM GAS  /var/folders/kw/h2sg8jtn02b91cpsjc1nlpg80000gn/T//cc9L9FMQ.s 			page 37


 1314              		.cfi_def_cfa_offset 32
 1315 0384 BDE8F087 		pop	{r4, r5, r6, r7, r8, r9, r10, pc}
 1316              	.LVL71:
 1317              	.L21:
 1318              		.loc 1 125 1 view .LVU429
 1319              		.align	2
 1320              	.L20:
 1321 0388 0000C842 		.word	1120403456
 1322 038c 00000000 		.word	0
 1323 0390 0000DC43 		.word	1138491392
 1324 0394 0AD723BC 		.word	-1138501878
 1325              		.cfi_endproc
 1326              	.LFE4853:
 1328              		.section	.text._ZN7VASynth11SetWaveformEv,"ax",%progbits
 1329              		.align	1
 1330              		.p2align 2,,3
 1331              		.global	_ZN7VASynth11SetWaveformEv
 1332              		.syntax unified
 1333              		.thumb
 1334              		.thumb_func
 1336              	_ZN7VASynth11SetWaveformEv:
 1337              	.LVL72:
 1338              	.LFB4855:
 126:vasynth.cpp   **** 
 127:vasynth.cpp   **** void VASynth::First(uint8_t patch)
 128:vasynth.cpp   **** {
 129:vasynth.cpp   **** 	sample_rate_ = sysSampleRate;
 130:vasynth.cpp   **** 	SaveToLive(&preset_setting[patch]);
 131:vasynth.cpp   **** }	
 132:vasynth.cpp   **** 
 133:vasynth.cpp   **** void VASynth::SetWaveform()
 134:vasynth.cpp   **** {
 1339              		.loc 1 134 1 is_stmt 1 view -0
 1340              		.cfi_startproc
 1341              		@ args = 0, pretend = 0, frame = 0
 1342              		@ frame_needed = 0, uses_anonymous_args = 0
 1343              		@ link register save eliminated.
 135:vasynth.cpp   **** 	for (uint8_t i = 0; i < VOICES_MAX; i++)
 1344              		.loc 1 135 2 view .LVU431
 1345              	.LBB435:
 1346              		.loc 1 135 24 view .LVU432
 136:vasynth.cpp   **** 	{
 137:vasynth.cpp   **** 		osc_[i].SetWaveform(waveform_);
 1347              		.loc 1 137 22 is_stmt 0 view .LVU433
 1348 0000 0279     		ldrb	r2, [r0, #4]	@ zero_extendqisi2
 1349 0002 00F59A71 		add	r1, r0, #308
 138:vasynth.cpp   **** 		osc2_[i].SetWaveform(osc2_waveform_);
 1350              		.loc 1 138 23 view .LVU434
 1351 0006 037D     		ldrb	r3, [r0, #20]	@ zero_extendqisi2
 1352 0008 072A     		cmp	r2, #7
 1353 000a 88BF     		it	hi
 1354 000c 0022     		movhi	r2, #0
 1355 000e 072B     		cmp	r3, #7
 1356 0010 88BF     		it	hi
 1357 0012 0023     		movhi	r3, #0
 1358              	.LVL73:
 1359              	.L23:
ARM GAS  /var/folders/kw/h2sg8jtn02b91cpsjc1nlpg80000gn/T//cc9L9FMQ.s 			page 38


 137:vasynth.cpp   **** 		osc2_[i].SetWaveform(osc2_waveform_);
 1360              		.loc 1 137 3 is_stmt 1 discriminator 2 view .LVU435
 1361              	.LBB436:
 1362              	.LBI436:
  79:../../DaisySP/Source/Synthesis/oscillator.h ****     {
 1363              		.loc 4 79 17 discriminator 2 view .LVU436
 1364              	.LBB437:
  81:../../DaisySP/Source/Synthesis/oscillator.h ****     }
 1365              		.loc 4 81 9 discriminator 2 view .LVU437
  81:../../DaisySP/Source/Synthesis/oscillator.h ****     }
 1366              		.loc 4 81 19 is_stmt 0 discriminator 2 view .LVU438
 1367 0014 80F80421 		strb	r2, [r0, #260]
 1368              	.LVL74:
  81:../../DaisySP/Source/Synthesis/oscillator.h ****     }
 1369              		.loc 4 81 19 discriminator 2 view .LVU439
 1370              	.LBE437:
 1371              	.LBE436:
 1372              		.loc 1 138 3 is_stmt 1 discriminator 2 view .LVU440
 1373              	.LBB438:
 1374              	.LBI438:
  79:../../DaisySP/Source/Synthesis/oscillator.h ****     {
 1375              		.loc 4 79 17 discriminator 2 view .LVU441
 1376              	.LBB439:
  81:../../DaisySP/Source/Synthesis/oscillator.h ****     }
 1377              		.loc 4 81 9 discriminator 2 view .LVU442
 1378              	.LBE439:
 1379              	.LBE438:
 135:vasynth.cpp   **** 	{
 1380              		.loc 1 135 24 is_stmt 0 discriminator 2 view .LVU443
 1381 0018 2C30     		adds	r0, r0, #44
 1382              	.LVL75:
 1383              	.LBB441:
 1384              	.LBB440:
  81:../../DaisySP/Source/Synthesis/oscillator.h ****     }
 1385              		.loc 4 81 19 discriminator 2 view .LVU444
 1386 001a 80F80C32 		strb	r3, [r0, #524]
 1387              	.LVL76:
  81:../../DaisySP/Source/Synthesis/oscillator.h ****     }
 1388              		.loc 4 81 19 discriminator 2 view .LVU445
 1389              	.LBE440:
 1390              	.LBE441:
 135:vasynth.cpp   **** 	{
 1391              		.loc 1 135 2 is_stmt 1 discriminator 2 view .LVU446
 135:vasynth.cpp   **** 	{
 1392              		.loc 1 135 24 discriminator 2 view .LVU447
 1393 001e 8142     		cmp	r1, r0
 1394 0020 F8D1     		bne	.L23
 1395              	.LBE435:
 139:vasynth.cpp   **** 	}
 140:vasynth.cpp   **** }
 1396              		.loc 1 140 1 is_stmt 0 view .LVU448
 1397 0022 7047     		bx	lr
 1398              		.cfi_endproc
 1399              	.LFE4855:
 1401              		.section	.text._ZN7VASynth5SetEGEv,"ax",%progbits
 1402              		.align	1
 1403              		.p2align 2,,3
ARM GAS  /var/folders/kw/h2sg8jtn02b91cpsjc1nlpg80000gn/T//cc9L9FMQ.s 			page 39


 1404              		.global	_ZN7VASynth5SetEGEv
 1405              		.syntax unified
 1406              		.thumb
 1407              		.thumb_func
 1409              	_ZN7VASynth5SetEGEv:
 1410              	.LVL77:
 1411              	.LFB4856:
 141:vasynth.cpp   **** 
 142:vasynth.cpp   **** void VASynth::SetEG()
 143:vasynth.cpp   **** {
 1412              		.loc 1 143 1 is_stmt 1 view -0
 1413              		.cfi_startproc
 1414              		@ args = 0, pretend = 0, frame = 8
 1415              		@ frame_needed = 0, uses_anonymous_args = 0
 144:vasynth.cpp   **** 	for (uint8_t i = 0; i < VOICES_MAX; i++)
 1416              		.loc 1 144 2 view .LVU450
 1417              	.LBB442:
 1418              		.loc 1 144 24 view .LVU451
 1419              	.LBE442:
 143:vasynth.cpp   **** 	for (uint8_t i = 0; i < VOICES_MAX; i++)
 1420              		.loc 1 143 1 is_stmt 0 view .LVU452
 1421 0000 70B5     		push	{r4, r5, r6, lr}
 1422              		.cfi_def_cfa_offset 16
 1423              		.cfi_offset 4, -16
 1424              		.cfi_offset 5, -12
 1425              		.cfi_offset 6, -8
 1426              		.cfi_offset 14, -4
 1427 0002 0446     		mov	r4, r0
 1428 0004 82B0     		sub	sp, sp, #8
 1429              		.cfi_def_cfa_offset 24
 1430 0006 00F21C45 		addw	r5, r0, #1052
 1431 000a 00F26C56 		addw	r6, r0, #1388
 1432 000e 2EE0     		b	.L28
 1433              	.LVL78:
 1434              	.L36:
 1435              	.LBB455:
 1436              	.LBB443:
 1437              	.LBB444:
  77:../../DaisySP/Source/Control/adsr.h ****         sus_level_ = sus_level;
 1438              		.loc 2 77 60 view .LVU453
 1439 0010 F4EE477A 		vcmp.f32	s15, s14
 1440 0014 F1EE10FA 		vmrs	APSR_nzcv, FPSCR
 1441 0018 77FE277A 		vselgt.f32	s15, s14, s15
 1442              	.LVL79:
 1443              	.L26:
 1444              		.loc 2 78 9 is_stmt 1 view .LVU454
 1445              		.loc 2 78 20 is_stmt 0 view .LVU455
 1446 001c C5ED547A 		vstr.32	s15, [r5, #336]
 1447              	.LVL80:
 1448              		.loc 2 78 20 view .LVU456
 1449              	.LBE444:
 1450              	.LBE443:
 145:vasynth.cpp   **** 	{
 146:vasynth.cpp   **** 		// EG - filter
 147:vasynth.cpp   **** 		eg_f_[i].SetTime(ADSR_SEG_ATTACK, eg_f_attack_);
 148:vasynth.cpp   **** 		eg_f_[i].SetTime(ADSR_SEG_DECAY, eg_f_decay_);
 149:vasynth.cpp   **** 		eg_f_[i].SetTime(ADSR_SEG_RELEASE, eg_f_release_);
ARM GAS  /var/folders/kw/h2sg8jtn02b91cpsjc1nlpg80000gn/T//cc9L9FMQ.s 			page 40


 150:vasynth.cpp   **** 		eg_f_[i].SetSustainLevel(eg_f_sustain_);
 151:vasynth.cpp   **** 
 152:vasynth.cpp   **** 		// EG - amplitude
 153:vasynth.cpp   **** 		eg_a_[i].SetTime(ADSR_SEG_ATTACK, eg_a_attack_);
 1451              		.loc 1 153 3 is_stmt 1 view .LVU457
 1452              		.loc 1 153 19 is_stmt 0 view .LVU458
 1453 0020 2846     		mov	r0, r5
 1454 0022 0121     		movs	r1, #1
 1455 0024 94ED090A 		vldr.32	s0, [r4, #36]
 1456 0028 FFF7FEFF 		bl	_ZN7daisysp4Adsr7SetTimeEif
 1457              	.LVL81:
 154:vasynth.cpp   **** 		eg_a_[i].SetTime(ADSR_SEG_DECAY, eg_a_decay_);
 1458              		.loc 1 154 3 is_stmt 1 view .LVU459
 1459              		.loc 1 154 19 is_stmt 0 view .LVU460
 1460 002c 2846     		mov	r0, r5
 1461 002e 94ED0A0A 		vldr.32	s0, [r4, #40]
 1462 0032 0221     		movs	r1, #2
 1463 0034 FFF7FEFF 		bl	_ZN7daisysp4Adsr7SetTimeEif
 1464              	.LVL82:
 155:vasynth.cpp   **** 		eg_a_[i].SetTime(ADSR_SEG_RELEASE, eg_a_release_);
 1465              		.loc 1 155 3 is_stmt 1 view .LVU461
 1466              		.loc 1 155 19 is_stmt 0 view .LVU462
 1467 0038 2846     		mov	r0, r5
 1468 003a 94ED0C0A 		vldr.32	s0, [r4, #48]
 1469 003e 0421     		movs	r1, #4
 1470 0040 FFF7FEFF 		bl	_ZN7daisysp4Adsr7SetTimeEif
 1471              	.LVL83:
 156:vasynth.cpp   **** 		eg_a_[i].SetSustainLevel(eg_a_sustain_);
 1472              		.loc 1 156 3 is_stmt 1 view .LVU463
 1473              		.loc 1 156 27 is_stmt 0 view .LVU464
 1474 0044 D4ED0B7A 		vldr.32	s15, [r4, #44]
 1475              	.LVL84:
 1476              	.LBB446:
 1477              	.LBI446:
  74:../../DaisySP/Source/Control/adsr.h ****     {
 1478              		.loc 2 74 17 is_stmt 1 view .LVU465
 1479              	.LBB447:
  76:../../DaisySP/Source/Control/adsr.h ****                                        : (sus_level > 1.f) ? 1.f : sus_level;
 1480              		.loc 2 76 9 view .LVU466
  77:../../DaisySP/Source/Control/adsr.h ****         sus_level_ = sus_level;
 1481              		.loc 2 77 60 is_stmt 0 view .LVU467
 1482 0048 B7EE007A 		vmov.f32	s14, #1.0e+0
  76:../../DaisySP/Source/Control/adsr.h ****                                        : (sus_level > 1.f) ? 1.f : sus_level;
 1483              		.loc 2 76 40 view .LVU468
 1484 004c F5EEC07A 		vcmpe.f32	s15, #0
 1485 0050 F1EE10FA 		vmrs	APSR_nzcv, FPSCR
 1486 0054 2BD9     		bls	.L31
  77:../../DaisySP/Source/Control/adsr.h ****         sus_level_ = sus_level;
 1487              		.loc 2 77 60 view .LVU469
 1488 0056 F4EE477A 		vcmp.f32	s15, s14
 1489              		.loc 2 78 20 view .LVU470
 1490 005a 2B46     		mov	r3, r5
 1491 005c 3035     		adds	r5, r5, #48
 1492              	.LVL85:
  77:../../DaisySP/Source/Control/adsr.h ****         sus_level_ = sus_level;
 1493              		.loc 2 77 60 view .LVU471
 1494 005e F1EE10FA 		vmrs	APSR_nzcv, FPSCR
ARM GAS  /var/folders/kw/h2sg8jtn02b91cpsjc1nlpg80000gn/T//cc9L9FMQ.s 			page 41


 1495 0062 77FE277A 		vselgt.f32	s15, s14, s15
 1496              	.LVL86:
 1497              		.loc 2 78 9 is_stmt 1 view .LVU472
 1498              	.LBE447:
 1499              	.LBE446:
 144:vasynth.cpp   **** 	{
 1500              		.loc 1 144 24 is_stmt 0 view .LVU473
 1501 0066 B542     		cmp	r5, r6
 1502              	.LBB451:
 1503              	.LBB448:
 1504              		.loc 2 78 20 view .LVU474
 1505 0068 C3ED007A 		vstr.32	s15, [r3]
 1506              	.LVL87:
 1507              		.loc 2 78 20 view .LVU475
 1508              	.LBE448:
 1509              	.LBE451:
 144:vasynth.cpp   **** 	{
 1510              		.loc 1 144 2 is_stmt 1 view .LVU476
 144:vasynth.cpp   **** 	{
 1511              		.loc 1 144 24 view .LVU477
 1512 006c 27D0     		beq	.L35
 1513              	.L28:
 1514              	.LVL88:
 147:vasynth.cpp   **** 		eg_f_[i].SetTime(ADSR_SEG_DECAY, eg_f_decay_);
 1515              		.loc 1 147 3 discriminator 2 view .LVU478
 1516 006e 05F5A870 		add	r0, r5, #336
 147:vasynth.cpp   **** 		eg_f_[i].SetTime(ADSR_SEG_DECAY, eg_f_decay_);
 1517              		.loc 1 147 19 is_stmt 0 discriminator 2 view .LVU479
 1518 0072 94ED0D0A 		vldr.32	s0, [r4, #52]
 1519 0076 0121     		movs	r1, #1
 1520 0078 0190     		str	r0, [sp, #4]
 1521 007a FFF7FEFF 		bl	_ZN7daisysp4Adsr7SetTimeEif
 1522              	.LVL89:
 148:vasynth.cpp   **** 		eg_f_[i].SetTime(ADSR_SEG_RELEASE, eg_f_release_);
 1523              		.loc 1 148 3 is_stmt 1 discriminator 2 view .LVU480
 148:vasynth.cpp   **** 		eg_f_[i].SetTime(ADSR_SEG_RELEASE, eg_f_release_);
 1524              		.loc 1 148 19 is_stmt 0 discriminator 2 view .LVU481
 1525 007e 94ED0E0A 		vldr.32	s0, [r4, #56]
 1526 0082 0221     		movs	r1, #2
 1527 0084 0198     		ldr	r0, [sp, #4]
 1528 0086 FFF7FEFF 		bl	_ZN7daisysp4Adsr7SetTimeEif
 1529              	.LVL90:
 149:vasynth.cpp   **** 		eg_f_[i].SetSustainLevel(eg_f_sustain_);
 1530              		.loc 1 149 3 is_stmt 1 discriminator 2 view .LVU482
 149:vasynth.cpp   **** 		eg_f_[i].SetSustainLevel(eg_f_sustain_);
 1531              		.loc 1 149 19 is_stmt 0 discriminator 2 view .LVU483
 1532 008a 94ED100A 		vldr.32	s0, [r4, #64]
 1533 008e 0198     		ldr	r0, [sp, #4]
 1534 0090 0421     		movs	r1, #4
 1535 0092 FFF7FEFF 		bl	_ZN7daisysp4Adsr7SetTimeEif
 1536              	.LVL91:
 150:vasynth.cpp   **** 
 1537              		.loc 1 150 3 is_stmt 1 discriminator 2 view .LVU484
 150:vasynth.cpp   **** 
 1538              		.loc 1 150 27 is_stmt 0 discriminator 2 view .LVU485
 1539 0096 D4ED0F7A 		vldr.32	s15, [r4, #60]
 1540              	.LVL92:
ARM GAS  /var/folders/kw/h2sg8jtn02b91cpsjc1nlpg80000gn/T//cc9L9FMQ.s 			page 42


 1541              	.LBB452:
 1542              	.LBI443:
  74:../../DaisySP/Source/Control/adsr.h ****     {
 1543              		.loc 2 74 17 is_stmt 1 discriminator 2 view .LVU486
 1544              	.LBB445:
  76:../../DaisySP/Source/Control/adsr.h ****                                        : (sus_level > 1.f) ? 1.f : sus_level;
 1545              		.loc 2 76 9 discriminator 2 view .LVU487
  77:../../DaisySP/Source/Control/adsr.h ****         sus_level_ = sus_level;
 1546              		.loc 2 77 60 is_stmt 0 discriminator 2 view .LVU488
 1547 009a B7EE007A 		vmov.f32	s14, #1.0e+0
  76:../../DaisySP/Source/Control/adsr.h ****                                        : (sus_level > 1.f) ? 1.f : sus_level;
 1548              		.loc 2 76 40 discriminator 2 view .LVU489
 1549 009e F5EEC07A 		vcmpe.f32	s15, #0
 1550 00a2 F1EE10FA 		vmrs	APSR_nzcv, FPSCR
 1551 00a6 B3D8     		bhi	.L36
  76:../../DaisySP/Source/Control/adsr.h ****                                        : (sus_level > 1.f) ? 1.f : sus_level;
 1552              		.loc 2 76 40 view .LVU490
 1553 00a8 DFED067A 		vldr.32	s15, .L37
 1554              	.LVL93:
  76:../../DaisySP/Source/Control/adsr.h ****                                        : (sus_level > 1.f) ? 1.f : sus_level;
 1555              		.loc 2 76 40 view .LVU491
 1556 00ac B6E7     		b	.L26
 1557              	.LVL94:
 1558              	.L31:
  76:../../DaisySP/Source/Control/adsr.h ****                                        : (sus_level > 1.f) ? 1.f : sus_level;
 1559              		.loc 2 76 40 view .LVU492
 1560              	.LBE445:
 1561              	.LBE452:
 1562              	.LBB453:
 1563              	.LBB449:
 1564              		.loc 2 78 20 view .LVU493
 1565 00ae 2B46     		mov	r3, r5
 1566 00b0 3035     		adds	r5, r5, #48
 1567              	.LVL95:
  76:../../DaisySP/Source/Control/adsr.h ****                                        : (sus_level > 1.f) ? 1.f : sus_level;
 1568              		.loc 2 76 40 view .LVU494
 1569 00b2 DFED047A 		vldr.32	s15, .L37
 1570              	.LVL96:
 1571              		.loc 2 78 9 is_stmt 1 view .LVU495
 1572              	.LBE449:
 1573              	.LBE453:
 144:vasynth.cpp   **** 	{
 1574              		.loc 1 144 24 is_stmt 0 view .LVU496
 1575 00b6 B542     		cmp	r5, r6
 1576              	.LBB454:
 1577              	.LBB450:
 1578              		.loc 2 78 20 view .LVU497
 1579 00b8 C3ED007A 		vstr.32	s15, [r3]
 1580              	.LVL97:
 1581              		.loc 2 78 20 view .LVU498
 1582              	.LBE450:
 1583              	.LBE454:
 144:vasynth.cpp   **** 	{
 1584              		.loc 1 144 2 is_stmt 1 view .LVU499
 144:vasynth.cpp   **** 	{
 1585              		.loc 1 144 24 view .LVU500
 1586 00bc D7D1     		bne	.L28
ARM GAS  /var/folders/kw/h2sg8jtn02b91cpsjc1nlpg80000gn/T//cc9L9FMQ.s 			page 43


 1587              	.L35:
 144:vasynth.cpp   **** 	{
 1588              		.loc 1 144 24 is_stmt 0 view .LVU501
 1589              	.LBE455:
 157:vasynth.cpp   **** 	}
 158:vasynth.cpp   **** }
 1590              		.loc 1 158 1 view .LVU502
 1591 00be 02B0     		add	sp, sp, #8
 1592              		.cfi_def_cfa_offset 16
 1593              		@ sp needed
 1594 00c0 70BD     		pop	{r4, r5, r6, pc}
 1595              	.LVL98:
 1596              	.L38:
 1597              		.loc 1 158 1 view .LVU503
 1598 00c2 00BF     		.align	2
 1599              	.L37:
 1600 00c4 0AD723BC 		.word	-1138501878
 1601              		.cfi_endproc
 1602              	.LFE4856:
 1604              		.section	.text._ZN7VASynth9SetFilterEv,"ax",%progbits
 1605              		.align	1
 1606              		.p2align 2,,3
 1607              		.global	_ZN7VASynth9SetFilterEv
 1608              		.syntax unified
 1609              		.thumb
 1610              		.thumb_func
 1612              	_ZN7VASynth9SetFilterEv:
 1613              	.LVL99:
 1614              	.LFB4857:
 159:vasynth.cpp   **** 
 160:vasynth.cpp   **** void VASynth::SetFilter()
 161:vasynth.cpp   **** {
 1615              		.loc 1 161 1 is_stmt 1 view -0
 1616              		.cfi_startproc
 1617              		@ args = 0, pretend = 0, frame = 0
 1618              		@ frame_needed = 0, uses_anonymous_args = 0
 1619              		@ link register save eliminated.
 162:vasynth.cpp   **** 	for (uint8_t i = 0; i < VOICES_MAX; i++)
 1620              		.loc 1 162 2 view .LVU505
 1621              	.LBB456:
 1622              		.loc 1 162 24 view .LVU506
 163:vasynth.cpp   **** 	{
 164:vasynth.cpp   **** 		flt[i].SetFreq(filter_cutoff_);
 1623              		.loc 1 164 17 is_stmt 0 view .LVU507
 1624 0000 D0F88010 		ldr	r1, [r0, #128]	@ float
 1625 0004 00F5D863 		add	r3, r0, #1728
 165:vasynth.cpp   **** 		flt[i].SetRes(filter_res_);
 1626              		.loc 1 165 16 view .LVU508
 1627 0008 C26F     		ldr	r2, [r0, #124]	@ float
 1628 000a 00F69C00 		addw	r0, r0, #2204
 1629              	.LVL100:
 1630              	.L40:
 164:vasynth.cpp   **** 		flt[i].SetRes(filter_res_);
 1631              		.loc 1 164 3 is_stmt 1 discriminator 2 view .LVU509
 1632              	.LBB457:
 1633              	.LBI457:
  39:../../DaisySP/DaisySP-LGPL/Source/Filters/moogladder.h ****     /** 
ARM GAS  /var/folders/kw/h2sg8jtn02b91cpsjc1nlpg80000gn/T//cc9L9FMQ.s 			page 44


 1634              		.loc 3 39 17 discriminator 2 view .LVU510
 1635              	.LBB458:
  39:../../DaisySP/DaisySP-LGPL/Source/Filters/moogladder.h ****     /** 
 1636              		.loc 3 39 39 discriminator 2 view .LVU511
  39:../../DaisySP/DaisySP-LGPL/Source/Filters/moogladder.h ****     /** 
 1637              		.loc 3 39 45 is_stmt 0 discriminator 2 view .LVU512
 1638 000e 5960     		str	r1, [r3, #4]	@ float
 1639              	.LVL101:
  39:../../DaisySP/DaisySP-LGPL/Source/Filters/moogladder.h ****     /** 
 1640              		.loc 3 39 45 discriminator 2 view .LVU513
 1641              	.LBE458:
 1642              	.LBE457:
 1643              		.loc 1 165 3 is_stmt 1 discriminator 2 view .LVU514
 1644              	.LBB459:
 1645              	.LBI459:
 1646              		.loc 3 43 17 discriminator 2 view .LVU515
 1647              	.LBB460:
 1648              		.loc 3 43 37 discriminator 2 view .LVU516
 1649              		.loc 3 43 42 is_stmt 0 discriminator 2 view .LVU517
 1650 0010 43F8442B 		str	r2, [r3], #68	@ float
 1651              	.LVL102:
 1652              		.loc 3 43 42 discriminator 2 view .LVU518
 1653              	.LBE460:
 1654              	.LBE459:
 162:vasynth.cpp   **** 	{
 1655              		.loc 1 162 2 is_stmt 1 discriminator 2 view .LVU519
 162:vasynth.cpp   **** 	{
 1656              		.loc 1 162 24 discriminator 2 view .LVU520
 1657 0014 8342     		cmp	r3, r0
 1658 0016 FAD1     		bne	.L40
 1659              	.LBE456:
 166:vasynth.cpp   **** 	}
 167:vasynth.cpp   **** }
 1660              		.loc 1 167 1 is_stmt 0 view .LVU521
 1661 0018 7047     		bx	lr
 1662              		.cfi_endproc
 1663              	.LFE4857:
 1665 001a 00BF     		.section	.text._ZN7VASynth6SetLFOEv,"ax",%progbits
 1666              		.align	1
 1667              		.p2align 2,,3
 1668              		.global	_ZN7VASynth6SetLFOEv
 1669              		.syntax unified
 1670              		.thumb
 1671              		.thumb_func
 1673              	_ZN7VASynth6SetLFOEv:
 1674              	.LVL103:
 1675              	.LFB4858:
 168:vasynth.cpp   **** 
 169:vasynth.cpp   **** void VASynth::SetLFO()
 170:vasynth.cpp   **** {
 1676              		.loc 1 170 1 is_stmt 1 view -0
 1677              		.cfi_startproc
 1678              		@ args = 0, pretend = 0, frame = 0
 1679              		@ frame_needed = 0, uses_anonymous_args = 0
 171:vasynth.cpp   **** 	lfo_.SetWaveform(lfo_waveform_);
 1680              		.loc 1 171 2 view .LVU523
 170:vasynth.cpp   **** 	lfo_.SetWaveform(lfo_waveform_);
ARM GAS  /var/folders/kw/h2sg8jtn02b91cpsjc1nlpg80000gn/T//cc9L9FMQ.s 			page 45


 1681              		.loc 1 170 1 is_stmt 0 view .LVU524
 1682 0000 10B5     		push	{r4, lr}
 1683              		.cfi_def_cfa_offset 8
 1684              		.cfi_offset 4, -8
 1685              		.cfi_offset 14, -4
 172:vasynth.cpp   **** 	lfo_.SetFreq(lfo_freq_ * 8.0f);
 1686              		.loc 1 172 14 view .LVU525
 1687 0002 F2EE007A 		vmov.f32	s15, #8.0e+0
 171:vasynth.cpp   **** 	lfo_.SetWaveform(lfo_waveform_);
 1688              		.loc 1 171 18 view .LVU526
 1689 0006 90F84430 		ldrb	r3, [r0, #68]	@ zero_extendqisi2
 1690              		.loc 1 172 14 view .LVU527
 1691 000a 90ED120A 		vldr.32	s0, [r0, #72]
 170:vasynth.cpp   **** 	lfo_.SetWaveform(lfo_waveform_);
 1692              		.loc 1 170 1 view .LVU528
 1693 000e 0446     		mov	r4, r0
 1694              	.LVL104:
 1695              	.LBB461:
 1696              	.LBI461:
  79:../../DaisySP/Source/Synthesis/oscillator.h ****     {
 1697              		.loc 4 79 17 is_stmt 1 view .LVU529
 1698              	.LBB462:
  81:../../DaisySP/Source/Synthesis/oscillator.h ****     }
 1699              		.loc 4 81 9 view .LVU530
  81:../../DaisySP/Source/Synthesis/oscillator.h ****     }
 1700              		.loc 4 81 19 is_stmt 0 view .LVU531
 1701 0010 082B     		cmp	r3, #8
 1702              	.LBE462:
 1703              	.LBE461:
 1704              	.LBB465:
 1705              	.LBB466:
  70:../../DaisySP/Source/Synthesis/oscillator.h ****     }
 1706              		.loc 4 70 34 view .LVU532
 1707 0012 00F55B70 		add	r0, r0, #876
 1708              	.LVL105:
  70:../../DaisySP/Source/Synthesis/oscillator.h ****     }
 1709              		.loc 4 70 34 view .LVU533
 1710              	.LBE466:
 1711              	.LBE465:
 1712              		.loc 1 172 14 view .LVU534
 1713 0016 20EE270A 		vmul.f32	s0, s0, s15
 1714              	.LBB470:
 1715              	.LBB463:
  81:../../DaisySP/Source/Synthesis/oscillator.h ****     }
 1716              		.loc 4 81 19 view .LVU535
 1717 001a 28BF     		it	cs
 1718 001c 0023     		movcs	r3, #0
 1719              	.LVL106:
  81:../../DaisySP/Source/Synthesis/oscillator.h ****     }
 1720              		.loc 4 81 19 view .LVU536
 1721              	.LBE463:
 1722              	.LBE470:
 1723              	.LBB471:
 1724              	.LBB467:
  69:../../DaisySP/Source/Synthesis/oscillator.h ****         phase_inc_ = CalcPhaseInc(f);
 1725              		.loc 4 69 20 view .LVU537
 1726 001e 84EDDD0A 		vstr.32	s0, [r4, #884]
ARM GAS  /var/folders/kw/h2sg8jtn02b91cpsjc1nlpg80000gn/T//cc9L9FMQ.s 			page 46


 1727              	.LBE467:
 1728              	.LBE471:
 1729              	.LBB472:
 1730              	.LBB464:
  81:../../DaisySP/Source/Synthesis/oscillator.h ****     }
 1731              		.loc 4 81 19 view .LVU538
 1732 0022 84F86C33 		strb	r3, [r4, #876]
 1733              	.LVL107:
  81:../../DaisySP/Source/Synthesis/oscillator.h ****     }
 1734              		.loc 4 81 19 view .LVU539
 1735              	.LBE464:
 1736              	.LBE472:
 1737              		.loc 1 172 2 is_stmt 1 view .LVU540
 1738              	.LBB473:
 1739              	.LBI465:
  67:../../DaisySP/Source/Synthesis/oscillator.h ****     {
 1740              		.loc 4 67 17 view .LVU541
 1741              	.LBB468:
  69:../../DaisySP/Source/Synthesis/oscillator.h ****         phase_inc_ = CalcPhaseInc(f);
 1742              		.loc 4 69 9 view .LVU542
  70:../../DaisySP/Source/Synthesis/oscillator.h ****     }
 1743              		.loc 4 70 9 view .LVU543
  70:../../DaisySP/Source/Synthesis/oscillator.h ****     }
 1744              		.loc 4 70 34 is_stmt 0 view .LVU544
 1745 0026 FFF7FEFF 		bl	_ZN7daisysp10Oscillator12CalcPhaseIncEf
 1746              	.LVL108:
  70:../../DaisySP/Source/Synthesis/oscillator.h ****     }
 1747              		.loc 4 70 34 view .LVU545
 1748              	.LBE468:
 1749              	.LBE473:
 1750              	.LBB474:
 1751              	.LBB475:
  76:../../DaisySP/Source/Synthesis/oscillator.h ****     /** Sets the waveform to be synthesized by the Process() function.
 1752              		.loc 4 76 46 view .LVU546
 1753 002a E36C     		ldr	r3, [r4, #76]	@ float
 1754              	.LBE475:
 1755              	.LBE474:
 1756              	.LBB477:
 1757              	.LBB469:
  70:../../DaisySP/Source/Synthesis/oscillator.h ****     }
 1758              		.loc 4 70 20 view .LVU547
 1759 002c 84EDE20A 		vstr.32	s0, [r4, #904]
 1760              	.LVL109:
  70:../../DaisySP/Source/Synthesis/oscillator.h ****     }
 1761              		.loc 4 70 20 view .LVU548
 1762              	.LBE469:
 1763              	.LBE477:
 173:vasynth.cpp   **** 	lfo_.SetAmp(lfo_amp_);
 1764              		.loc 1 173 2 is_stmt 1 view .LVU549
 1765              	.LBB478:
 1766              	.LBI474:
  76:../../DaisySP/Source/Synthesis/oscillator.h ****     /** Sets the waveform to be synthesized by the Process() function.
 1767              		.loc 4 76 17 view .LVU550
 1768              	.LBB476:
  76:../../DaisySP/Source/Synthesis/oscillator.h ****     /** Sets the waveform to be synthesized by the Process() function.
 1769              		.loc 4 76 41 view .LVU551
  76:../../DaisySP/Source/Synthesis/oscillator.h ****     /** Sets the waveform to be synthesized by the Process() function.
ARM GAS  /var/folders/kw/h2sg8jtn02b91cpsjc1nlpg80000gn/T//cc9L9FMQ.s 			page 47


 1770              		.loc 4 76 46 is_stmt 0 view .LVU552
 1771 0030 C4F87033 		str	r3, [r4, #880]	@ float
 1772              	.LVL110:
  76:../../DaisySP/Source/Synthesis/oscillator.h ****     /** Sets the waveform to be synthesized by the Process() function.
 1773              		.loc 4 76 46 view .LVU553
 1774              	.LBE476:
 1775              	.LBE478:
 174:vasynth.cpp   **** }
 1776              		.loc 1 174 1 view .LVU554
 1777 0034 10BD     		pop	{r4, pc}
 1778              		.loc 1 174 1 view .LVU555
 1779              		.cfi_endproc
 1780              	.LFE4858:
 1782 0036 00BF     		.section	.text._ZN7VASynth9SetPWMLFOEv,"ax",%progbits
 1783              		.align	1
 1784              		.p2align 2,,3
 1785              		.global	_ZN7VASynth9SetPWMLFOEv
 1786              		.syntax unified
 1787              		.thumb
 1788              		.thumb_func
 1790              	_ZN7VASynth9SetPWMLFOEv:
 1791              	.LVL111:
 1792              	.LFB4859:
 175:vasynth.cpp   **** 
 176:vasynth.cpp   **** void VASynth::SetPWMLFO()
 177:vasynth.cpp   **** {
 1793              		.loc 1 177 1 is_stmt 1 view -0
 1794              		.cfi_startproc
 1795              		@ args = 0, pretend = 0, frame = 0
 1796              		@ frame_needed = 0, uses_anonymous_args = 0
 178:vasynth.cpp   **** 	pwmlfo_.SetWaveform(pwmlfo_waveform_);
 1797              		.loc 1 178 2 view .LVU557
 177:vasynth.cpp   **** 	pwmlfo_.SetWaveform(pwmlfo_waveform_);
 1798              		.loc 1 177 1 is_stmt 0 view .LVU558
 1799 0000 10B5     		push	{r4, lr}
 1800              		.cfi_def_cfa_offset 8
 1801              		.cfi_offset 4, -8
 1802              		.cfi_offset 14, -4
 1803              		.loc 1 178 21 view .LVU559
 1804 0002 90F85030 		ldrb	r3, [r0, #80]	@ zero_extendqisi2
 177:vasynth.cpp   **** 	pwmlfo_.SetWaveform(pwmlfo_waveform_);
 1805              		.loc 1 177 1 view .LVU560
 1806 0006 0446     		mov	r4, r0
 1807              	.LVL112:
 1808              	.LBB479:
 1809              	.LBI479:
  79:../../DaisySP/Source/Synthesis/oscillator.h ****     {
 1810              		.loc 4 79 17 is_stmt 1 view .LVU561
 1811              	.LBB480:
  81:../../DaisySP/Source/Synthesis/oscillator.h ****     }
 1812              		.loc 4 81 9 view .LVU562
 1813              	.LBE480:
 1814              	.LBE479:
 179:vasynth.cpp   **** 	pwmlfo_.SetFreq(pwmlfo_freq_);
 1815              		.loc 1 179 17 is_stmt 0 view .LVU563
 1816 0008 90ED150A 		vldr.32	s0, [r0, #84]
 1817              	.LBB483:
ARM GAS  /var/folders/kw/h2sg8jtn02b91cpsjc1nlpg80000gn/T//cc9L9FMQ.s 			page 48


 1818              	.LBB484:
  70:../../DaisySP/Source/Synthesis/oscillator.h ****     }
 1819              		.loc 4 70 34 view .LVU564
 1820 000c 00F56670 		add	r0, r0, #920
 1821              	.LVL113:
  70:../../DaisySP/Source/Synthesis/oscillator.h ****     }
 1822              		.loc 4 70 34 view .LVU565
 1823              	.LBE484:
 1824              	.LBE483:
 1825              	.LBB488:
 1826              	.LBB481:
  81:../../DaisySP/Source/Synthesis/oscillator.h ****     }
 1827              		.loc 4 81 19 view .LVU566
 1828 0010 082B     		cmp	r3, #8
 1829              	.LBE481:
 1830              	.LBE488:
 1831              	.LBB489:
 1832              	.LBB485:
  69:../../DaisySP/Source/Synthesis/oscillator.h ****         phase_inc_ = CalcPhaseInc(f);
 1833              		.loc 4 69 20 view .LVU567
 1834 0012 84EDE80A 		vstr.32	s0, [r4, #928]
 1835              	.LBE485:
 1836              	.LBE489:
 1837              	.LBB490:
 1838              	.LBB482:
  81:../../DaisySP/Source/Synthesis/oscillator.h ****     }
 1839              		.loc 4 81 19 view .LVU568
 1840 0016 28BF     		it	cs
 1841 0018 0023     		movcs	r3, #0
 1842              	.LVL114:
  81:../../DaisySP/Source/Synthesis/oscillator.h ****     }
 1843              		.loc 4 81 19 view .LVU569
 1844 001a 84F89833 		strb	r3, [r4, #920]
 1845              	.LVL115:
  81:../../DaisySP/Source/Synthesis/oscillator.h ****     }
 1846              		.loc 4 81 19 view .LVU570
 1847              	.LBE482:
 1848              	.LBE490:
 1849              		.loc 1 179 2 is_stmt 1 view .LVU571
 1850              	.LBB491:
 1851              	.LBI483:
  67:../../DaisySP/Source/Synthesis/oscillator.h ****     {
 1852              		.loc 4 67 17 view .LVU572
 1853              	.LBB486:
  69:../../DaisySP/Source/Synthesis/oscillator.h ****         phase_inc_ = CalcPhaseInc(f);
 1854              		.loc 4 69 9 view .LVU573
  70:../../DaisySP/Source/Synthesis/oscillator.h ****     }
 1855              		.loc 4 70 9 view .LVU574
  70:../../DaisySP/Source/Synthesis/oscillator.h ****     }
 1856              		.loc 4 70 34 is_stmt 0 view .LVU575
 1857 001e FFF7FEFF 		bl	_ZN7daisysp10Oscillator12CalcPhaseIncEf
 1858              	.LVL116:
  70:../../DaisySP/Source/Synthesis/oscillator.h ****     }
 1859              		.loc 4 70 34 view .LVU576
 1860              	.LBE486:
 1861              	.LBE491:
 1862              	.LBB492:
ARM GAS  /var/folders/kw/h2sg8jtn02b91cpsjc1nlpg80000gn/T//cc9L9FMQ.s 			page 49


 1863              	.LBB493:
  76:../../DaisySP/Source/Synthesis/oscillator.h ****     /** Sets the waveform to be synthesized by the Process() function.
 1864              		.loc 4 76 46 view .LVU577
 1865 0022 A36D     		ldr	r3, [r4, #88]	@ float
 1866              	.LBE493:
 1867              	.LBE492:
 1868              	.LBB495:
 1869              	.LBB487:
  70:../../DaisySP/Source/Synthesis/oscillator.h ****     }
 1870              		.loc 4 70 20 view .LVU578
 1871 0024 84EDED0A 		vstr.32	s0, [r4, #948]
 1872              	.LVL117:
  70:../../DaisySP/Source/Synthesis/oscillator.h ****     }
 1873              		.loc 4 70 20 view .LVU579
 1874              	.LBE487:
 1875              	.LBE495:
 180:vasynth.cpp   **** 	pwmlfo_.SetAmp(pwmlfo_amp_);
 1876              		.loc 1 180 2 is_stmt 1 view .LVU580
 1877              	.LBB496:
 1878              	.LBI492:
  76:../../DaisySP/Source/Synthesis/oscillator.h ****     /** Sets the waveform to be synthesized by the Process() function.
 1879              		.loc 4 76 17 view .LVU581
 1880              	.LBB494:
  76:../../DaisySP/Source/Synthesis/oscillator.h ****     /** Sets the waveform to be synthesized by the Process() function.
 1881              		.loc 4 76 41 view .LVU582
  76:../../DaisySP/Source/Synthesis/oscillator.h ****     /** Sets the waveform to be synthesized by the Process() function.
 1882              		.loc 4 76 46 is_stmt 0 view .LVU583
 1883 0028 C4F89C33 		str	r3, [r4, #924]	@ float
 1884              	.LVL118:
  76:../../DaisySP/Source/Synthesis/oscillator.h ****     /** Sets the waveform to be synthesized by the Process() function.
 1885              		.loc 4 76 46 view .LVU584
 1886              	.LBE494:
 1887              	.LBE496:
 181:vasynth.cpp   **** }
 1888              		.loc 1 181 1 view .LVU585
 1889 002c 10BD     		pop	{r4, pc}
 1890              		.loc 1 181 1 view .LVU586
 1891              		.cfi_endproc
 1892              	.LFE4859:
 1894 002e 00BF     		.section	.text._ZN7VASynth10SetPWM2LFOEv,"ax",%progbits
 1895              		.align	1
 1896              		.p2align 2,,3
 1897              		.global	_ZN7VASynth10SetPWM2LFOEv
 1898              		.syntax unified
 1899              		.thumb
 1900              		.thumb_func
 1902              	_ZN7VASynth10SetPWM2LFOEv:
 1903              	.LVL119:
 1904              	.LFB4860:
 182:vasynth.cpp   **** 
 183:vasynth.cpp   **** void VASynth::SetPWM2LFO()
 184:vasynth.cpp   **** {
 1905              		.loc 1 184 1 is_stmt 1 view -0
 1906              		.cfi_startproc
 1907              		@ args = 0, pretend = 0, frame = 0
 1908              		@ frame_needed = 0, uses_anonymous_args = 0
 185:vasynth.cpp   **** 	pwm2lfo_.SetWaveform(pwm2lfo_waveform_);
ARM GAS  /var/folders/kw/h2sg8jtn02b91cpsjc1nlpg80000gn/T//cc9L9FMQ.s 			page 50


 1909              		.loc 1 185 2 view .LVU588
 184:vasynth.cpp   **** 	pwm2lfo_.SetWaveform(pwm2lfo_waveform_);
 1910              		.loc 1 184 1 is_stmt 0 view .LVU589
 1911 0000 10B5     		push	{r4, lr}
 1912              		.cfi_def_cfa_offset 8
 1913              		.cfi_offset 4, -8
 1914              		.cfi_offset 14, -4
 1915              		.loc 1 185 22 view .LVU590
 1916 0002 90F85C30 		ldrb	r3, [r0, #92]	@ zero_extendqisi2
 184:vasynth.cpp   **** 	pwm2lfo_.SetWaveform(pwm2lfo_waveform_);
 1917              		.loc 1 184 1 view .LVU591
 1918 0006 0446     		mov	r4, r0
 1919              	.LVL120:
 1920              	.LBB497:
 1921              	.LBI497:
  79:../../DaisySP/Source/Synthesis/oscillator.h ****     {
 1922              		.loc 4 79 17 is_stmt 1 view .LVU592
 1923              	.LBB498:
  81:../../DaisySP/Source/Synthesis/oscillator.h ****     }
 1924              		.loc 4 81 9 view .LVU593
 1925              	.LBE498:
 1926              	.LBE497:
 186:vasynth.cpp   **** 	pwm2lfo_.SetFreq(pwm2lfo_freq_);
 1927              		.loc 1 186 18 is_stmt 0 view .LVU594
 1928 0008 90ED180A 		vldr.32	s0, [r0, #96]
 1929              	.LBB501:
 1930              	.LBB502:
  70:../../DaisySP/Source/Synthesis/oscillator.h ****     }
 1931              		.loc 4 70 34 view .LVU595
 1932 000c 00F57170 		add	r0, r0, #964
 1933              	.LVL121:
  70:../../DaisySP/Source/Synthesis/oscillator.h ****     }
 1934              		.loc 4 70 34 view .LVU596
 1935              	.LBE502:
 1936              	.LBE501:
 1937              	.LBB506:
 1938              	.LBB499:
  81:../../DaisySP/Source/Synthesis/oscillator.h ****     }
 1939              		.loc 4 81 19 view .LVU597
 1940 0010 082B     		cmp	r3, #8
 1941              	.LBE499:
 1942              	.LBE506:
 1943              	.LBB507:
 1944              	.LBB503:
  69:../../DaisySP/Source/Synthesis/oscillator.h ****         phase_inc_ = CalcPhaseInc(f);
 1945              		.loc 4 69 20 view .LVU598
 1946 0012 84EDF30A 		vstr.32	s0, [r4, #972]
 1947              	.LBE503:
 1948              	.LBE507:
 1949              	.LBB508:
 1950              	.LBB500:
  81:../../DaisySP/Source/Synthesis/oscillator.h ****     }
 1951              		.loc 4 81 19 view .LVU599
 1952 0016 28BF     		it	cs
 1953 0018 0023     		movcs	r3, #0
 1954              	.LVL122:
  81:../../DaisySP/Source/Synthesis/oscillator.h ****     }
ARM GAS  /var/folders/kw/h2sg8jtn02b91cpsjc1nlpg80000gn/T//cc9L9FMQ.s 			page 51


 1955              		.loc 4 81 19 view .LVU600
 1956 001a 84F8C433 		strb	r3, [r4, #964]
 1957              	.LVL123:
  81:../../DaisySP/Source/Synthesis/oscillator.h ****     }
 1958              		.loc 4 81 19 view .LVU601
 1959              	.LBE500:
 1960              	.LBE508:
 1961              		.loc 1 186 2 is_stmt 1 view .LVU602
 1962              	.LBB509:
 1963              	.LBI501:
  67:../../DaisySP/Source/Synthesis/oscillator.h ****     {
 1964              		.loc 4 67 17 view .LVU603
 1965              	.LBB504:
  69:../../DaisySP/Source/Synthesis/oscillator.h ****         phase_inc_ = CalcPhaseInc(f);
 1966              		.loc 4 69 9 view .LVU604
  70:../../DaisySP/Source/Synthesis/oscillator.h ****     }
 1967              		.loc 4 70 9 view .LVU605
  70:../../DaisySP/Source/Synthesis/oscillator.h ****     }
 1968              		.loc 4 70 34 is_stmt 0 view .LVU606
 1969 001e FFF7FEFF 		bl	_ZN7daisysp10Oscillator12CalcPhaseIncEf
 1970              	.LVL124:
  70:../../DaisySP/Source/Synthesis/oscillator.h ****     }
 1971              		.loc 4 70 34 view .LVU607
 1972              	.LBE504:
 1973              	.LBE509:
 1974              	.LBB510:
 1975              	.LBB511:
  76:../../DaisySP/Source/Synthesis/oscillator.h ****     /** Sets the waveform to be synthesized by the Process() function.
 1976              		.loc 4 76 46 view .LVU608
 1977 0022 636E     		ldr	r3, [r4, #100]	@ float
 1978              	.LBE511:
 1979              	.LBE510:
 1980              	.LBB513:
 1981              	.LBB505:
  70:../../DaisySP/Source/Synthesis/oscillator.h ****     }
 1982              		.loc 4 70 20 view .LVU609
 1983 0024 84EDF80A 		vstr.32	s0, [r4, #992]
 1984              	.LVL125:
  70:../../DaisySP/Source/Synthesis/oscillator.h ****     }
 1985              		.loc 4 70 20 view .LVU610
 1986              	.LBE505:
 1987              	.LBE513:
 187:vasynth.cpp   **** 	pwm2lfo_.SetAmp(pwm2lfo_amp_);
 1988              		.loc 1 187 2 is_stmt 1 view .LVU611
 1989              	.LBB514:
 1990              	.LBI510:
  76:../../DaisySP/Source/Synthesis/oscillator.h ****     /** Sets the waveform to be synthesized by the Process() function.
 1991              		.loc 4 76 17 view .LVU612
 1992              	.LBB512:
  76:../../DaisySP/Source/Synthesis/oscillator.h ****     /** Sets the waveform to be synthesized by the Process() function.
 1993              		.loc 4 76 41 view .LVU613
  76:../../DaisySP/Source/Synthesis/oscillator.h ****     /** Sets the waveform to be synthesized by the Process() function.
 1994              		.loc 4 76 46 is_stmt 0 view .LVU614
 1995 0028 C4F8C833 		str	r3, [r4, #968]	@ float
 1996              	.LVL126:
  76:../../DaisySP/Source/Synthesis/oscillator.h ****     /** Sets the waveform to be synthesized by the Process() function.
 1997              		.loc 4 76 46 view .LVU615
ARM GAS  /var/folders/kw/h2sg8jtn02b91cpsjc1nlpg80000gn/T//cc9L9FMQ.s 			page 52


 1998              	.LBE512:
 1999              	.LBE514:
 188:vasynth.cpp   **** }
 2000              		.loc 1 188 1 view .LVU616
 2001 002c 10BD     		pop	{r4, pc}
 2002              		.loc 1 188 1 view .LVU617
 2003              		.cfi_endproc
 2004              	.LFE4860:
 2006 002e 00BF     		.section	.text._ZN7VASynth12SetVCAVCFLFOEv,"ax",%progbits
 2007              		.align	1
 2008              		.p2align 2,,3
 2009              		.global	_ZN7VASynth12SetVCAVCFLFOEv
 2010              		.syntax unified
 2011              		.thumb
 2012              		.thumb_func
 2014              	_ZN7VASynth12SetVCAVCFLFOEv:
 2015              	.LVL127:
 2016              	.LFB4861:
 189:vasynth.cpp   **** 
 190:vasynth.cpp   **** void VASynth::SetVCAVCFLFO()
 191:vasynth.cpp   **** {
 2017              		.loc 1 191 1 is_stmt 1 view -0
 2018              		.cfi_startproc
 2019              		@ args = 0, pretend = 0, frame = 0
 2020              		@ frame_needed = 0, uses_anonymous_args = 0
 192:vasynth.cpp   **** 	vcavcflfo_.SetWaveform(vcavcflfo_waveform_);
 2021              		.loc 1 192 2 view .LVU619
 191:vasynth.cpp   **** 	vcavcflfo_.SetWaveform(vcavcflfo_waveform_);
 2022              		.loc 1 191 1 is_stmt 0 view .LVU620
 2023 0000 10B5     		push	{r4, lr}
 2024              		.cfi_def_cfa_offset 8
 2025              		.cfi_offset 4, -8
 2026              		.cfi_offset 14, -4
 193:vasynth.cpp   **** 	vcavcflfo_.SetFreq(vcavcflfo_freq_ * 8.0f);
 2027              		.loc 1 193 20 view .LVU621
 2028 0002 F2EE007A 		vmov.f32	s15, #8.0e+0
 192:vasynth.cpp   **** 	vcavcflfo_.SetWaveform(vcavcflfo_waveform_);
 2029              		.loc 1 192 24 view .LVU622
 2030 0006 90F86830 		ldrb	r3, [r0, #104]	@ zero_extendqisi2
 2031              		.loc 1 193 20 view .LVU623
 2032 000a 90ED1B0A 		vldr.32	s0, [r0, #108]
 191:vasynth.cpp   **** 	vcavcflfo_.SetWaveform(vcavcflfo_waveform_);
 2033              		.loc 1 191 1 view .LVU624
 2034 000e 0446     		mov	r4, r0
 2035              	.LVL128:
 2036              	.LBB515:
 2037              	.LBI515:
  79:../../DaisySP/Source/Synthesis/oscillator.h ****     {
 2038              		.loc 4 79 17 is_stmt 1 view .LVU625
 2039              	.LBB516:
  81:../../DaisySP/Source/Synthesis/oscillator.h ****     }
 2040              		.loc 4 81 9 view .LVU626
  81:../../DaisySP/Source/Synthesis/oscillator.h ****     }
 2041              		.loc 4 81 19 is_stmt 0 view .LVU627
 2042 0010 082B     		cmp	r3, #8
 2043              	.LBE516:
 2044              	.LBE515:
ARM GAS  /var/folders/kw/h2sg8jtn02b91cpsjc1nlpg80000gn/T//cc9L9FMQ.s 			page 53


 2045              	.LBB519:
 2046              	.LBB520:
  70:../../DaisySP/Source/Synthesis/oscillator.h ****     }
 2047              		.loc 4 70 34 view .LVU628
 2048 0012 00F57C70 		add	r0, r0, #1008
 2049              	.LVL129:
  70:../../DaisySP/Source/Synthesis/oscillator.h ****     }
 2050              		.loc 4 70 34 view .LVU629
 2051              	.LBE520:
 2052              	.LBE519:
 2053              		.loc 1 193 20 view .LVU630
 2054 0016 20EE270A 		vmul.f32	s0, s0, s15
 2055              	.LBB523:
 2056              	.LBB517:
  81:../../DaisySP/Source/Synthesis/oscillator.h ****     }
 2057              		.loc 4 81 19 view .LVU631
 2058 001a 28BF     		it	cs
 2059 001c 0023     		movcs	r3, #0
 2060              	.LVL130:
  81:../../DaisySP/Source/Synthesis/oscillator.h ****     }
 2061              		.loc 4 81 19 view .LVU632
 2062              	.LBE517:
 2063              	.LBE523:
 2064              	.LBB524:
 2065              	.LBB521:
  69:../../DaisySP/Source/Synthesis/oscillator.h ****         phase_inc_ = CalcPhaseInc(f);
 2066              		.loc 4 69 20 view .LVU633
 2067 001e 84EDFE0A 		vstr.32	s0, [r4, #1016]
 2068              	.LBE521:
 2069              	.LBE524:
 2070              	.LBB525:
 2071              	.LBB518:
  81:../../DaisySP/Source/Synthesis/oscillator.h ****     }
 2072              		.loc 4 81 19 view .LVU634
 2073 0022 84F8F033 		strb	r3, [r4, #1008]
 2074              	.LVL131:
  81:../../DaisySP/Source/Synthesis/oscillator.h ****     }
 2075              		.loc 4 81 19 view .LVU635
 2076              	.LBE518:
 2077              	.LBE525:
 2078              		.loc 1 193 2 is_stmt 1 view .LVU636
 2079              	.LBB526:
 2080              	.LBI519:
  67:../../DaisySP/Source/Synthesis/oscillator.h ****     {
 2081              		.loc 4 67 17 view .LVU637
 2082              	.LBB522:
  69:../../DaisySP/Source/Synthesis/oscillator.h ****         phase_inc_ = CalcPhaseInc(f);
 2083              		.loc 4 69 9 view .LVU638
  70:../../DaisySP/Source/Synthesis/oscillator.h ****     }
 2084              		.loc 4 70 9 view .LVU639
  70:../../DaisySP/Source/Synthesis/oscillator.h ****     }
 2085              		.loc 4 70 34 is_stmt 0 view .LVU640
 2086 0026 FFF7FEFF 		bl	_ZN7daisysp10Oscillator12CalcPhaseIncEf
 2087              	.LVL132:
  70:../../DaisySP/Source/Synthesis/oscillator.h ****     }
 2088              		.loc 4 70 20 view .LVU641
 2089 002a 04F20C43 		addw	r3, r4, #1036
ARM GAS  /var/folders/kw/h2sg8jtn02b91cpsjc1nlpg80000gn/T//cc9L9FMQ.s 			page 54


 2090 002e 83ED000A 		vstr.32	s0, [r3]
 2091              	.LVL133:
  70:../../DaisySP/Source/Synthesis/oscillator.h ****     }
 2092              		.loc 4 70 20 view .LVU642
 2093              	.LBE522:
 2094              	.LBE526:
 194:vasynth.cpp   **** 	vcavcflfo_.SetAmp(vcavcflfo_amp_);
 2095              		.loc 1 194 2 is_stmt 1 view .LVU643
 2096              	.LBB527:
 2097              	.LBI527:
  76:../../DaisySP/Source/Synthesis/oscillator.h ****     /** Sets the waveform to be synthesized by the Process() function.
 2098              		.loc 4 76 17 view .LVU644
 2099              	.LBB528:
  76:../../DaisySP/Source/Synthesis/oscillator.h ****     /** Sets the waveform to be synthesized by the Process() function.
 2100              		.loc 4 76 41 view .LVU645
  76:../../DaisySP/Source/Synthesis/oscillator.h ****     /** Sets the waveform to be synthesized by the Process() function.
 2101              		.loc 4 76 46 is_stmt 0 view .LVU646
 2102 0032 236F     		ldr	r3, [r4, #112]	@ float
 2103 0034 C4F8F433 		str	r3, [r4, #1012]	@ float
 2104              	.LVL134:
  76:../../DaisySP/Source/Synthesis/oscillator.h ****     /** Sets the waveform to be synthesized by the Process() function.
 2105              		.loc 4 76 46 view .LVU647
 2106              	.LBE528:
 2107              	.LBE527:
 195:vasynth.cpp   **** }
 2108              		.loc 1 195 1 view .LVU648
 2109 0038 10BD     		pop	{r4, pc}
 2110              		.loc 1 195 1 view .LVU649
 2111              		.cfi_endproc
 2112              	.LFE4861:
 2114 003a 00BF     		.section	.text._ZN7VASynth7ProcessEPfS0_,"ax",%progbits
 2115              		.align	1
 2116              		.p2align 2,,3
 2117              		.global	_ZN7VASynth7ProcessEPfS0_
 2118              		.syntax unified
 2119              		.thumb
 2120              		.thumb_func
 2122              	_ZN7VASynth7ProcessEPfS0_:
 2123              	.LVL135:
 2124              	.LFB4862:
 196:vasynth.cpp   **** 
 197:vasynth.cpp   **** void VASynth::Process(float *out_l, float *out_r)
 198:vasynth.cpp   **** {
 2125              		.loc 1 198 1 is_stmt 1 view -0
 2126              		.cfi_startproc
 2127              		@ args = 0, pretend = 0, frame = 24
 2128              		@ frame_needed = 0, uses_anonymous_args = 0
 199:vasynth.cpp   **** 	float lfo_out;
 2129              		.loc 1 199 2 view .LVU651
 200:vasynth.cpp   **** 	float pwmlfo_out;
 2130              		.loc 1 200 2 view .LVU652
 201:vasynth.cpp   **** 	float pwm2lfo_out;
 2131              		.loc 1 201 2 view .LVU653
 202:vasynth.cpp   **** 	float vcavcflfo_out;
 2132              		.loc 1 202 2 view .LVU654
 203:vasynth.cpp   **** 	float env_a_out;
 2133              		.loc 1 203 2 view .LVU655
ARM GAS  /var/folders/kw/h2sg8jtn02b91cpsjc1nlpg80000gn/T//cc9L9FMQ.s 			page 55


 204:vasynth.cpp   **** 	float env_f_out;
 2134              		.loc 1 204 2 view .LVU656
 205:vasynth.cpp   **** 	float osc_one;
 2135              		.loc 1 205 2 view .LVU657
 206:vasynth.cpp   **** 	float osc_two;
 2136              		.loc 1 206 2 view .LVU658
 207:vasynth.cpp   **** 	float osc_out;
 2137              		.loc 1 207 2 view .LVU659
 208:vasynth.cpp   **** 	float filter_out;
 2138              		.loc 1 208 2 view .LVU660
 209:vasynth.cpp   **** 	float voice_out;
 2139              		.loc 1 209 2 view .LVU661
 210:vasynth.cpp   **** 	float delay_out;
 2140              		.loc 1 210 2 view .LVU662
 211:vasynth.cpp   **** 	float bender;
 2141              		.loc 1 211 2 view .LVU663
 212:vasynth.cpp   **** 	float tuning;
 2142              		.loc 1 212 2 view .LVU664
 213:vasynth.cpp   **** 	float pitchmod;
 2143              		.loc 1 213 2 view .LVU665
 214:vasynth.cpp   **** 	float detune;
 2144              		.loc 1 214 2 view .LVU666
 215:vasynth.cpp   **** 
 216:vasynth.cpp   **** 	bool note_on;
 2145              		.loc 1 216 2 view .LVU667
 217:vasynth.cpp   **** 
 218:vasynth.cpp   **** 	// Process mod, pwm, vca, and vcf lfo's
 219:vasynth.cpp   **** 	lfo_out = lfo_.Process();
 2146              		.loc 1 219 2 view .LVU668
 198:vasynth.cpp   **** 	float lfo_out;
 2147              		.loc 1 198 1 is_stmt 0 view .LVU669
 2148 0000 2DE9F04F 		push	{r4, r5, r6, r7, r8, r9, r10, fp, lr}
 2149              		.cfi_def_cfa_offset 36
 2150              		.cfi_offset 4, -36
 2151              		.cfi_offset 5, -32
 2152              		.cfi_offset 6, -28
 2153              		.cfi_offset 7, -24
 2154              		.cfi_offset 8, -20
 2155              		.cfi_offset 9, -16
 2156              		.cfi_offset 10, -12
 2157              		.cfi_offset 11, -8
 2158              		.cfi_offset 14, -4
 2159 0004 0446     		mov	r4, r0
 2160              		.loc 1 219 24 view .LVU670
 2161 0006 00F55B70 		add	r0, r0, #876
 2162              	.LVL136:
 2163              		.loc 1 219 24 view .LVU671
 2164 000a DFF89CB3 		ldr	fp, .L66+20
 2165 000e 04F18B08 		add	r8, r4, #139
 2166 0012 04F2BC67 		addw	r7, r4, #1724
 2167 0016 04F1940A 		add	r10, r4, #148
 2168 001a 04F58275 		add	r5, r4, #260
 2169 001e 04F26C56 		addw	r6, r4, #1388
 198:vasynth.cpp   **** 	float lfo_out;
 2170              		.loc 1 198 1 view .LVU672
 2171 0022 2DED0A8B 		vpush.64	{d8, d9, d10, d11, d12}
 2172              		.cfi_def_cfa_offset 76
ARM GAS  /var/folders/kw/h2sg8jtn02b91cpsjc1nlpg80000gn/T//cc9L9FMQ.s 			page 56


 2173              		.cfi_offset 80, -76
 2174              		.cfi_offset 81, -72
 2175              		.cfi_offset 82, -68
 2176              		.cfi_offset 83, -64
 2177              		.cfi_offset 84, -60
 2178              		.cfi_offset 85, -56
 2179              		.cfi_offset 86, -52
 2180              		.cfi_offset 87, -48
 2181              		.cfi_offset 88, -44
 2182              		.cfi_offset 89, -40
 2183 0026 87B0     		sub	sp, sp, #28
 2184              		.cfi_def_cfa_offset 104
 220:vasynth.cpp   **** 	pwmlfo_out = pwmlfo_.Process();
 221:vasynth.cpp   **** 	pwm2lfo_out = pwm2lfo_.Process();
 222:vasynth.cpp   **** 	vcavcflfo_out = vcavcflfo_.Process();
 223:vasynth.cpp   **** 	
 224:vasynth.cpp   **** 	filter_out = 0;
 2185              		.loc 1 224 13 view .LVU673
 2186 0028 9FEDDAAA 		vldr.32	s20, .L66
 198:vasynth.cpp   **** 	float lfo_out;
 2187              		.loc 1 198 1 view .LVU674
 2188 002c CDE90412 		strd	r1, r2, [sp, #16]
 219:vasynth.cpp   **** 	pwmlfo_out = pwmlfo_.Process();
 2189              		.loc 1 219 24 view .LVU675
 2190 0030 FFF7FEFF 		bl	_ZN7daisysp10Oscillator7ProcessEv
 2191              	.LVL137:
 220:vasynth.cpp   **** 	pwmlfo_out = pwmlfo_.Process();
 2192              		.loc 1 220 30 view .LVU676
 2193 0034 04F56670 		add	r0, r4, #920
 219:vasynth.cpp   **** 	pwmlfo_out = pwmlfo_.Process();
 2194              		.loc 1 219 24 view .LVU677
 2195 0038 F0EE40AA 		vmov.f32	s21, s0
 2196              	.LVL138:
 220:vasynth.cpp   **** 	pwmlfo_out = pwmlfo_.Process();
 2197              		.loc 1 220 2 is_stmt 1 view .LVU678
 220:vasynth.cpp   **** 	pwmlfo_out = pwmlfo_.Process();
 2198              		.loc 1 220 30 is_stmt 0 view .LVU679
 2199 003c FFF7FEFF 		bl	_ZN7daisysp10Oscillator7ProcessEv
 2200              	.LVL139:
 221:vasynth.cpp   **** 	vcavcflfo_out = vcavcflfo_.Process();
 2201              		.loc 1 221 32 view .LVU680
 2202 0040 04F57170 		add	r0, r4, #964
 220:vasynth.cpp   **** 	pwmlfo_out = pwmlfo_.Process();
 2203              		.loc 1 220 30 view .LVU681
 2204 0044 B0EE409A 		vmov.f32	s18, s0
 2205              	.LVL140:
 221:vasynth.cpp   **** 	vcavcflfo_out = vcavcflfo_.Process();
 2206              		.loc 1 221 2 is_stmt 1 view .LVU682
 221:vasynth.cpp   **** 	vcavcflfo_out = vcavcflfo_.Process();
 2207              		.loc 1 221 32 is_stmt 0 view .LVU683
 2208 0048 FFF7FEFF 		bl	_ZN7daisysp10Oscillator7ProcessEv
 2209              	.LVL141:
 222:vasynth.cpp   **** 	
 2210              		.loc 1 222 36 view .LVU684
 2211 004c 04F57C70 		add	r0, r4, #1008
 221:vasynth.cpp   **** 	vcavcflfo_out = vcavcflfo_.Process();
 2212              		.loc 1 221 32 view .LVU685
ARM GAS  /var/folders/kw/h2sg8jtn02b91cpsjc1nlpg80000gn/T//cc9L9FMQ.s 			page 57


 2213 0050 F0EE408A 		vmov.f32	s17, s0
 2214              	.LVL142:
 222:vasynth.cpp   **** 	
 2215              		.loc 1 222 2 is_stmt 1 view .LVU686
 222:vasynth.cpp   **** 	
 2216              		.loc 1 222 36 is_stmt 0 view .LVU687
 2217 0054 FFF7FEFF 		bl	_ZN7daisysp10Oscillator7ProcessEv
 2218              	.LVL143:
 222:vasynth.cpp   **** 	
 2219              		.loc 1 222 36 view .LVU688
 2220 0058 04F19203 		add	r3, r4, #146
 2221 005c F0EE409A 		vmov.f32	s19, s0
 2222              	.LVL144:
 2223              		.loc 1 224 2 is_stmt 1 view .LVU689
 225:vasynth.cpp   **** 
 226:vasynth.cpp   **** 	for (uint8_t i = 0; i < VOICES_MAX; i++)
 2224              		.loc 1 226 2 view .LVU690
 2225              	.LBB564:
 2226              		.loc 1 226 24 view .LVU691
 2227 0060 0393     		str	r3, [sp, #12]
 2228 0062 23E1     		b	.L61
 2229              	.LVL145:
 2230              	.L65:
 227:vasynth.cpp   **** 	{
 228:vasynth.cpp   **** 		note_on = (note_midi_[i] != 0);
 229:vasynth.cpp   **** 
 230:vasynth.cpp   **** 		// Calculate keyboard follow value for the VCF and ENV on active notes
 231:vasynth.cpp   **** 		if(note_on)
 232:vasynth.cpp   **** 		{
 233:vasynth.cpp   **** 			follow[i] = 1.0f - (float (note_midi_[i])/84.0f);	
 234:vasynth.cpp   **** 		}
 235:vasynth.cpp   **** 
 236:vasynth.cpp   **** 		// Calculate envelope speeds for VCF and VCA based on ENV keyboard follow value
 237:vasynth.cpp   **** 		eg_f_[i].SetTime(ADSR_SEG_ATTACK, eg_f_attack_ * (1.0f - ((env_kbd_follow_ * (1.0f - follow[i])))
 2231              		.loc 1 237 96 is_stmt 0 view .LVU692
 2232 0064 DAED077A 		vldr.32	s15, [r10, #28]
 2233              	.L56:
 2234              		.loc 1 237 3 is_stmt 1 view .LVU693
 2235              		.loc 1 237 86 is_stmt 0 view .LVU694
 2236 0068 B7EE008A 		vmov.f32	s16, #1.0e+0
 2237              		.loc 1 237 58 view .LVU695
 2238 006c D4ED1E6A 		vldr.32	s13, [r4, #120]
 2239              		.loc 1 237 19 view .LVU696
 2240 0070 94ED0D7A 		vldr.32	s14, [r4, #52]
 2241 0074 0121     		movs	r1, #1
 2242 0076 3046     		mov	r0, r6
 2243              		.loc 1 237 86 view .LVU697
 2244 0078 78EE677A 		vsub.f32	s15, s16, s15
 2245              		.loc 1 237 58 view .LVU698
 2246 007c B0EE480A 		vmov.f32	s0, s16
 2247 0080 A6EEE70A 		vfms.f32	s0, s13, s15
 2248              		.loc 1 237 19 view .LVU699
 2249 0084 20EE070A 		vmul.f32	s0, s0, s14
 2250 0088 FFF7FEFF 		bl	_ZN7daisysp4Adsr7SetTimeEif
 2251              	.LVL146:
 238:vasynth.cpp   **** 		eg_f_[i].SetTime(ADSR_SEG_DECAY, eg_f_decay_ * (1.0f - ((env_kbd_follow_ * (1.0f - follow[i])))))
 2252              		.loc 1 238 3 is_stmt 1 view .LVU700
ARM GAS  /var/folders/kw/h2sg8jtn02b91cpsjc1nlpg80000gn/T//cc9L9FMQ.s 			page 58


 2253              		.loc 1 238 84 is_stmt 0 view .LVU701
 2254 008c DAED077A 		vldr.32	s15, [r10, #28]
 2255              		.loc 1 238 56 view .LVU702
 2256 0090 B0EE480A 		vmov.f32	s0, s16
 2257 0094 D4ED1E6A 		vldr.32	s13, [r4, #120]
 2258              		.loc 1 238 84 view .LVU703
 2259 0098 78EE677A 		vsub.f32	s15, s16, s15
 2260              		.loc 1 238 19 view .LVU704
 2261 009c 94ED0E7A 		vldr.32	s14, [r4, #56]
 2262 00a0 0221     		movs	r1, #2
 2263 00a2 3046     		mov	r0, r6
 2264              		.loc 1 238 56 view .LVU705
 2265 00a4 A6EEE70A 		vfms.f32	s0, s13, s15
 2266              		.loc 1 238 19 view .LVU706
 2267 00a8 20EE070A 		vmul.f32	s0, s0, s14
 2268 00ac FFF7FEFF 		bl	_ZN7daisysp4Adsr7SetTimeEif
 2269              	.LVL147:
 239:vasynth.cpp   **** 		eg_f_[i].SetTime(ADSR_SEG_RELEASE, eg_f_release_ * (1.0f - ((env_kbd_follow_ * (1.0f - follow[i])
 2270              		.loc 1 239 3 is_stmt 1 view .LVU707
 2271              		.loc 1 239 88 is_stmt 0 view .LVU708
 2272 00b0 DAED077A 		vldr.32	s15, [r10, #28]
 2273              		.loc 1 239 60 view .LVU709
 2274 00b4 B0EE480A 		vmov.f32	s0, s16
 2275 00b8 D4ED1E6A 		vldr.32	s13, [r4, #120]
 2276              		.loc 1 239 88 view .LVU710
 2277 00bc 78EE677A 		vsub.f32	s15, s16, s15
 2278              		.loc 1 239 19 view .LVU711
 2279 00c0 94ED107A 		vldr.32	s14, [r4, #64]
 2280 00c4 0421     		movs	r1, #4
 2281 00c6 3046     		mov	r0, r6
 2282              		.loc 1 239 60 view .LVU712
 2283 00c8 A6EEE70A 		vfms.f32	s0, s13, s15
 2284              		.loc 1 239 19 view .LVU713
 2285 00cc 20EE070A 		vmul.f32	s0, s0, s14
 2286 00d0 FFF7FEFF 		bl	_ZN7daisysp4Adsr7SetTimeEif
 2287              	.LVL148:
 240:vasynth.cpp   **** 		eg_a_[i].SetTime(ADSR_SEG_ATTACK, eg_a_attack_ * (1.0f - ((env_kbd_follow_ * (1.0f - follow[i])))
 2288              		.loc 1 240 3 is_stmt 1 view .LVU714
 2289              		.loc 1 240 86 is_stmt 0 view .LVU715
 2290 00d4 DAED077A 		vldr.32	s15, [r10, #28]
 2291              		.loc 1 240 58 view .LVU716
 2292 00d8 B0EE480A 		vmov.f32	s0, s16
 2293 00dc D4ED1E6A 		vldr.32	s13, [r4, #120]
 2294              		.loc 1 240 86 view .LVU717
 2295 00e0 78EE677A 		vsub.f32	s15, s16, s15
 2296              		.loc 1 240 19 view .LVU718
 2297 00e4 94ED097A 		vldr.32	s14, [r4, #36]
 2298 00e8 A6F5A870 		sub	r0, r6, #336
 2299 00ec 0121     		movs	r1, #1
 2300              		.loc 1 240 58 view .LVU719
 2301 00ee A6EEE70A 		vfms.f32	s0, s13, s15
 2302              		.loc 1 240 19 view .LVU720
 2303 00f2 CDE9010A 		strd	r0, r10, [sp, #4]
 2304 00f6 20EE070A 		vmul.f32	s0, s0, s14
 2305 00fa FFF7FEFF 		bl	_ZN7daisysp4Adsr7SetTimeEif
 2306              	.LVL149:
 241:vasynth.cpp   **** 		eg_a_[i].SetTime(ADSR_SEG_DECAY, eg_a_decay_ * (1.0f - ((env_kbd_follow_ * (1.0f - follow[i])))))
ARM GAS  /var/folders/kw/h2sg8jtn02b91cpsjc1nlpg80000gn/T//cc9L9FMQ.s 			page 59


 2307              		.loc 1 241 3 is_stmt 1 view .LVU721
 2308              		.loc 1 241 84 is_stmt 0 view .LVU722
 2309 00fe DAED077A 		vldr.32	s15, [r10, #28]
 2310              		.loc 1 241 56 view .LVU723
 2311 0102 B0EE480A 		vmov.f32	s0, s16
 2312 0106 D4ED1E6A 		vldr.32	s13, [r4, #120]
 2313              		.loc 1 241 84 view .LVU724
 2314 010a 78EE677A 		vsub.f32	s15, s16, s15
 2315              		.loc 1 241 19 view .LVU725
 2316 010e 94ED0A7A 		vldr.32	s14, [r4, #40]
 2317 0112 0221     		movs	r1, #2
 2318 0114 0198     		ldr	r0, [sp, #4]
 2319              		.loc 1 241 56 view .LVU726
 2320 0116 A6EEE70A 		vfms.f32	s0, s13, s15
 2321              		.loc 1 241 19 view .LVU727
 2322 011a 20EE070A 		vmul.f32	s0, s0, s14
 2323 011e FFF7FEFF 		bl	_ZN7daisysp4Adsr7SetTimeEif
 2324              	.LVL150:
 242:vasynth.cpp   **** 		eg_a_[i].SetTime(ADSR_SEG_RELEASE, eg_a_release_ * (1.0f - ((env_kbd_follow_ * (1.0f - follow[i])
 2325              		.loc 1 242 3 is_stmt 1 view .LVU728
 2326              		.loc 1 242 88 is_stmt 0 view .LVU729
 2327 0122 DAED077A 		vldr.32	s15, [r10, #28]
 2328              		.loc 1 242 60 view .LVU730
 2329 0126 B0EE480A 		vmov.f32	s0, s16
 2330 012a D4ED1E6A 		vldr.32	s13, [r4, #120]
 2331              		.loc 1 242 88 view .LVU731
 2332 012e 78EE677A 		vsub.f32	s15, s16, s15
 2333              		.loc 1 242 19 view .LVU732
 2334 0132 94ED0C7A 		vldr.32	s14, [r4, #48]
 2335 0136 0421     		movs	r1, #4
 2336 0138 0198     		ldr	r0, [sp, #4]
 2337              		.loc 1 242 60 view .LVU733
 2338 013a A6EEE70A 		vfms.f32	s0, s13, s15
 2339              		.loc 1 242 19 view .LVU734
 2340 013e 20EE070A 		vmul.f32	s0, s0, s14
 2341 0142 FFF7FEFF 		bl	_ZN7daisysp4Adsr7SetTimeEif
 2342              	.LVL151:
 243:vasynth.cpp   **** 		
 244:vasynth.cpp   **** 		// EG - AMP
 245:vasynth.cpp   **** 		env_a_out = eg_a_[i].Process(note_on);
 2343              		.loc 1 245 3 is_stmt 1 view .LVU735
 2344              		.loc 1 245 31 is_stmt 0 view .LVU736
 2345 0146 4946     		mov	r1, r9
 2346 0148 0198     		ldr	r0, [sp, #4]
 2347 014a FFF7FEFF 		bl	_ZN7daisysp4Adsr7ProcessEb
 2348              	.LVL152:
 246:vasynth.cpp   **** 
 247:vasynth.cpp   **** 		if(vel_select_ >= 2)
 2349              		.loc 1 247 3 is_stmt 1 view .LVU737
 2350 014e 94F88810 		ldrb	r1, [r4, #136]	@ zero_extendqisi2
 2351 0152 029A     		ldr	r2, [sp, #8]
 2352 0154 0129     		cmp	r1, #1
 2353 0156 40F2D780 		bls	.L57
 248:vasynth.cpp   **** 		{
 249:vasynth.cpp   **** 			// Enable velocity control of the VCA on osc
 250:vasynth.cpp   **** 			osc_[i].SetAmp(env_a_out * velocity[i] * (1.0f + vcavcflfo_out));
 2354              		.loc 1 250 4 view .LVU738
ARM GAS  /var/folders/kw/h2sg8jtn02b91cpsjc1nlpg80000gn/T//cc9L9FMQ.s 			page 60


 2355              		.loc 1 250 29 is_stmt 0 view .LVU739
 2356 015a DAED0E7A 		vldr.32	s15, [r10, #56]
 2357              		.loc 1 250 51 view .LVU740
 2358 015e 39EE888A 		vadd.f32	s16, s19, s16
 2359              		.loc 1 250 29 view .LVU741
 2360 0162 20EE270A 		vmul.f32	s0, s0, s15
 2361              	.LVL153:
 2362              		.loc 1 250 18 view .LVU742
 2363 0166 20EE080A 		vmul.f32	s0, s0, s16
 2364              	.LVL154:
 2365              	.LBB565:
 2366              	.LBI565:
  76:../../DaisySP/Source/Synthesis/oscillator.h ****     /** Sets the waveform to be synthesized by the Process() function.
 2367              		.loc 4 76 17 is_stmt 1 view .LVU743
 2368              	.LBB566:
  76:../../DaisySP/Source/Synthesis/oscillator.h ****     /** Sets the waveform to be synthesized by the Process() function.
 2369              		.loc 4 76 41 view .LVU744
  76:../../DaisySP/Source/Synthesis/oscillator.h ****     /** Sets the waveform to be synthesized by the Process() function.
 2370              		.loc 4 76 46 is_stmt 0 view .LVU745
 2371 016a 85ED010A 		vstr.32	s0, [r5, #4]
 2372              	.LVL155:
  76:../../DaisySP/Source/Synthesis/oscillator.h ****     /** Sets the waveform to be synthesized by the Process() function.
 2373              		.loc 4 76 46 view .LVU746
 2374              	.LBE566:
 2375              	.LBE565:
 251:vasynth.cpp   **** 		}
 252:vasynth.cpp   **** 		else
 253:vasynth.cpp   **** 		{
 254:vasynth.cpp   **** 			// Disable velocity control of the VCA on osc
 255:vasynth.cpp   **** 			osc_[i].SetAmp(env_a_out * (1.0f + vcavcflfo_out));
 256:vasynth.cpp   **** 		}
 257:vasynth.cpp   **** 
 258:vasynth.cpp   **** 		if(vel_select_ >= 2)
 2376              		.loc 1 258 3 is_stmt 1 view .LVU747
 259:vasynth.cpp   **** 		{
 260:vasynth.cpp   **** 			// Enable velocity control of the VCA on osc2
 261:vasynth.cpp   **** 			osc2_[i].SetAmp(env_a_out * velocity[i] * (1.0f + vcavcflfo_out));
 2377              		.loc 1 261 4 view .LVU748
 2378              	.LBB567:
 2379              	.LBI567:
  76:../../DaisySP/Source/Synthesis/oscillator.h ****     /** Sets the waveform to be synthesized by the Process() function.
 2380              		.loc 4 76 17 view .LVU749
 2381              	.LBB568:
  76:../../DaisySP/Source/Synthesis/oscillator.h ****     /** Sets the waveform to be synthesized by the Process() function.
 2382              		.loc 4 76 41 view .LVU750
  76:../../DaisySP/Source/Synthesis/oscillator.h ****     /** Sets the waveform to be synthesized by the Process() function.
 2383              		.loc 4 76 46 is_stmt 0 view .LVU751
 2384 016e 85ED4E0A 		vstr.32	s0, [r5, #312]
 2385              	.LVL156:
 2386              	.L58:
  76:../../DaisySP/Source/Synthesis/oscillator.h ****     /** Sets the waveform to be synthesized by the Process() function.
 2387              		.loc 4 76 46 view .LVU752
 2388              	.LBE568:
 2389              	.LBE567:
 262:vasynth.cpp   **** 		}
 263:vasynth.cpp   **** 		else
 264:vasynth.cpp   **** 		{
ARM GAS  /var/folders/kw/h2sg8jtn02b91cpsjc1nlpg80000gn/T//cc9L9FMQ.s 			page 61


 265:vasynth.cpp   **** 			// Disable velocity control of the VCA on osc2
 266:vasynth.cpp   **** 			osc2_[i].SetAmp(env_a_out * (1.0f + vcavcflfo_out));
 267:vasynth.cpp   **** 		}
 268:vasynth.cpp   **** 
 269:vasynth.cpp   **** 		// Set osc + osc2 frequencies with pitch bend, mod wheel, master tuning, and osc2 detune
 270:vasynth.cpp   **** 		tuning = bender_offset[i] * master_tune;
 2390              		.loc 1 270 3 is_stmt 1 view .LVU753
 271:vasynth.cpp   **** 		bender = bender_offset[i] * pitch_bend;
 2391              		.loc 1 271 10 is_stmt 0 view .LVU754
 2392 0172 894B     		ldr	r3, .L66+4
 2393              	.LBB569:
 2394              	.LBB570:
  70:../../DaisySP/Source/Synthesis/oscillator.h ****     }
 2395              		.loc 4 70 34 view .LVU755
 2396 0174 2846     		mov	r0, r5
 2397              	.LBE570:
 2398              	.LBE569:
 270:vasynth.cpp   **** 		bender = bender_offset[i] * pitch_bend;
 2399              		.loc 1 270 27 view .LVU756
 2400 0176 DAED157A 		vldr.32	s15, [r10, #84]
 2401              	.LBB572:
 2402              	.LBB573:
 2403              	.LBB574:
 2404              	.LBB575:
 2405              	.LBB576:
  55:../../DaisySP/Source/Utility/dsp.h **** #else
 2406              		.loc 5 55 5 view .LVU757
 2407 017a B7EE00BA 		vmov.f32	s22, #1.0e+0
 2408              	.LBE576:
 2409              	.LBE575:
 2410              	.LBE574:
 2411              	.LBE573:
 2412              	.LBE572:
 2413              		.loc 1 271 10 view .LVU758
 2414 017e 93ED008A 		vldr.32	s16, [r3]
 272:vasynth.cpp   **** 		pitchmod = bender_offset[i] * lfo_out;
 273:vasynth.cpp   **** 		detune = bender_offset[i] * osc2_detune_;
 274:vasynth.cpp   **** 		osc_[i].SetFreq((note_freq_[i] + detune_ + bender + tuning + pitchmod));
 2415              		.loc 1 274 34 view .LVU759
 2416 0182 92ED000A 		vldr.32	s0, [r2]
 272:vasynth.cpp   **** 		pitchmod = bender_offset[i] * lfo_out;
 2417              		.loc 1 272 12 view .LVU760
 2418 0186 67EEAACA 		vmul.f32	s25, s15, s21
 2419              		.loc 1 274 34 view .LVU761
 2420 018a 94ED037A 		vldr.32	s14, [r4, #12]
 271:vasynth.cpp   **** 		pitchmod = bender_offset[i] * lfo_out;
 2421              		.loc 1 271 10 view .LVU762
 2422 018e 27EE888A 		vmul.f32	s16, s15, s16
 270:vasynth.cpp   **** 		bender = bender_offset[i] * pitch_bend;
 2423              		.loc 1 270 10 view .LVU763
 2424 0192 9BED00CA 		vldr.32	s24, [fp]
 2425              		.loc 1 274 34 view .LVU764
 2426 0196 30EE070A 		vadd.f32	s0, s0, s14
 273:vasynth.cpp   **** 		osc_[i].SetFreq((note_freq_[i] + detune_ + bender + tuning + pitchmod));
 2427              		.loc 1 273 10 view .LVU765
 2428 019a D4ED06BA 		vldr.32	s23, [r4, #24]
 270:vasynth.cpp   **** 		bender = bender_offset[i] * pitch_bend;
ARM GAS  /var/folders/kw/h2sg8jtn02b91cpsjc1nlpg80000gn/T//cc9L9FMQ.s 			page 62


 2429              		.loc 1 270 10 view .LVU766
 2430 019e 27EE8CCA 		vmul.f32	s24, s15, s24
 2431              	.LVL157:
 271:vasynth.cpp   **** 		pitchmod = bender_offset[i] * lfo_out;
 2432              		.loc 1 271 3 is_stmt 1 view .LVU767
 272:vasynth.cpp   **** 		detune = bender_offset[i] * osc2_detune_;
 2433              		.loc 1 272 3 view .LVU768
 273:vasynth.cpp   **** 		osc_[i].SetFreq((note_freq_[i] + detune_ + bender + tuning + pitchmod));
 2434              		.loc 1 273 3 view .LVU769
 273:vasynth.cpp   **** 		osc_[i].SetFreq((note_freq_[i] + detune_ + bender + tuning + pitchmod));
 2435              		.loc 1 273 10 is_stmt 0 view .LVU770
 2436 01a2 67EEABBA 		vmul.f32	s23, s15, s23
 2437              	.LVL158:
 2438              		.loc 1 274 3 is_stmt 1 view .LVU771
 2439              		.loc 1 274 44 is_stmt 0 view .LVU772
 2440 01a6 30EE080A 		vadd.f32	s0, s0, s16
 2441              		.loc 1 274 53 view .LVU773
 2442 01aa 30EE0C0A 		vadd.f32	s0, s0, s24
 2443              		.loc 1 274 18 view .LVU774
 2444 01ae 30EE2C0A 		vadd.f32	s0, s0, s25
 2445              	.LVL159:
 2446              	.LBB593:
 2447              	.LBI569:
  67:../../DaisySP/Source/Synthesis/oscillator.h ****     {
 2448              		.loc 4 67 17 is_stmt 1 view .LVU775
 2449              	.LBB571:
  69:../../DaisySP/Source/Synthesis/oscillator.h ****         phase_inc_ = CalcPhaseInc(f);
 2450              		.loc 4 69 9 view .LVU776
  69:../../DaisySP/Source/Synthesis/oscillator.h ****         phase_inc_ = CalcPhaseInc(f);
 2451              		.loc 4 69 20 is_stmt 0 view .LVU777
 2452 01b2 85ED020A 		vstr.32	s0, [r5, #8]
  70:../../DaisySP/Source/Synthesis/oscillator.h ****     }
 2453              		.loc 4 70 9 is_stmt 1 view .LVU778
  70:../../DaisySP/Source/Synthesis/oscillator.h ****     }
 2454              		.loc 4 70 34 is_stmt 0 view .LVU779
 2455 01b6 FFF7FEFF 		bl	_ZN7daisysp10Oscillator12CalcPhaseIncEf
 2456              	.LVL160:
  70:../../DaisySP/Source/Synthesis/oscillator.h ****     }
 2457              		.loc 4 70 20 view .LVU780
 2458 01ba 85ED070A 		vstr.32	s0, [r5, #28]
 2459              	.LVL161:
  70:../../DaisySP/Source/Synthesis/oscillator.h ****     }
 2460              		.loc 4 70 20 view .LVU781
 2461              	.LBE571:
 2462              	.LBE593:
 275:vasynth.cpp   **** 		osc2_[i].SetFreq((((note_freq_[i] * osc2_transpose_) + (bender * osc2_transpose_) + (tuning * osc
 2463              		.loc 1 275 3 is_stmt 1 view .LVU782
 2464              		.loc 1 275 39 is_stmt 0 view .LVU783
 2465 01be D4ED077A 		vldr.32	s15, [r4, #28]
 2466 01c2 05F59A72 		add	r2, r5, #308
 2467              		.loc 1 275 56 view .LVU784
 2468 01c6 BAEC017A 		vldmia.32	r10!, {s14}
 2469              		.loc 1 275 66 view .LVU785
 2470 01ca 27EE888A 		vmul.f32	s16, s15, s16
 2471              	.LVL162:
 2472              	.LBB594:
 2473              	.LBB595:
ARM GAS  /var/folders/kw/h2sg8jtn02b91cpsjc1nlpg80000gn/T//cc9L9FMQ.s 			page 63


  70:../../DaisySP/Source/Synthesis/oscillator.h ****     }
 2474              		.loc 4 70 34 view .LVU786
 2475 01ce 1046     		mov	r0, r2
 2476 01d0 0192     		str	r2, [sp, #4]
 2477              	.LBE595:
 2478              	.LBE594:
 2479              		.loc 1 275 56 view .LVU787
 2480 01d2 A7EE278A 		vfma.f32	s16, s14, s15
 2481              		.loc 1 275 85 view .LVU788
 2482 01d6 A7EE8C8A 		vfma.f32	s16, s15, s24
 2483              		.loc 1 275 115 view .LVU789
 2484 01da A7EEAC8A 		vfma.f32	s16, s15, s25
 2485              		.loc 1 275 19 view .LVU790
 2486 01de A7EEAB8A 		vfma.f32	s16, s15, s23
 2487              	.LBB598:
 2488              	.LBB596:
  70:../../DaisySP/Source/Synthesis/oscillator.h ****     }
 2489              		.loc 4 70 34 view .LVU791
 2490 01e2 B0EE480A 		vmov.f32	s0, s16
 2491              	.LVL163:
  70:../../DaisySP/Source/Synthesis/oscillator.h ****     }
 2492              		.loc 4 70 34 view .LVU792
 2493              	.LBE596:
 2494              	.LBI594:
  67:../../DaisySP/Source/Synthesis/oscillator.h ****     {
 2495              		.loc 4 67 17 is_stmt 1 view .LVU793
 2496              	.LBB597:
  69:../../DaisySP/Source/Synthesis/oscillator.h ****         phase_inc_ = CalcPhaseInc(f);
 2497              		.loc 4 69 9 view .LVU794
  70:../../DaisySP/Source/Synthesis/oscillator.h ****     }
 2498              		.loc 4 70 9 view .LVU795
  69:../../DaisySP/Source/Synthesis/oscillator.h ****         phase_inc_ = CalcPhaseInc(f);
 2499              		.loc 4 69 20 is_stmt 0 view .LVU796
 2500 01e6 85ED4F8A 		vstr.32	s16, [r5, #316]
  70:../../DaisySP/Source/Synthesis/oscillator.h ****     }
 2501              		.loc 4 70 34 view .LVU797
 2502 01ea FFF7FEFF 		bl	_ZN7daisysp10Oscillator12CalcPhaseIncEf
 2503              	.LVL164:
  70:../../DaisySP/Source/Synthesis/oscillator.h ****     }
 2504              		.loc 4 70 20 view .LVU798
 2505 01ee 85ED540A 		vstr.32	s0, [r5, #336]
 2506              	.LVL165:
  70:../../DaisySP/Source/Synthesis/oscillator.h ****     }
 2507              		.loc 4 70 20 view .LVU799
 2508              	.LBE597:
 2509              	.LBE598:
 276:vasynth.cpp   **** 
 277:vasynth.cpp   **** 		// Set the pw, process both oscillators, then mix them
 278:vasynth.cpp   **** 		osc_[i].SetPw(osc_pw_ + pwmlfo_out + pwm2lfo_out);
 2510              		.loc 1 278 3 is_stmt 1 view .LVU800
 2511              	.LBB599:
 2512              	.LBI572:
 2513              		.loc 4 85 17 view .LVU801
 2514              	.LBB589:
 2515              		.loc 4 85 41 view .LVU802
 2516              	.LBB585:
 2517              	.LBI574:
ARM GAS  /var/folders/kw/h2sg8jtn02b91cpsjc1nlpg80000gn/T//cc9L9FMQ.s 			page 64


  64:../../DaisySP/Source/Utility/dsp.h **** {
 2518              		.loc 5 64 14 view .LVU803
 2519              	.LBE585:
 2520              	.LBE589:
 2521              	.LBE599:
 2522              	.LBE564:
 2523              		.loc 5 66 5 view .LVU804
 2524              	.LBB626:
 2525              	.LBB600:
 2526              	.LBB590:
 2527              	.LBB586:
 2528              	.LBB578:
 2529              	.LBI578:
  40:../../DaisySP/Source/Utility/dsp.h **** {
 2530              		.loc 5 40 14 view .LVU805
 2531              	.LBB579:
  42:../../DaisySP/Source/Utility/dsp.h **** #ifdef __arm__
 2532              		.loc 5 42 5 view .LVU806
  44:../../DaisySP/Source/Utility/dsp.h **** #else
 2533              		.loc 5 44 5 view .LVU807
 2534              	.LBE579:
 2535              	.LBE578:
 2536              	.LBE586:
 2537              	.LBE590:
 2538              	.LBE600:
 2539              		.loc 1 278 25 is_stmt 0 view .LVU808
 2540 01f2 94ED047A 		vldr.32	s14, [r4, #16]
 279:vasynth.cpp   **** 		osc2_[i].SetPw(osc2_pw_ + pwmlfo_out + pwm2lfo_out);
 280:vasynth.cpp   **** 
 281:vasynth.cpp   **** 		osc_one = osc_[i].Process();
 2541              		.loc 1 281 28 view .LVU809
 2542 01f6 2846     		mov	r0, r5
 2543              	.LBB601:
 2544              	.LBB591:
 2545              	.LBB587:
 2546              	.LBB582:
 2547              	.LBB580:
  44:../../DaisySP/Source/Utility/dsp.h **** #else
 2548              		.loc 5 44 5 view .LVU810
 2549 01f8 DFED666A 		vldr.32	s13, .L66
 2550              	.LBE580:
 2551              	.LBE582:
 2552              	.LBE587:
 2553              	.LBE591:
 2554              	.LBE601:
 278:vasynth.cpp   **** 		osc2_[i].SetPw(osc2_pw_ + pwmlfo_out + pwm2lfo_out);
 2555              		.loc 1 278 25 view .LVU811
 2556 01fc 39EE077A 		vadd.f32	s14, s18, s14
 278:vasynth.cpp   **** 		osc2_[i].SetPw(osc2_pw_ + pwmlfo_out + pwm2lfo_out);
 2557              		.loc 1 278 16 view .LVU812
 2558 0200 37EE287A 		vadd.f32	s14, s14, s17
 2559              	.LVL166:
 2560              	.LBB602:
 2561              	.LBB592:
 2562              	.LBB588:
 2563              	.LBB583:
 2564              	.LBB581:
ARM GAS  /var/folders/kw/h2sg8jtn02b91cpsjc1nlpg80000gn/T//cc9L9FMQ.s 			page 65


  44:../../DaisySP/Source/Utility/dsp.h **** #else
 2565              		.loc 5 44 5 view .LVU813
 2566              		.syntax unified
 2567              	@ 44 "../../DaisySP/Source/Utility/dsp.h" 1
 2568 0204 87FE267A 		vmaxnm.f32 s14, s14, s13
 2569              	@ 0 "" 2
 2570              	.LVL167:
  48:../../DaisySP/Source/Utility/dsp.h **** }
 2571              		.loc 5 48 5 is_stmt 1 view .LVU814
  48:../../DaisySP/Source/Utility/dsp.h **** }
 2572              		.loc 5 48 5 is_stmt 0 view .LVU815
 2573              		.thumb
 2574              		.syntax unified
 2575              	.LBE581:
 2576              	.LBE583:
 2577              	.LBB584:
 2578              	.LBI575:
  51:../../DaisySP/Source/Utility/dsp.h **** {
 2579              		.loc 5 51 14 is_stmt 1 view .LVU816
 2580              	.LBB577:
  53:../../DaisySP/Source/Utility/dsp.h **** #ifdef __arm__
 2581              		.loc 5 53 5 view .LVU817
  55:../../DaisySP/Source/Utility/dsp.h **** #else
 2582              		.loc 5 55 5 view .LVU818
 2583              		.syntax unified
 2584              	@ 55 "../../DaisySP/Source/Utility/dsp.h" 1
 2585 0208 87FE4B7A 		vminnm.f32 s14, s14, s22
 2586              	@ 0 "" 2
 2587              	.LVL168:
  59:../../DaisySP/Source/Utility/dsp.h **** }
 2588              		.loc 5 59 5 view .LVU819
  59:../../DaisySP/Source/Utility/dsp.h **** }
 2589              		.loc 5 59 5 is_stmt 0 view .LVU820
 2590              		.thumb
 2591              		.syntax unified
 2592              	.LBE577:
 2593              	.LBE584:
 2594              	.LBE588:
 2595              		.loc 4 85 45 view .LVU821
 2596 020c 85ED037A 		vstr.32	s14, [r5, #12]
 2597              	.LVL169:
 2598              		.loc 4 85 45 view .LVU822
 2599              	.LBE592:
 2600              	.LBE602:
 279:vasynth.cpp   **** 
 2601              		.loc 1 279 3 is_stmt 1 view .LVU823
 2602              	.LBB603:
 2603              	.LBI603:
 2604              		.loc 4 85 17 view .LVU824
 2605              	.LBB604:
 2606              		.loc 4 85 41 view .LVU825
 2607              	.LBB605:
 2608              	.LBI605:
  64:../../DaisySP/Source/Utility/dsp.h **** {
 2609              		.loc 5 64 14 view .LVU826
 2610              	.LBE605:
 2611              	.LBE604:
ARM GAS  /var/folders/kw/h2sg8jtn02b91cpsjc1nlpg80000gn/T//cc9L9FMQ.s 			page 66


 2612              	.LBE603:
 2613              	.LBE626:
 2614              		.loc 5 66 5 view .LVU827
 2615              	.LBB627:
 2616              	.LBB616:
 2617              	.LBB614:
 2618              	.LBB612:
 2619              	.LBB606:
 2620              	.LBI606:
  40:../../DaisySP/Source/Utility/dsp.h **** {
 2621              		.loc 5 40 14 view .LVU828
 2622              	.LBB607:
  42:../../DaisySP/Source/Utility/dsp.h **** #ifdef __arm__
 2623              		.loc 5 42 5 view .LVU829
  44:../../DaisySP/Source/Utility/dsp.h **** #else
 2624              		.loc 5 44 5 view .LVU830
 2625              	.LBE607:
 2626              	.LBE606:
 2627              	.LBE612:
 2628              	.LBE614:
 2629              	.LBE616:
 279:vasynth.cpp   **** 
 2630              		.loc 1 279 27 is_stmt 0 view .LVU831
 2631 0210 D4ED087A 		vldr.32	s15, [r4, #32]
 2632 0214 79EE277A 		vadd.f32	s15, s18, s15
 279:vasynth.cpp   **** 
 2633              		.loc 1 279 17 view .LVU832
 2634 0218 77EEA87A 		vadd.f32	s15, s15, s17
 2635              	.LVL170:
 2636              	.LBB617:
 2637              	.LBB615:
 2638              	.LBB613:
 2639              	.LBB609:
 2640              	.LBB608:
  44:../../DaisySP/Source/Utility/dsp.h **** #else
 2641              		.loc 5 44 5 view .LVU833
 2642              		.syntax unified
 2643              	@ 44 "../../DaisySP/Source/Utility/dsp.h" 1
 2644 021c C7FEA67A 		vmaxnm.f32 s15, s15, s13
 2645              	@ 0 "" 2
 2646              	.LVL171:
  48:../../DaisySP/Source/Utility/dsp.h **** }
 2647              		.loc 5 48 5 is_stmt 1 view .LVU834
  48:../../DaisySP/Source/Utility/dsp.h **** }
 2648              		.loc 5 48 5 is_stmt 0 view .LVU835
 2649              		.thumb
 2650              		.syntax unified
 2651              	.LBE608:
 2652              	.LBE609:
 2653              	.LBB610:
 2654              	.LBI610:
  51:../../DaisySP/Source/Utility/dsp.h **** {
 2655              		.loc 5 51 14 is_stmt 1 view .LVU836
 2656              	.LBB611:
  53:../../DaisySP/Source/Utility/dsp.h **** #ifdef __arm__
 2657              		.loc 5 53 5 view .LVU837
  55:../../DaisySP/Source/Utility/dsp.h **** #else
ARM GAS  /var/folders/kw/h2sg8jtn02b91cpsjc1nlpg80000gn/T//cc9L9FMQ.s 			page 67


 2658              		.loc 5 55 5 view .LVU838
 2659              		.syntax unified
 2660              	@ 55 "../../DaisySP/Source/Utility/dsp.h" 1
 2661 0220 C7FECB7A 		vminnm.f32 s15, s15, s22
 2662              	@ 0 "" 2
 2663              	.LVL172:
  59:../../DaisySP/Source/Utility/dsp.h **** }
 2664              		.loc 5 59 5 view .LVU839
  59:../../DaisySP/Source/Utility/dsp.h **** }
 2665              		.loc 5 59 5 is_stmt 0 view .LVU840
 2666              		.thumb
 2667              		.syntax unified
 2668              	.LBE611:
 2669              	.LBE610:
 2670              	.LBE613:
 2671              		.loc 4 85 45 view .LVU841
 2672 0224 C5ED507A 		vstr.32	s15, [r5, #320]
 2673              	.LVL173:
 2674              		.loc 4 85 45 view .LVU842
 2675              	.LBE615:
 2676              	.LBE617:
 2677              		.loc 1 281 3 is_stmt 1 view .LVU843
 2678              		.loc 1 281 28 is_stmt 0 view .LVU844
 2679 0228 FFF7FEFF 		bl	_ZN7daisysp10Oscillator7ProcessEv
 2680              	.LVL174:
 282:vasynth.cpp   **** 		osc_two = osc2_[i].Process();
 2681              		.loc 1 282 29 view .LVU845
 2682 022c 019A     		ldr	r2, [sp, #4]
 281:vasynth.cpp   **** 		osc_two = osc2_[i].Process();
 2683              		.loc 1 281 28 view .LVU846
 2684 022e F0EE40BA 		vmov.f32	s23, s0
 2685              	.LVL175:
 2686              		.loc 1 282 3 is_stmt 1 view .LVU847
 2687              		.loc 1 282 29 is_stmt 0 view .LVU848
 2688 0232 1046     		mov	r0, r2
 2689 0234 FFF7FEFF 		bl	_ZN7daisysp10Oscillator7ProcessEv
 2690              	.LVL176:
 283:vasynth.cpp   **** 
 284:vasynth.cpp   **** 		osc_out = (osc_one * (osc_mix_)) + ((osc_two * (1.0f - osc_mix_)));
 2691              		.loc 1 284 3 is_stmt 1 view .LVU849
 2692              		.loc 1 284 25 is_stmt 0 view .LVU850
 2693 0238 94ED027A 		vldr.32	s14, [r4, #8]
 285:vasynth.cpp   **** 
 286:vasynth.cpp   **** 		// filter		
 287:vasynth.cpp   **** 		env_f_out = eg_f_[i].Process(note_on);
 2694              		.loc 1 287 31 view .LVU851
 2695 023c 4946     		mov	r1, r9
 2696 023e 3046     		mov	r0, r6
 284:vasynth.cpp   **** 
 2697              		.loc 1 284 56 view .LVU852
 2698 0240 7BEE477A 		vsub.f32	s15, s22, s14
 284:vasynth.cpp   **** 
 2699              		.loc 1 284 48 view .LVU853
 2700 0244 27EE808A 		vmul.f32	s16, s15, s0
 284:vasynth.cpp   **** 
 2701              		.loc 1 284 11 view .LVU854
 2702 0248 A7EE2B8A 		vfma.f32	s16, s14, s23
ARM GAS  /var/folders/kw/h2sg8jtn02b91cpsjc1nlpg80000gn/T//cc9L9FMQ.s 			page 68


 2703              	.LVL177:
 2704              		.loc 1 287 3 is_stmt 1 view .LVU855
 2705              		.loc 1 287 31 is_stmt 0 view .LVU856
 2706 024c FFF7FEFF 		bl	_ZN7daisysp4Adsr7ProcessEb
 2707              	.LVL178:
 288:vasynth.cpp   **** 
 289:vasynth.cpp   **** 		if(vel_select_ == 1 || vel_select_ == 3)
 2708              		.loc 1 289 3 is_stmt 1 view .LVU857
 2709              		.loc 1 289 23 is_stmt 0 view .LVU858
 2710 0250 94F88820 		ldrb	r2, [r4, #136]	@ zero_extendqisi2
 2711              		.loc 1 289 3 view .LVU859
 2712 0254 02F0FD02 		and	r2, r2, #253
 2713 0258 012A     		cmp	r2, #1
 2714 025a 40D1     		bne	.L59
 290:vasynth.cpp   **** 		{
 291:vasynth.cpp   **** 			// Enable velocity control of the VCF summed with vcflfo and vcf_kbd_follow
 292:vasynth.cpp   **** 			flt[i].SetFreq(filter_cutoff_ * (env_f_out * velocity[i] * eg_f_amount_) * (1.0f + vcavcflfo_out
 2715              		.loc 1 292 4 is_stmt 1 view .LVU860
 2716              		.loc 1 292 47 is_stmt 0 view .LVU861
 2717 025c 9AED0D7A 		vldr.32	s14, [r10, #52]
 2718              		.loc 1 292 61 view .LVU862
 2719 0260 D4ED217A 		vldr.32	s15, [r4, #132]
 2720              		.loc 1 292 47 view .LVU863
 2721 0264 20EE070A 		vmul.f32	s0, s0, s14
 2722              	.LVL179:
 2723              		.loc 1 292 34 view .LVU864
 2724 0268 D4ED206A 		vldr.32	s13, [r4, #128]
 2725              		.loc 1 292 110 view .LVU865
 2726 026c D4ED1D5A 		vldr.32	s11, [r4, #116]
 2727              		.loc 1 292 85 view .LVU866
 2728 0270 39EE8B7A 		vadd.f32	s14, s19, s22
 2729              		.loc 1 292 110 view .LVU867
 2730 0274 9AED066A 		vldr.32	s12, [r10, #24]
 2731              		.loc 1 292 61 view .LVU868
 2732 0278 60EE277A 		vmul.f32	s15, s0, s15
 2733              		.loc 1 292 110 view .LVU869
 2734 027c A5EEC6BA 		vfms.f32	s22, s11, s12
 2735              		.loc 1 292 34 view .LVU870
 2736 0280 67EEA67A 		vmul.f32	s15, s15, s13
 2737              		.loc 1 292 77 view .LVU871
 2738 0284 67EE877A 		vmul.f32	s15, s15, s14
 2739              		.loc 1 292 18 view .LVU872
 2740 0288 67EE8B7A 		vmul.f32	s15, s15, s22
 2741              	.LVL180:
 2742              	.LBB618:
 2743              	.LBI618:
  39:../../DaisySP/DaisySP-LGPL/Source/Filters/moogladder.h ****     /** 
 2744              		.loc 3 39 17 is_stmt 1 view .LVU873
 2745              	.LBB619:
  39:../../DaisySP/DaisySP-LGPL/Source/Filters/moogladder.h ****     /** 
 2746              		.loc 3 39 39 view .LVU874
 2747              	.L60:
  39:../../DaisySP/DaisySP-LGPL/Source/Filters/moogladder.h ****     /** 
 2748              		.loc 3 39 39 is_stmt 0 view .LVU875
 2749              	.LBE619:
 2750              	.LBE618:
 293:vasynth.cpp   **** 		}
ARM GAS  /var/folders/kw/h2sg8jtn02b91cpsjc1nlpg80000gn/T//cc9L9FMQ.s 			page 69


 294:vasynth.cpp   **** 		else
 295:vasynth.cpp   **** 		{
 296:vasynth.cpp   **** 			// Disable velocity control of the VCF summed with vcflfo and vcf_kbd_follow
 297:vasynth.cpp   **** 			flt[i].SetFreq(filter_cutoff_ * (env_f_out * eg_f_amount_) * (1.0f + vcavcflfo_out) * (1.0f - ((
 298:vasynth.cpp   **** 		}	
 299:vasynth.cpp   **** 		
 300:vasynth.cpp   **** 		filter_out += flt[i].Process(osc_out);
 2751              		.loc 1 300 31 discriminator 2 view .LVU876
 2752 028c 3846     		mov	r0, r7
 2753 028e C7ED027A 		vstr.32	s15, [r7, #8]
 2754              		.loc 1 300 3 is_stmt 1 discriminator 2 view .LVU877
 2755              		.loc 1 300 31 is_stmt 0 discriminator 2 view .LVU878
 2756 0292 B0EE480A 		vmov.f32	s0, s16
 226:vasynth.cpp   **** 	{
 2757              		.loc 1 226 24 discriminator 2 view .LVU879
 2758 0296 2C35     		adds	r5, r5, #44
 2759              		.loc 1 300 31 discriminator 2 view .LVU880
 2760 0298 FFF7FEFF 		bl	_ZN7daisysp10MoogLadder7ProcessEf
 2761              	.LVL181:
 226:vasynth.cpp   **** 	{
 2762              		.loc 1 226 24 discriminator 2 view .LVU881
 2763 029c 039B     		ldr	r3, [sp, #12]
 2764              		.loc 1 300 14 discriminator 2 view .LVU882
 2765 029e 3AEE00AA 		vadd.f32	s20, s20, s0
 2766              	.LVL182:
 226:vasynth.cpp   **** 	{
 2767              		.loc 1 226 2 is_stmt 1 discriminator 2 view .LVU883
 226:vasynth.cpp   **** 	{
 2768              		.loc 1 226 24 discriminator 2 view .LVU884
 2769 02a2 4437     		adds	r7, r7, #68
 2770 02a4 9845     		cmp	r8, r3
 2771 02a6 06F13006 		add	r6, r6, #48
 2772 02aa 36D0     		beq	.L64
 2773              	.LVL183:
 2774              	.L61:
 228:vasynth.cpp   **** 
 2775              		.loc 1 228 3 view .LVU885
 228:vasynth.cpp   **** 
 2776              		.loc 1 228 26 is_stmt 0 view .LVU886
 2777 02ac 18F8012B 		ldrb	r2, [r8], #1	@ zero_extendqisi2
 228:vasynth.cpp   **** 
 2778              		.loc 1 228 11 view .LVU887
 2779 02b0 002A     		cmp	r2, #0
 2780 02b2 14BF     		ite	ne
 2781 02b4 4FF00109 		movne	r9, #1
 2782 02b8 4FF00009 		moveq	r9, #0
 2783              	.LVL184:
 231:vasynth.cpp   **** 		{
 2784              		.loc 1 231 3 is_stmt 1 view .LVU888
 2785 02bc 3FF4D2AE 		beq	.L65
 233:vasynth.cpp   **** 		}
 2786              		.loc 1 233 4 view .LVU889
 233:vasynth.cpp   **** 		}
 2787              		.loc 1 233 24 is_stmt 0 view .LVU890
 2788 02c0 07EE902A 		vmov	s15, r2	@ int
 233:vasynth.cpp   **** 		}
 2789              		.loc 1 233 45 view .LVU891
ARM GAS  /var/folders/kw/h2sg8jtn02b91cpsjc1nlpg80000gn/T//cc9L9FMQ.s 			page 70


 2790 02c4 9FED356A 		vldr.32	s12, .L66+8
 233:vasynth.cpp   **** 		}
 2791              		.loc 1 233 24 view .LVU892
 2792 02c8 B8EE677A 		vcvt.f32.u32	s14, s15
 233:vasynth.cpp   **** 		}
 2793              		.loc 1 233 21 view .LVU893
 2794 02cc F7EE007A 		vmov.f32	s15, #1.0e+0
 233:vasynth.cpp   **** 		}
 2795              		.loc 1 233 45 view .LVU894
 2796 02d0 C7EE066A 		vdiv.f32	s13, s14, s12
 233:vasynth.cpp   **** 		}
 2797              		.loc 1 233 21 view .LVU895
 2798 02d4 77EEE67A 		vsub.f32	s15, s15, s13
 233:vasynth.cpp   **** 		}
 2799              		.loc 1 233 14 view .LVU896
 2800 02d8 CAED077A 		vstr.32	s15, [r10, #28]
 2801 02dc C4E6     		b	.L56
 2802              	.LVL185:
 2803              	.L59:
 297:vasynth.cpp   **** 		}	
 2804              		.loc 1 297 4 is_stmt 1 view .LVU897
 297:vasynth.cpp   **** 		}	
 2805              		.loc 1 297 47 is_stmt 0 view .LVU898
 2806 02de 94ED217A 		vldr.32	s14, [r4, #132]
 297:vasynth.cpp   **** 		}	
 2807              		.loc 1 297 34 view .LVU899
 2808 02e2 D4ED207A 		vldr.32	s15, [r4, #128]
 297:vasynth.cpp   **** 		}	
 2809              		.loc 1 297 47 view .LVU900
 2810 02e6 20EE070A 		vmul.f32	s0, s0, s14
 2811              	.LVL186:
 297:vasynth.cpp   **** 		}	
 2812              		.loc 1 297 96 view .LVU901
 2813 02ea 94ED1D6A 		vldr.32	s12, [r4, #116]
 2814 02ee DAED066A 		vldr.32	s13, [r10, #24]
 297:vasynth.cpp   **** 		}	
 2815              		.loc 1 297 71 view .LVU902
 2816 02f2 39EE8B7A 		vadd.f32	s14, s19, s22
 297:vasynth.cpp   **** 		}	
 2817              		.loc 1 297 34 view .LVU903
 2818 02f6 60EE277A 		vmul.f32	s15, s0, s15
 297:vasynth.cpp   **** 		}	
 2819              		.loc 1 297 96 view .LVU904
 2820 02fa A6EE66BA 		vfms.f32	s22, s12, s13
 297:vasynth.cpp   **** 		}	
 2821              		.loc 1 297 63 view .LVU905
 2822 02fe 67EE877A 		vmul.f32	s15, s15, s14
 297:vasynth.cpp   **** 		}	
 2823              		.loc 1 297 18 view .LVU906
 2824 0302 67EE8B7A 		vmul.f32	s15, s15, s22
 2825              	.LVL187:
 2826              	.LBB620:
 2827              	.LBI620:
  39:../../DaisySP/DaisySP-LGPL/Source/Filters/moogladder.h ****     /** 
 2828              		.loc 3 39 17 is_stmt 1 view .LVU907
 2829              	.LBB621:
  39:../../DaisySP/DaisySP-LGPL/Source/Filters/moogladder.h ****     /** 
ARM GAS  /var/folders/kw/h2sg8jtn02b91cpsjc1nlpg80000gn/T//cc9L9FMQ.s 			page 71


 2830              		.loc 3 39 39 view .LVU908
  39:../../DaisySP/DaisySP-LGPL/Source/Filters/moogladder.h ****     /** 
 2831              		.loc 3 39 53 is_stmt 0 view .LVU909
 2832 0306 C1E7     		b	.L60
 2833              	.LVL188:
 2834              	.L57:
  39:../../DaisySP/DaisySP-LGPL/Source/Filters/moogladder.h ****     /** 
 2835              		.loc 3 39 53 view .LVU910
 2836              	.LBE621:
 2837              	.LBE620:
 255:vasynth.cpp   **** 		}
 2838              		.loc 1 255 4 is_stmt 1 view .LVU911
 255:vasynth.cpp   **** 		}
 2839              		.loc 1 255 37 is_stmt 0 view .LVU912
 2840 0308 79EE887A 		vadd.f32	s15, s19, s16
 255:vasynth.cpp   **** 		}
 2841              		.loc 1 255 18 view .LVU913
 2842 030c 27EE808A 		vmul.f32	s16, s15, s0
 2843              	.LVL189:
 2844              	.LBB622:
 2845              	.LBI622:
  76:../../DaisySP/Source/Synthesis/oscillator.h ****     /** Sets the waveform to be synthesized by the Process() function.
 2846              		.loc 4 76 17 is_stmt 1 view .LVU914
 2847              	.LBB623:
  76:../../DaisySP/Source/Synthesis/oscillator.h ****     /** Sets the waveform to be synthesized by the Process() function.
 2848              		.loc 4 76 41 view .LVU915
  76:../../DaisySP/Source/Synthesis/oscillator.h ****     /** Sets the waveform to be synthesized by the Process() function.
 2849              		.loc 4 76 46 is_stmt 0 view .LVU916
 2850 0310 85ED018A 		vstr.32	s16, [r5, #4]
 2851              	.LVL190:
  76:../../DaisySP/Source/Synthesis/oscillator.h ****     /** Sets the waveform to be synthesized by the Process() function.
 2852              		.loc 4 76 46 view .LVU917
 2853              	.LBE623:
 2854              	.LBE622:
 258:vasynth.cpp   **** 		{
 2855              		.loc 1 258 3 is_stmt 1 view .LVU918
 266:vasynth.cpp   **** 		}
 2856              		.loc 1 266 4 view .LVU919
 2857              	.LBB624:
 2858              	.LBI624:
  76:../../DaisySP/Source/Synthesis/oscillator.h ****     /** Sets the waveform to be synthesized by the Process() function.
 2859              		.loc 4 76 17 view .LVU920
 2860              	.LBB625:
  76:../../DaisySP/Source/Synthesis/oscillator.h ****     /** Sets the waveform to be synthesized by the Process() function.
 2861              		.loc 4 76 41 view .LVU921
  76:../../DaisySP/Source/Synthesis/oscillator.h ****     /** Sets the waveform to be synthesized by the Process() function.
 2862              		.loc 4 76 46 is_stmt 0 view .LVU922
 2863 0314 85ED4E8A 		vstr.32	s16, [r5, #312]
  76:../../DaisySP/Source/Synthesis/oscillator.h ****     /** Sets the waveform to be synthesized by the Process() function.
 2864              		.loc 4 76 51 view .LVU923
 2865 0318 2BE7     		b	.L58
 2866              	.LVL191:
 2867              	.L64:
  76:../../DaisySP/Source/Synthesis/oscillator.h ****     /** Sets the waveform to be synthesized by the Process() function.
 2868              		.loc 4 76 51 view .LVU924
 2869              	.LBE625:
 2870              	.LBE624:
ARM GAS  /var/folders/kw/h2sg8jtn02b91cpsjc1nlpg80000gn/T//cc9L9FMQ.s 			page 72


 2871              	.LBE627:
 301:vasynth.cpp   **** 	}
 302:vasynth.cpp   **** 
 303:vasynth.cpp   **** 	filter_out /= VOICES_MAX;
 2872              		.loc 1 303 2 is_stmt 1 view .LVU925
 2873              	.LBB628:
 2874              	.LBB629:
 2875              		.file 6 "../../DaisySP/Source/Utility/delayline.h"
   1:../../DaisySP/Source/Utility/delayline.h **** /*
   2:../../DaisySP/Source/Utility/delayline.h **** Copyright (c) 2020 Electrosmith, Corp
   3:../../DaisySP/Source/Utility/delayline.h **** 
   4:../../DaisySP/Source/Utility/delayline.h **** Use of this source code is governed by an MIT-style
   5:../../DaisySP/Source/Utility/delayline.h **** license that can be found in the LICENSE file or at
   6:../../DaisySP/Source/Utility/delayline.h **** https://opensource.org/licenses/MIT.
   7:../../DaisySP/Source/Utility/delayline.h **** */
   8:../../DaisySP/Source/Utility/delayline.h **** 
   9:../../DaisySP/Source/Utility/delayline.h **** #pragma once
  10:../../DaisySP/Source/Utility/delayline.h **** #ifndef DSY_DELAY_H
  11:../../DaisySP/Source/Utility/delayline.h **** #define DSY_DELAY_H
  12:../../DaisySP/Source/Utility/delayline.h **** #include <stdlib.h>
  13:../../DaisySP/Source/Utility/delayline.h **** #include <stdint.h>
  14:../../DaisySP/Source/Utility/delayline.h **** namespace daisysp
  15:../../DaisySP/Source/Utility/delayline.h **** {
  16:../../DaisySP/Source/Utility/delayline.h **** /** Simple Delay line.
  17:../../DaisySP/Source/Utility/delayline.h **** November 2019
  18:../../DaisySP/Source/Utility/delayline.h **** 
  19:../../DaisySP/Source/Utility/delayline.h **** Converted to Template December 2019
  20:../../DaisySP/Source/Utility/delayline.h **** 
  21:../../DaisySP/Source/Utility/delayline.h **** declaration example: (1 second of floats)
  22:../../DaisySP/Source/Utility/delayline.h **** 
  23:../../DaisySP/Source/Utility/delayline.h **** DelayLine<float, SAMPLE_RATE> del;
  24:../../DaisySP/Source/Utility/delayline.h **** 
  25:../../DaisySP/Source/Utility/delayline.h **** By: shensley
  26:../../DaisySP/Source/Utility/delayline.h **** */
  27:../../DaisySP/Source/Utility/delayline.h **** template <typename T, size_t max_size>
  28:../../DaisySP/Source/Utility/delayline.h **** class DelayLine
  29:../../DaisySP/Source/Utility/delayline.h **** {
  30:../../DaisySP/Source/Utility/delayline.h ****   public:
  31:../../DaisySP/Source/Utility/delayline.h ****     DelayLine() {}
  32:../../DaisySP/Source/Utility/delayline.h ****     ~DelayLine() {}
  33:../../DaisySP/Source/Utility/delayline.h ****     /** initializes the delay line by clearing the values within, and setting delay to 1 sample.
  34:../../DaisySP/Source/Utility/delayline.h ****     */
  35:../../DaisySP/Source/Utility/delayline.h ****     void Init() { Reset(); }
  36:../../DaisySP/Source/Utility/delayline.h ****     /** clears buffer, sets write ptr to 0, and delay to 1 sample.
  37:../../DaisySP/Source/Utility/delayline.h ****     */
  38:../../DaisySP/Source/Utility/delayline.h ****     void Reset()
  39:../../DaisySP/Source/Utility/delayline.h ****     {
  40:../../DaisySP/Source/Utility/delayline.h ****         for(size_t i = 0; i < max_size; i++)
  41:../../DaisySP/Source/Utility/delayline.h ****         {
  42:../../DaisySP/Source/Utility/delayline.h ****             line_[i] = T(0);
  43:../../DaisySP/Source/Utility/delayline.h ****         }
  44:../../DaisySP/Source/Utility/delayline.h ****         write_ptr_ = 0;
  45:../../DaisySP/Source/Utility/delayline.h ****         delay_     = 1;
  46:../../DaisySP/Source/Utility/delayline.h ****     }
  47:../../DaisySP/Source/Utility/delayline.h **** 
  48:../../DaisySP/Source/Utility/delayline.h ****     /** sets the delay time in samples
  49:../../DaisySP/Source/Utility/delayline.h ****         If a float is passed in, a fractional component will be calculated for interpolating the de
ARM GAS  /var/folders/kw/h2sg8jtn02b91cpsjc1nlpg80000gn/T//cc9L9FMQ.s 			page 73


  50:../../DaisySP/Source/Utility/delayline.h ****     */
  51:../../DaisySP/Source/Utility/delayline.h ****     inline void SetDelay(size_t delay)
  52:../../DaisySP/Source/Utility/delayline.h ****     {
  53:../../DaisySP/Source/Utility/delayline.h ****         frac_  = 0.0f;
  54:../../DaisySP/Source/Utility/delayline.h ****         delay_ = delay < max_size ? delay : max_size - 1;
  55:../../DaisySP/Source/Utility/delayline.h ****     }
  56:../../DaisySP/Source/Utility/delayline.h **** 
  57:../../DaisySP/Source/Utility/delayline.h ****     /** sets the delay time in samples
  58:../../DaisySP/Source/Utility/delayline.h ****         If a float is passed in, a fractional component will be calculated for interpolating the de
  59:../../DaisySP/Source/Utility/delayline.h ****     */
  60:../../DaisySP/Source/Utility/delayline.h ****     inline void SetDelay(float delay)
  61:../../DaisySP/Source/Utility/delayline.h ****     {
  62:../../DaisySP/Source/Utility/delayline.h ****         int32_t int_delay = static_cast<int32_t>(delay);
  63:../../DaisySP/Source/Utility/delayline.h ****         frac_             = delay - static_cast<float>(int_delay);
  64:../../DaisySP/Source/Utility/delayline.h ****         delay_ = static_cast<size_t>(int_delay) < max_size ? int_delay
  65:../../DaisySP/Source/Utility/delayline.h ****                                                            : max_size - 1;
  66:../../DaisySP/Source/Utility/delayline.h ****     }
  67:../../DaisySP/Source/Utility/delayline.h **** 
  68:../../DaisySP/Source/Utility/delayline.h ****     /** writes the sample of type T to the delay line, and advances the write ptr
  69:../../DaisySP/Source/Utility/delayline.h ****     */
  70:../../DaisySP/Source/Utility/delayline.h ****     inline void Write(const T sample)
  71:../../DaisySP/Source/Utility/delayline.h ****     {
  72:../../DaisySP/Source/Utility/delayline.h ****         line_[write_ptr_] = sample;
  73:../../DaisySP/Source/Utility/delayline.h ****         write_ptr_        = (write_ptr_ - 1 + max_size) % max_size;
  74:../../DaisySP/Source/Utility/delayline.h ****     }
  75:../../DaisySP/Source/Utility/delayline.h **** 
  76:../../DaisySP/Source/Utility/delayline.h ****     /** returns the next sample of type T in the delay line, interpolated if necessary.
  77:../../DaisySP/Source/Utility/delayline.h ****     */
  78:../../DaisySP/Source/Utility/delayline.h ****     inline const T Read() const
  79:../../DaisySP/Source/Utility/delayline.h ****     {
  80:../../DaisySP/Source/Utility/delayline.h ****         T a = line_[(write_ptr_ + delay_) % max_size];
 2876              		.loc 6 80 22 is_stmt 0 view .LVU926
 2877 031a 214B     		ldr	r3, .L66+12
 2878              		.loc 6 80 43 view .LVU927
 2879 031c 4BF68036 		movw	r6, #48000
 2880 0320 2049     		ldr	r1, .L66+16
 2881              	.LBE629:
 2882              	.LBE628:
 2883              	.LBB638:
 2884              	.LBB639:
  73:../../DaisySP/Source/Utility/delayline.h ****     }
 2885              		.loc 6 73 45 view .LVU928
 2886 0322 4BF67F30 		movw	r0, #47999
 2887              	.LBE639:
 2888              	.LBE638:
 2889              		.loc 1 303 13 view .LVU929
 2890 0326 F1EE0C7A 		vmov.f32	s15, #7.0e+0
 2891              	.LBB645:
 2892              	.LBB630:
  81:../../DaisySP/Source/Utility/delayline.h ****         T b = line_[(write_ptr_ + delay_ + 1) % max_size];
  82:../../DaisySP/Source/Utility/delayline.h ****         return a + (b - a) * frac_;
 2893              		.loc 6 82 30 view .LVU930
 2894 032a 93ED006A 		vldr.32	s12, [r3]
  80:../../DaisySP/Source/Utility/delayline.h ****         T b = line_[(write_ptr_ + delay_ + 1) % max_size];
 2895              		.loc 6 80 33 view .LVU931
 2896 032e D3E90142 		ldrd	r4, r2, [r3, #4]
 2897              	.LVL192:
ARM GAS  /var/folders/kw/h2sg8jtn02b91cpsjc1nlpg80000gn/T//cc9L9FMQ.s 			page 74


  80:../../DaisySP/Source/Utility/delayline.h ****         T b = line_[(write_ptr_ + delay_ + 1) % max_size];
 2898              		.loc 6 80 33 view .LVU932
 2899              	.LBE630:
 2900              	.LBE645:
 2901              		.loc 1 303 13 view .LVU933
 2902 0332 CAEE276A 		vdiv.f32	s13, s20, s15
 2903              	.LVL193:
 304:vasynth.cpp   **** 
 305:vasynth.cpp   **** 	voice_out = filter_out;
 2904              		.loc 1 305 2 is_stmt 1 view .LVU934
 306:vasynth.cpp   **** 
 307:vasynth.cpp   **** 	// delay
 308:vasynth.cpp   **** 	delay_out = delay_.Read();
 2905              		.loc 1 308 2 view .LVU935
 2906              	.LBB646:
 2907              	.LBI628:
  78:../../DaisySP/Source/Utility/delayline.h ****     {
 2908              		.loc 6 78 20 view .LVU936
 2909              	.LBB631:
  80:../../DaisySP/Source/Utility/delayline.h ****         T b = line_[(write_ptr_ + delay_ + 1) % max_size];
 2910              		.loc 6 80 33 is_stmt 0 view .LVU937
 2911 0336 2244     		add	r2, r2, r4
 2912              	.LBE631:
 2913              	.LBE646:
 2914              	.LBB647:
 2915              	.LBB640:
  73:../../DaisySP/Source/Utility/delayline.h ****     }
 2916              		.loc 6 73 45 view .LVU938
 2917 0338 2044     		add	r0, r0, r4
  72:../../DaisySP/Source/Utility/delayline.h ****         write_ptr_        = (write_ptr_ - 1 + max_size) % max_size;
 2918              		.loc 6 72 27 view .LVU939
 2919 033a 03EB8404 		add	r4, r3, r4, lsl #2
 2920              	.LBE640:
 2921              	.LBE647:
 2922              	.LBB648:
 2923              	.LBB632:
  80:../../DaisySP/Source/Utility/delayline.h ****         T b = line_[(write_ptr_ + delay_ + 1) % max_size];
 2924              		.loc 6 80 43 view .LVU940
 2925 033e A1FB02C7 		umull	ip, r7, r1, r2
  81:../../DaisySP/Source/Utility/delayline.h ****         return a + (b - a) * frac_;
 2926              		.loc 6 81 42 view .LVU941
 2927 0342 551C     		adds	r5, r2, #1
  80:../../DaisySP/Source/Utility/delayline.h ****         T b = line_[(write_ptr_ + delay_ + 1) % max_size];
 2928              		.loc 6 80 43 view .LVU942
 2929 0344 BF0A     		lsrs	r7, r7, #10
 2930 0346 06FB1722 		mls	r2, r6, r7, r2
  80:../../DaisySP/Source/Utility/delayline.h ****         T b = line_[(write_ptr_ + delay_ + 1) % max_size];
 2931              		.loc 6 80 11 view .LVU943
 2932 034a 03EB8202 		add	r2, r3, r2, lsl #2
 2933 034e D2ED037A 		vldr.32	s15, [r2, #12]
 2934              	.LVL194:
  81:../../DaisySP/Source/Utility/delayline.h ****         return a + (b - a) * frac_;
 2935              		.loc 6 81 47 view .LVU944
 2936 0352 A1FB0572 		umull	r7, r2, r1, r5
 2937              	.LBE632:
 2938              	.LBE648:
 2939              	.LBB649:
ARM GAS  /var/folders/kw/h2sg8jtn02b91cpsjc1nlpg80000gn/T//cc9L9FMQ.s 			page 75


 2940              	.LBB641:
  73:../../DaisySP/Source/Utility/delayline.h ****     }
 2941              		.loc 6 73 57 view .LVU945
 2942 0356 A1FB0071 		umull	r7, r1, r1, r0
 2943              	.LBE641:
 2944              	.LBE649:
 2945              	.LBB650:
 2946              	.LBB633:
  81:../../DaisySP/Source/Utility/delayline.h ****         return a + (b - a) * frac_;
 2947              		.loc 6 81 47 view .LVU946
 2948 035a 920A     		lsrs	r2, r2, #10
 2949              	.LBE633:
 2950              	.LBE650:
 2951              	.LBB651:
 2952              	.LBB642:
  73:../../DaisySP/Source/Utility/delayline.h ****     }
 2953              		.loc 6 73 57 view .LVU947
 2954 035c 890A     		lsrs	r1, r1, #10
 2955              	.LBE642:
 2956              	.LBE651:
 2957              	.LBB652:
 2958              	.LBB634:
  81:../../DaisySP/Source/Utility/delayline.h ****         return a + (b - a) * frac_;
 2959              		.loc 6 81 47 view .LVU948
 2960 035e 06FB1255 		mls	r5, r6, r2, r5
 2961              	.LVL195:
  81:../../DaisySP/Source/Utility/delayline.h ****         return a + (b - a) * frac_;
 2962              		.loc 6 81 47 view .LVU949
 2963              	.LBE634:
 2964              	.LBE652:
 2965              	.LBB653:
 2966              	.LBB643:
  73:../../DaisySP/Source/Utility/delayline.h ****     }
 2967              		.loc 6 73 57 view .LVU950
 2968 0362 06FB1101 		mls	r1, r6, r1, r0
  73:../../DaisySP/Source/Utility/delayline.h ****     }
 2969              		.loc 6 73 27 view .LVU951
 2970 0366 5960     		str	r1, [r3, #4]
 2971              	.LVL196:
  73:../../DaisySP/Source/Utility/delayline.h ****     }
 2972              		.loc 6 73 27 view .LVU952
 2973              	.LBE643:
 2974              	.LBE653:
 2975              	.LBB654:
 2976              	.LBB635:
  81:../../DaisySP/Source/Utility/delayline.h ****         return a + (b - a) * frac_;
 2977              		.loc 6 81 11 view .LVU953
 2978 0368 03EB8503 		add	r3, r3, r5, lsl #2
 2979              		.loc 6 82 23 view .LVU954
 2980 036c 93ED037A 		vldr.32	s14, [r3, #12]
 2981              	.LBE635:
 2982              	.LBE654:
 309:vasynth.cpp   **** 	delay_.Write(voice_out);
 310:vasynth.cpp   **** 	
 311:vasynth.cpp   **** 	// out
 312:vasynth.cpp   **** 	*out_l = voice_out;
 2983              		.loc 1 312 9 view .LVU955
ARM GAS  /var/folders/kw/h2sg8jtn02b91cpsjc1nlpg80000gn/T//cc9L9FMQ.s 			page 76


 2984 0370 049B     		ldr	r3, [sp, #16]
 2985              	.LBB655:
 2986              	.LBB636:
 2987              		.loc 6 82 23 view .LVU956
 2988 0372 37EE677A 		vsub.f32	s14, s14, s15
 2989              	.LBE636:
 2990              	.LBE655:
 2991              	.LBB656:
 2992              	.LBB644:
  72:../../DaisySP/Source/Utility/delayline.h ****         write_ptr_        = (write_ptr_ - 1 + max_size) % max_size;
 2993              		.loc 6 72 27 view .LVU957
 2994 0376 C4ED036A 		vstr.32	s13, [r4, #12]
  72:../../DaisySP/Source/Utility/delayline.h ****         write_ptr_        = (write_ptr_ - 1 + max_size) % max_size;
 2995              		.loc 6 72 27 view .LVU958
 2996              	.LBE644:
 2997              	.LBE656:
 2998              		.loc 1 312 9 view .LVU959
 2999 037a C3ED006A 		vstr.32	s13, [r3]
 313:vasynth.cpp   **** 	*out_r = delay_out;
 3000              		.loc 1 313 9 view .LVU960
 3001 037e 059B     		ldr	r3, [sp, #20]
 3002              	.LBB657:
 3003              	.LBB637:
 3004              		.loc 6 82 30 view .LVU961
 3005 0380 E7EE067A 		vfma.f32	s15, s14, s12
 3006              	.LVL197:
 3007              		.loc 6 82 30 view .LVU962
 3008              	.LBE637:
 3009              	.LBE657:
 309:vasynth.cpp   **** 	delay_.Write(voice_out);
 3010              		.loc 1 309 2 is_stmt 1 view .LVU963
 3011              	.LBB658:
 3012              	.LBI638:
  70:../../DaisySP/Source/Utility/delayline.h ****     {
 3013              		.loc 6 70 17 view .LVU964
  70:../../DaisySP/Source/Utility/delayline.h ****     {
 3014              		.loc 6 70 17 is_stmt 0 view .LVU965
 3015              	.LBE658:
 312:vasynth.cpp   **** 	*out_r = delay_out;
 3016              		.loc 1 312 2 is_stmt 1 view .LVU966
 3017              		.loc 1 313 2 view .LVU967
 3018              		.loc 1 313 9 is_stmt 0 view .LVU968
 3019 0384 C3ED007A 		vstr.32	s15, [r3]
 314:vasynth.cpp   **** }
 3020              		.loc 1 314 1 view .LVU969
 3021 0388 07B0     		add	sp, sp, #28
 3022              		.cfi_def_cfa_offset 76
 3023              		@ sp needed
 3024 038a BDEC0A8B 		vldm	sp!, {d8-d12}
 3025              		.cfi_restore 88
 3026              		.cfi_restore 89
 3027              		.cfi_restore 86
 3028              		.cfi_restore 87
 3029              		.cfi_restore 84
 3030              		.cfi_restore 85
 3031              		.cfi_restore 82
 3032              		.cfi_restore 83
ARM GAS  /var/folders/kw/h2sg8jtn02b91cpsjc1nlpg80000gn/T//cc9L9FMQ.s 			page 77


 3033              		.cfi_restore 80
 3034              		.cfi_restore 81
 3035              		.cfi_def_cfa_offset 36
 3036              	.LVL198:
 3037              		.loc 1 314 1 view .LVU970
 3038 038e BDE8F08F 		pop	{r4, r5, r6, r7, r8, r9, r10, fp, pc}
 3039              	.LVL199:
 3040              	.L67:
 3041              		.loc 1 314 1 view .LVU971
 3042 0392 00BF     		.align	2
 3043              	.L66:
 3044 0394 00000000 		.word	0
 3045 0398 00000000 		.word	pitch_bend
 3046 039c 0000A842 		.word	1118306304
 3047 03a0 00000000 		.word	delay_
 3048 03a4 F1197605 		.word	91625969
 3049 03a8 00000000 		.word	master_tune
 3050              		.cfi_endproc
 3051              	.LFE4862:
 3053              		.section	.text._ZN7VASynth6NoteOnEhh,"ax",%progbits
 3054              		.align	1
 3055              		.p2align 2,,3
 3056              		.global	_ZN7VASynth6NoteOnEhh
 3057              		.syntax unified
 3058              		.thumb
 3059              		.thumb_func
 3061              	_ZN7VASynth6NoteOnEhh:
 3062              	.LVL200:
 3063              	.LFB4863:
 315:vasynth.cpp   **** 
 316:vasynth.cpp   **** void VASynth::NoteOn(uint8_t midi_note, uint8_t midi_velocity)
 317:vasynth.cpp   **** {	
 3064              		.loc 1 317 1 is_stmt 1 view -0
 3065              		.cfi_startproc
 3066              		@ args = 0, pretend = 0, frame = 8
 3067              		@ frame_needed = 0, uses_anonymous_args = 0
 318:vasynth.cpp   **** 	for (uint8_t i = 0; i < VOICES_MAX; i++)
 3068              		.loc 1 318 2 view .LVU973
 3069              	.LBB664:
 3070              		.loc 1 318 24 view .LVU974
 3071              	.LBE664:
 317:vasynth.cpp   **** 	for (uint8_t i = 0; i < VOICES_MAX; i++)
 3072              		.loc 1 317 1 is_stmt 0 view .LVU975
 3073 0000 70B5     		push	{r4, r5, r6, lr}
 3074              		.cfi_def_cfa_offset 16
 3075              		.cfi_offset 4, -16
 3076              		.cfi_offset 5, -12
 3077              		.cfi_offset 6, -8
 3078              		.cfi_offset 14, -4
 3079 0002 4FF0070C 		mov	ip, #7
 3080 0006 0546     		mov	r5, r0
 3081 0008 2DED048B 		vpush.64	{d8, d9}
 3082              		.cfi_def_cfa_offset 32
 3083              		.cfi_offset 80, -32
 3084              		.cfi_offset 81, -28
 3085              		.cfi_offset 82, -24
 3086              		.cfi_offset 83, -20
ARM GAS  /var/folders/kw/h2sg8jtn02b91cpsjc1nlpg80000gn/T//cc9L9FMQ.s 			page 78


 3087 000c 82B0     		sub	sp, sp, #8
 3088              		.cfi_def_cfa_offset 40
 3089 000e 90F88A30 		ldrb	r3, [r0, #138]	@ zero_extendqisi2
 317:vasynth.cpp   **** 	for (uint8_t i = 0; i < VOICES_MAX; i++)
 3090              		.loc 1 317 1 view .LVU976
 3091 0012 0192     		str	r2, [sp, #4]
 3092              	.LVL201:
 3093              	.L71:
 3094              	.LBB681:
 319:vasynth.cpp   **** 	{
 320:vasynth.cpp   **** 		osc_next_ = (osc_next_ + 1) % VOICES_MAX;
 3095              		.loc 1 320 3 is_stmt 1 view .LVU977
 318:vasynth.cpp   **** 	{
 3096              		.loc 1 318 2 view .LVU978
 318:vasynth.cpp   **** 	{
 3097              		.loc 1 318 24 view .LVU979
 3098              		.loc 1 320 26 is_stmt 0 view .LVU980
 3099 0014 0133     		adds	r3, r3, #1
 3100              		.loc 1 320 31 view .LVU981
 3101 0016 324C     		ldr	r4, .L75
 318:vasynth.cpp   **** 	{
 3102              		.loc 1 318 24 view .LVU982
 3103 0018 0CF1FF32 		add	r2, ip, #-1
 3104              		.loc 1 320 31 view .LVU983
 3105 001c A4FB0304 		umull	r0, r4, r4, r3
 3106 0020 181B     		subs	r0, r3, r4
 3107 0022 04EB5004 		add	r4, r4, r0, lsr #1
 3108 0026 A408     		lsrs	r4, r4, #2
 3109 0028 C4EBC404 		rsb	r4, r4, r4, lsl #3
 3110 002c 1C1B     		subs	r4, r3, r4
 321:vasynth.cpp   **** 
 322:vasynth.cpp   **** 		if(note_midi_[osc_next_] == 0)
 3111              		.loc 1 322 26 view .LVU984
 3112 002e 2819     		adds	r0, r5, r4
 320:vasynth.cpp   **** 
 3113              		.loc 1 320 13 view .LVU985
 3114 0030 E3B2     		uxtb	r3, r4
 3115              		.loc 1 322 3 is_stmt 1 view .LVU986
 3116 0032 90F88B60 		ldrb	r6, [r0, #139]	@ zero_extendqisi2
 3117 0036 46B1     		cbz	r6, .L74
 318:vasynth.cpp   **** 	{
 3118              		.loc 1 318 24 is_stmt 0 discriminator 2 view .LVU987
 3119 0038 12F0FF0C 		ands	ip, r2, #255
 3120              	.LVL202:
 318:vasynth.cpp   **** 	{
 3121              		.loc 1 318 24 discriminator 2 view .LVU988
 3122 003c EAD1     		bne	.L71
 3123 003e 85F88A30 		strb	r3, [r5, #138]
 3124              	.LBE681:
 323:vasynth.cpp   **** 		{
 324:vasynth.cpp   **** 			note_midi_[osc_next_] = midi_note;
 325:vasynth.cpp   **** 			note_freq_[osc_next_] = mtof(note_midi_[osc_next_]);
 326:vasynth.cpp   **** 			bender_offset[osc_next_] = ((note_freq_[osc_next_]) - (mtof(note_midi_[osc_next_] + 1)));
 327:vasynth.cpp   **** 			velocity[osc_next_] = ((float)midi_velocity / MIDI_VELOCITY_MAX);
 328:vasynth.cpp   **** 			break;
 329:vasynth.cpp   **** 		}
 330:vasynth.cpp   **** 	}
ARM GAS  /var/folders/kw/h2sg8jtn02b91cpsjc1nlpg80000gn/T//cc9L9FMQ.s 			page 79


 331:vasynth.cpp   **** }	
 3125              		.loc 1 331 1 view .LVU989
 3126 0042 02B0     		add	sp, sp, #8
 3127              		.cfi_remember_state
 3128              		.cfi_def_cfa_offset 32
 3129              		@ sp needed
 3130 0044 BDEC048B 		vldm	sp!, {d8-d9}
 3131              		.cfi_restore 82
 3132              		.cfi_restore 83
 3133              		.cfi_restore 80
 3134              		.cfi_restore 81
 3135              		.cfi_def_cfa_offset 16
 3136 0048 70BD     		pop	{r4, r5, r6, pc}
 3137              	.LVL203:
 3138              	.L74:
 3139              		.cfi_restore_state
 3140              	.LBB682:
 325:vasynth.cpp   **** 			bender_offset[osc_next_] = ((note_freq_[osc_next_]) - (mtof(note_midi_[osc_next_] + 1)));
 3141              		.loc 1 325 32 view .LVU990
 3142 004a 07EE901A 		vmov	s15, r1	@ int
 3143              	.LBB665:
 3144              	.LBB666:
  67:../../DaisySP/Source/Utility/dsp.h **** }
  68:../../DaisySP/Source/Utility/dsp.h **** 
  69:../../DaisySP/Source/Utility/dsp.h **** /** From Musicdsp.org "Fast power and root estimates for 32bit floats)
  70:../../DaisySP/Source/Utility/dsp.h **** Original code by Stefan Stenzel
  71:../../DaisySP/Source/Utility/dsp.h **** These are approximations
  72:../../DaisySP/Source/Utility/dsp.h **** */
  73:../../DaisySP/Source/Utility/dsp.h **** inline float fastpower(float f, int n)
  74:../../DaisySP/Source/Utility/dsp.h **** {
  75:../../DaisySP/Source/Utility/dsp.h ****     long *lp, l;
  76:../../DaisySP/Source/Utility/dsp.h ****     lp = (long *)(&f);
  77:../../DaisySP/Source/Utility/dsp.h ****     l  = *lp;
  78:../../DaisySP/Source/Utility/dsp.h ****     l -= 0x3F800000;
  79:../../DaisySP/Source/Utility/dsp.h ****     l <<= (n - 1);
  80:../../DaisySP/Source/Utility/dsp.h ****     l += 0x3F800000;
  81:../../DaisySP/Source/Utility/dsp.h ****     *lp = l;
  82:../../DaisySP/Source/Utility/dsp.h ****     return f;
  83:../../DaisySP/Source/Utility/dsp.h **** }
  84:../../DaisySP/Source/Utility/dsp.h **** 
  85:../../DaisySP/Source/Utility/dsp.h **** inline float fastroot(float f, int n)
  86:../../DaisySP/Source/Utility/dsp.h **** {
  87:../../DaisySP/Source/Utility/dsp.h ****     long *lp, l;
  88:../../DaisySP/Source/Utility/dsp.h ****     lp = (long *)(&f);
  89:../../DaisySP/Source/Utility/dsp.h ****     l  = *lp;
  90:../../DaisySP/Source/Utility/dsp.h ****     l -= 0x3F800000;
  91:../../DaisySP/Source/Utility/dsp.h ****     l >>= (n - 1);
  92:../../DaisySP/Source/Utility/dsp.h ****     l += 0x3F800000;
  93:../../DaisySP/Source/Utility/dsp.h ****     *lp = l;
  94:../../DaisySP/Source/Utility/dsp.h ****     return f;
  95:../../DaisySP/Source/Utility/dsp.h **** }
  96:../../DaisySP/Source/Utility/dsp.h **** 
  97:../../DaisySP/Source/Utility/dsp.h **** /** Significantly more efficient than fmodf(x, 1.0f) for calculating
  98:../../DaisySP/Source/Utility/dsp.h ****  *  the decimal part of a floating point value.
  99:../../DaisySP/Source/Utility/dsp.h ****  */
 100:../../DaisySP/Source/Utility/dsp.h **** inline float fastmod1f(float x)
 101:../../DaisySP/Source/Utility/dsp.h **** {
ARM GAS  /var/folders/kw/h2sg8jtn02b91cpsjc1nlpg80000gn/T//cc9L9FMQ.s 			page 80


 102:../../DaisySP/Source/Utility/dsp.h ****     return x - static_cast<int>(x);
 103:../../DaisySP/Source/Utility/dsp.h **** }
 104:../../DaisySP/Source/Utility/dsp.h **** 
 105:../../DaisySP/Source/Utility/dsp.h **** /** From http://openaudio.blogspot.com/2017/02/faster-log10-and-pow.html
 106:../../DaisySP/Source/Utility/dsp.h **** No approximation, pow10f(x) gives a 90% speed increase over powf(10.f, x)
 107:../../DaisySP/Source/Utility/dsp.h **** */
 108:../../DaisySP/Source/Utility/dsp.h **** inline float pow10f(float f)
 109:../../DaisySP/Source/Utility/dsp.h **** {
 110:../../DaisySP/Source/Utility/dsp.h ****     return expf(2.302585092994046f * f);
 111:../../DaisySP/Source/Utility/dsp.h **** }
 112:../../DaisySP/Source/Utility/dsp.h **** 
 113:../../DaisySP/Source/Utility/dsp.h **** /* Original code for fastlog2f by Dr. Paul Beckmann from the ARM community forum, adapted from the 
 114:../../DaisySP/Source/Utility/dsp.h **** About 25% performance increase over std::log10f
 115:../../DaisySP/Source/Utility/dsp.h **** */
 116:../../DaisySP/Source/Utility/dsp.h **** inline float fastlog2f(float f)
 117:../../DaisySP/Source/Utility/dsp.h **** {
 118:../../DaisySP/Source/Utility/dsp.h ****     float frac;
 119:../../DaisySP/Source/Utility/dsp.h ****     int   exp;
 120:../../DaisySP/Source/Utility/dsp.h ****     frac = frexpf(fabsf(f), &exp);
 121:../../DaisySP/Source/Utility/dsp.h ****     f    = 1.23149591368684f;
 122:../../DaisySP/Source/Utility/dsp.h ****     f *= frac;
 123:../../DaisySP/Source/Utility/dsp.h ****     f += -4.11852516267426f;
 124:../../DaisySP/Source/Utility/dsp.h ****     f *= frac;
 125:../../DaisySP/Source/Utility/dsp.h ****     f += 6.02197014179219f;
 126:../../DaisySP/Source/Utility/dsp.h ****     f *= frac;
 127:../../DaisySP/Source/Utility/dsp.h ****     f += -3.13396450166353f;
 128:../../DaisySP/Source/Utility/dsp.h ****     f += exp;
 129:../../DaisySP/Source/Utility/dsp.h ****     return (f);
 130:../../DaisySP/Source/Utility/dsp.h **** }
 131:../../DaisySP/Source/Utility/dsp.h **** 
 132:../../DaisySP/Source/Utility/dsp.h **** inline float fastlog10f(float f)
 133:../../DaisySP/Source/Utility/dsp.h **** {
 134:../../DaisySP/Source/Utility/dsp.h ****     return fastlog2f(f) * 0.3010299956639812f;
 135:../../DaisySP/Source/Utility/dsp.h **** }
 136:../../DaisySP/Source/Utility/dsp.h **** 
 137:../../DaisySP/Source/Utility/dsp.h **** /** Midi to frequency helper
 138:../../DaisySP/Source/Utility/dsp.h **** */
 139:../../DaisySP/Source/Utility/dsp.h **** inline float mtof(float m)
 140:../../DaisySP/Source/Utility/dsp.h **** {
 141:../../DaisySP/Source/Utility/dsp.h ****     return powf(2, (m - 69.0f) / 12.0f) * 440.0f;
 3145              		.loc 5 141 23 view .LVU991
 3146 004e DFED259A 		vldr.32	s19, .L75+4
 3147              		.loc 5 141 16 view .LVU992
 3148 0052 B2EE089A 		vmov.f32	s18, #1.2e+1
 3149 0056 85F88A30 		strb	r3, [r5, #138]
 3150              	.LBE666:
 3151              	.LBE665:
 324:vasynth.cpp   **** 			note_freq_[osc_next_] = mtof(note_midi_[osc_next_]);
 3152              		.loc 1 324 4 is_stmt 1 view .LVU993
 325:vasynth.cpp   **** 			bender_offset[osc_next_] = ((note_freq_[osc_next_]) - (mtof(note_midi_[osc_next_] + 1)));
 3153              		.loc 1 325 32 is_stmt 0 view .LVU994
 3154 005a F8EE670A 		vcvt.f32.u32	s1, s15
 324:vasynth.cpp   **** 			note_freq_[osc_next_] = mtof(note_midi_[osc_next_]);
 3155              		.loc 1 324 26 view .LVU995
 3156 005e 80F88B10 		strb	r1, [r0, #139]
 3157              	.LBB671:
 3158              	.LBB667:
ARM GAS  /var/folders/kw/h2sg8jtn02b91cpsjc1nlpg80000gn/T//cc9L9FMQ.s 			page 81


 3159              		.loc 5 141 16 view .LVU996
 3160 0062 B0EE000A 		vmov.f32	s0, #2.0e+0
 3161              	.LBE667:
 3162              	.LBE671:
 325:vasynth.cpp   **** 			bender_offset[osc_next_] = ((note_freq_[osc_next_]) - (mtof(note_midi_[osc_next_] + 1)));
 3163              		.loc 1 325 4 is_stmt 1 view .LVU997
 3164              	.LVL204:
 3165              	.LBB672:
 3166              	.LBI665:
 139:../../DaisySP/Source/Utility/dsp.h **** {
 3167              		.loc 5 139 14 view .LVU998
 3168              	.LBB668:
 3169              		.loc 5 141 5 view .LVU999
 3170              		.loc 5 141 43 is_stmt 0 view .LVU1000
 3171 0066 DFED208A 		vldr.32	s17, .L75+8
 3172              	.LBE668:
 3173              	.LBE672:
 325:vasynth.cpp   **** 			bender_offset[osc_next_] = ((note_freq_[osc_next_]) - (mtof(note_midi_[osc_next_] + 1)));
 3174              		.loc 1 325 26 view .LVU1001
 3175 006a 05EB8404 		add	r4, r5, r4, lsl #2
 3176              	.LBB673:
 3177              	.LBB669:
 3178              		.loc 5 141 23 view .LVU1002
 3179 006e 70EEE90A 		vsub.f32	s1, s1, s19
 3180              		.loc 5 141 16 view .LVU1003
 3181 0072 C0EE890A 		vdiv.f32	s1, s1, s18
 3182 0076 FFF7FEFF 		bl	powf
 3183              	.LVL205:
 3184              		.loc 5 141 16 view .LVU1004
 3185 007a F0EE407A 		vmov.f32	s15, s0
 3186              	.LBE669:
 3187              	.LBE673:
 3188              	.LBB674:
 3189              	.LBB675:
 3190 007e B0EE000A 		vmov.f32	s0, #2.0e+0
 3191              	.LBE675:
 3192              	.LBE674:
 3193              	.LBB678:
 3194              	.LBB670:
 3195              		.loc 5 141 43 view .LVU1005
 3196 0082 67EEA87A 		vmul.f32	s15, s15, s17
 3197              	.LBE670:
 3198              	.LBE678:
 325:vasynth.cpp   **** 			bender_offset[osc_next_] = ((note_freq_[osc_next_]) - (mtof(note_midi_[osc_next_] + 1)));
 3199              		.loc 1 325 26 view .LVU1006
 3200 0086 C4ED257A 		vstr.32	s15, [r4, #148]
 326:vasynth.cpp   **** 			velocity[osc_next_] = ((float)midi_velocity / MIDI_VELOCITY_MAX);
 3201              		.loc 1 326 4 is_stmt 1 view .LVU1007
 326:vasynth.cpp   **** 			velocity[osc_next_] = ((float)midi_velocity / MIDI_VELOCITY_MAX);
 3202              		.loc 1 326 44 is_stmt 0 view .LVU1008
 3203 008a 95F88A30 		ldrb	r3, [r5, #138]	@ zero_extendqisi2
 326:vasynth.cpp   **** 			velocity[osc_next_] = ((float)midi_velocity / MIDI_VELOCITY_MAX);
 3204              		.loc 1 326 84 view .LVU1009
 3205 008e E918     		adds	r1, r5, r3
 326:vasynth.cpp   **** 			velocity[osc_next_] = ((float)midi_velocity / MIDI_VELOCITY_MAX);
 3206              		.loc 1 326 53 view .LVU1010
 3207 0090 05EB8302 		add	r2, r5, r3, lsl #2
ARM GAS  /var/folders/kw/h2sg8jtn02b91cpsjc1nlpg80000gn/T//cc9L9FMQ.s 			page 82


 326:vasynth.cpp   **** 			velocity[osc_next_] = ((float)midi_velocity / MIDI_VELOCITY_MAX);
 3208              		.loc 1 326 84 view .LVU1011
 3209 0094 91F88B30 		ldrb	r3, [r1, #139]	@ zero_extendqisi2
 326:vasynth.cpp   **** 			velocity[osc_next_] = ((float)midi_velocity / MIDI_VELOCITY_MAX);
 3210              		.loc 1 326 53 view .LVU1012
 3211 0098 92ED258A 		vldr.32	s16, [r2, #148]
 3212              	.LVL206:
 3213              	.LBB679:
 3214              	.LBI674:
 139:../../DaisySP/Source/Utility/dsp.h **** {
 3215              		.loc 5 139 14 is_stmt 1 view .LVU1013
 3216              	.LBB676:
 3217              		.loc 5 141 5 view .LVU1014
 3218              	.LBE676:
 3219              	.LBE679:
 326:vasynth.cpp   **** 			velocity[osc_next_] = ((float)midi_velocity / MIDI_VELOCITY_MAX);
 3220              		.loc 1 326 86 is_stmt 0 view .LVU1015
 3221 009c 0133     		adds	r3, r3, #1
 3222 009e 00EE903A 		vmov	s1, r3	@ int
 326:vasynth.cpp   **** 			velocity[osc_next_] = ((float)midi_velocity / MIDI_VELOCITY_MAX);
 3223              		.loc 1 326 63 view .LVU1016
 3224 00a2 F8EEE00A 		vcvt.f32.s32	s1, s1
 3225              	.LBB680:
 3226              	.LBB677:
 3227              		.loc 5 141 23 view .LVU1017
 3228 00a6 70EEE90A 		vsub.f32	s1, s1, s19
 3229              		.loc 5 141 16 view .LVU1018
 3230 00aa C0EE890A 		vdiv.f32	s1, s1, s18
 3231 00ae FFF7FEFF 		bl	powf
 3232              	.LVL207:
 3233              		.loc 5 141 16 view .LVU1019
 3234              	.LBE677:
 3235              	.LBE680:
 327:vasynth.cpp   **** 			break;
 3236              		.loc 1 327 27 view .LVU1020
 3237 00b2 DDED017A 		vldr.32	s15, [sp, #4]	@ int
 327:vasynth.cpp   **** 			break;
 3238              		.loc 1 327 48 view .LVU1021
 3239 00b6 DFED0D6A 		vldr.32	s13, .L75+12
 3240 00ba 95F88A30 		ldrb	r3, [r5, #138]	@ zero_extendqisi2
 327:vasynth.cpp   **** 			break;
 3241              		.loc 1 327 27 view .LVU1022
 3242 00be F8EE677A 		vcvt.f32.u32	s15, s15
 3243 00c2 05EB8305 		add	r5, r5, r3, lsl #2
 3244              	.LVL208:
 326:vasynth.cpp   **** 			velocity[osc_next_] = ((float)midi_velocity / MIDI_VELOCITY_MAX);
 3245              		.loc 1 326 56 view .LVU1023
 3246 00c6 A0EE688A 		vfms.f32	s16, s0, s17
 327:vasynth.cpp   **** 			break;
 3247              		.loc 1 327 48 view .LVU1024
 3248 00ca 87EEA67A 		vdiv.f32	s14, s15, s13
 326:vasynth.cpp   **** 			velocity[osc_next_] = ((float)midi_velocity / MIDI_VELOCITY_MAX);
 3249              		.loc 1 326 29 view .LVU1025
 3250 00ce 85ED3A8A 		vstr.32	s16, [r5, #232]
 327:vasynth.cpp   **** 			break;
 3251              		.loc 1 327 4 is_stmt 1 view .LVU1026
 327:vasynth.cpp   **** 			break;
ARM GAS  /var/folders/kw/h2sg8jtn02b91cpsjc1nlpg80000gn/T//cc9L9FMQ.s 			page 83


 3252              		.loc 1 327 24 is_stmt 0 view .LVU1027
 3253 00d2 85ED337A 		vstr.32	s14, [r5, #204]
 328:vasynth.cpp   **** 		}
 3254              		.loc 1 328 4 is_stmt 1 view .LVU1028
 3255              	.LBE682:
 3256              		.loc 1 331 1 is_stmt 0 view .LVU1029
 3257 00d6 02B0     		add	sp, sp, #8
 3258              		.cfi_def_cfa_offset 32
 3259              		@ sp needed
 3260 00d8 BDEC048B 		vldm	sp!, {d8-d9}
 3261              		.cfi_restore 82
 3262              		.cfi_restore 83
 3263              		.cfi_restore 80
 3264              		.cfi_restore 81
 3265              		.cfi_def_cfa_offset 16
 3266 00dc 70BD     		pop	{r4, r5, r6, pc}
 3267              	.L76:
 3268 00de 00BF     		.align	2
 3269              	.L75:
 3270 00e0 25499224 		.word	613566757
 3271 00e4 00008A42 		.word	1116340224
 3272 00e8 0000DC43 		.word	1138491392
 3273 00ec 0000FE42 		.word	1123942400
 3274              		.cfi_endproc
 3275              	.LFE4863:
 3277              		.section	.text._ZN7VASynth7NoteOffEh,"ax",%progbits
 3278              		.align	1
 3279              		.p2align 2,,3
 3280              		.global	_ZN7VASynth7NoteOffEh
 3281              		.syntax unified
 3282              		.thumb
 3283              		.thumb_func
 3285              	_ZN7VASynth7NoteOffEh:
 3286              	.LVL209:
 3287              	.LFB4864:
 332:vasynth.cpp   **** 
 333:vasynth.cpp   **** void VASynth::NoteOff(uint8_t midi_note)
 334:vasynth.cpp   **** {
 3288              		.loc 1 334 1 is_stmt 1 view -0
 3289              		.cfi_startproc
 3290              		@ args = 0, pretend = 0, frame = 0
 3291              		@ frame_needed = 0, uses_anonymous_args = 0
 3292              		@ link register save eliminated.
 335:vasynth.cpp   **** 	for (uint8_t i = 0; i < VOICES_MAX; i++)
 3293              		.loc 1 335 2 view .LVU1031
 3294              	.LBB683:
 3295              		.loc 1 335 24 view .LVU1032
 3296 0000 00F18B03 		add	r3, r0, #139
 3297 0004 9230     		adds	r0, r0, #146
 3298              	.LVL210:
 3299              	.L79:
 336:vasynth.cpp   **** 	{
 337:vasynth.cpp   **** 		if (note_midi_[i] == midi_note)
 3300              		.loc 1 337 3 view .LVU1033
 335:vasynth.cpp   **** 	for (uint8_t i = 0; i < VOICES_MAX; i++)
 3301              		.loc 1 335 2 view .LVU1034
 3302              		.loc 1 337 19 is_stmt 0 view .LVU1035
ARM GAS  /var/folders/kw/h2sg8jtn02b91cpsjc1nlpg80000gn/T//cc9L9FMQ.s 			page 84


 3303 0006 13F8012B 		ldrb	r2, [r3], #1	@ zero_extendqisi2
 3304              	.LVL211:
 335:vasynth.cpp   **** 	for (uint8_t i = 0; i < VOICES_MAX; i++)
 3305              		.loc 1 335 24 is_stmt 1 view .LVU1036
 3306              		.loc 1 337 3 is_stmt 0 view .LVU1037
 3307 000a 8A42     		cmp	r2, r1
 3308 000c 02D1     		bne	.L78
 338:vasynth.cpp   **** 		{
 339:vasynth.cpp   **** 			note_midi_[i] = 0;
 3309              		.loc 1 339 4 is_stmt 1 view .LVU1038
 3310              		.loc 1 339 18 is_stmt 0 view .LVU1039
 3311 000e 0022     		movs	r2, #0
 3312 0010 03F8012C 		strb	r2, [r3, #-1]
 3313              	.L78:
 335:vasynth.cpp   **** 	{
 3314              		.loc 1 335 24 discriminator 2 view .LVU1040
 3315 0014 8342     		cmp	r3, r0
 3316 0016 F6D1     		bne	.L79
 3317              	.LBE683:
 340:vasynth.cpp   **** 		}
 341:vasynth.cpp   **** 	}
 342:vasynth.cpp   **** }	
 3318              		.loc 1 342 1 view .LVU1041
 3319 0018 7047     		bx	lr
 3320              		.cfi_endproc
 3321              	.LFE4864:
 3323 001a 00BF     		.section	.text._ZN7VASynth9PitchBendEs,"ax",%progbits
 3324              		.align	1
 3325              		.p2align 2,,3
 3326              		.global	_ZN7VASynth9PitchBendEs
 3327              		.syntax unified
 3328              		.thumb
 3329              		.thumb_func
 3331              	_ZN7VASynth9PitchBendEs:
 3332              	.LVL212:
 3333              	.LFB4865:
 343:vasynth.cpp   **** 
 344:vasynth.cpp   **** void VASynth::PitchBend(int16_t data)
 345:vasynth.cpp   **** {
 3334              		.loc 1 345 1 is_stmt 1 view -0
 3335              		.cfi_startproc
 3336              		@ args = 0, pretend = 0, frame = 0
 3337              		@ frame_needed = 0, uses_anonymous_args = 0
 3338              		@ link register save eliminated.
 346:vasynth.cpp   **** 	pitch_bend = 1.0f - (2.0f * ((float)data / 8192.0f));
 3339              		.loc 1 346 2 view .LVU1043
 3340              		.loc 1 346 43 is_stmt 0 view .LVU1044
 3341 0000 07EE101A 		vmov	s14, r1	@ int
 3342              		.loc 1 346 20 view .LVU1045
 3343 0004 F0EE006A 		vmov.f32	s13, #2.0e+0
 3344 0008 F7EE007A 		vmov.f32	s15, #1.0e+0
 3345              		.loc 1 346 13 view .LVU1046
 3346 000c 034B     		ldr	r3, .L82
 3347              		.loc 1 346 43 view .LVU1047
 3348 000e BAEEE97A 		vcvt.f32.s32	s14, s14, #13
 3349              		.loc 1 346 20 view .LVU1048
 3350 0012 E7EE667A 		vfms.f32	s15, s14, s13
ARM GAS  /var/folders/kw/h2sg8jtn02b91cpsjc1nlpg80000gn/T//cc9L9FMQ.s 			page 85


 3351              		.loc 1 346 13 view .LVU1049
 3352 0016 C3ED007A 		vstr.32	s15, [r3]
 347:vasynth.cpp   **** }	
 3353              		.loc 1 347 1 view .LVU1050
 3354 001a 7047     		bx	lr
 3355              	.L83:
 3356              		.align	2
 3357              	.L82:
 3358 001c 00000000 		.word	pitch_bend
 3359              		.cfi_endproc
 3360              	.LFE4865:
 3362              		.section	.text._ZN7VASynth13ProgramChangeEh,"ax",%progbits
 3363              		.align	1
 3364              		.p2align 2,,3
 3365              		.global	_ZN7VASynth13ProgramChangeEh
 3366              		.syntax unified
 3367              		.thumb
 3368              		.thumb_func
 3370              	_ZN7VASynth13ProgramChangeEh:
 3371              	.LVL213:
 3372              	.LFB4866:
 348:vasynth.cpp   **** 
 349:vasynth.cpp   **** void VASynth::ProgramChange(uint8_t data)
 350:vasynth.cpp   **** {
 3373              		.loc 1 350 1 is_stmt 1 view -0
 3374              		.cfi_startproc
 3375              		@ args = 0, pretend = 0, frame = 0
 3376              		@ frame_needed = 0, uses_anonymous_args = 0
 3377              		@ link register save eliminated.
 351:vasynth.cpp   **** 	param_= data;
 3378              		.loc 1 351 2 view .LVU1052
 3379              		.loc 1 351 8 is_stmt 0 view .LVU1053
 3380 0000 014B     		ldr	r3, .L85
 3381 0002 1970     		strb	r1, [r3]
 352:vasynth.cpp   **** }
 3382              		.loc 1 352 1 view .LVU1054
 3383 0004 7047     		bx	lr
 3384              	.L86:
 3385 0006 00BF     		.align	2
 3386              	.L85:
 3387 0008 00000000 		.word	param_
 3388              		.cfi_endproc
 3389              	.LFE4866:
 3391              		.section	.text._ZN7VASynth10SaveToLiveEP14VASynthSetting,"ax",%progbits
 3392              		.align	1
 3393              		.p2align 2,,3
 3394              		.global	_ZN7VASynth10SaveToLiveEP14VASynthSetting
 3395              		.syntax unified
 3396              		.thumb
 3397              		.thumb_func
 3399              	_ZN7VASynth10SaveToLiveEP14VASynthSetting:
 3400              	.LVL214:
 3401              	.LFB4869:
 353:vasynth.cpp   **** 
 354:vasynth.cpp   **** // Flash handling - load and save
 355:vasynth.cpp   **** // 8MB of flash
 356:vasynth.cpp   **** // 4kB blocks
ARM GAS  /var/folders/kw/h2sg8jtn02b91cpsjc1nlpg80000gn/T//cc9L9FMQ.s 			page 86


 357:vasynth.cpp   **** // assume our settings < 4kB, so put one patch per block
 358:vasynth.cpp   **** #define FLASH_BLOCK 4096
 359:vasynth.cpp   **** 
 360:vasynth.cpp   **** uint8_t DSY_QSPI_BSS qspi_buffer[FLASH_BLOCK * 16];
 361:vasynth.cpp   ****  
 362:vasynth.cpp   **** void VASynth::FlashLoad(uint8_t aSlot)
 363:vasynth.cpp   **** {
 364:vasynth.cpp   **** 	VASynthSetting vaload;
 365:vasynth.cpp   **** 
 366:vasynth.cpp   ****     size_t size = sizeof(VASynthSetting);
 367:vasynth.cpp   ****     
 368:vasynth.cpp   **** 	//memcpy(*dest, *src, sizet);
 369:vasynth.cpp   **** 	memcpy(&vaload, &qspi_buffer[aSlot * FLASH_BLOCK], size);
 370:vasynth.cpp   **** 
 371:vasynth.cpp   **** 	SaveToLive(&vaload);
 372:vasynth.cpp   **** }
 373:vasynth.cpp   **** 
 374:vasynth.cpp   **** 
 375:vasynth.cpp   **** 
 376:vasynth.cpp   **** void VASynth::FlashSave(uint8_t aSlot)
 377:vasynth.cpp   **** {
 378:vasynth.cpp   **** 	VASynthSetting vasave;
 379:vasynth.cpp   **** 
 380:vasynth.cpp   **** 	LiveToSave(&vasave);
 381:vasynth.cpp   **** 
 382:vasynth.cpp   **** 	size_t start_address = (size_t)qspi_buffer;
 383:vasynth.cpp   **** 
 384:vasynth.cpp   **** 	size_t size = sizeof(VASynthSetting);
 385:vasynth.cpp   ****     
 386:vasynth.cpp   **** 	size_t slot_address = start_address + (aSlot * FLASH_BLOCK);
 387:vasynth.cpp   **** 
 388:vasynth.cpp   ****     hardware.qspi.Erase(slot_address, slot_address + size);
 389:vasynth.cpp   ****     hardware.qspi.Write(slot_address, size, (uint8_t*)&vasave);
 390:vasynth.cpp   **** 
 391:vasynth.cpp   **** }	
 392:vasynth.cpp   **** 
 393:vasynth.cpp   **** void VASynth::SaveToLive(VASynthSetting *vas)
 394:vasynth.cpp   **** {
 3402              		.loc 1 394 1 is_stmt 1 view -0
 3403              		.cfi_startproc
 3404              		@ args = 0, pretend = 0, frame = 0
 3405              		@ frame_needed = 0, uses_anonymous_args = 0
 395:vasynth.cpp   **** 	gPlay = PLAY_OFF;
 3406              		.loc 1 395 2 view .LVU1056
 394:vasynth.cpp   **** 	gPlay = PLAY_OFF;
 3407              		.loc 1 394 1 is_stmt 0 view .LVU1057
 3408 0000 10B5     		push	{r4, lr}
 3409              		.cfi_def_cfa_offset 8
 3410              		.cfi_offset 4, -8
 3411              		.cfi_offset 14, -4
 3412              		.loc 1 395 8 view .LVU1058
 3413 0002 0022     		movs	r2, #0
 3414 0004 464C     		ldr	r4, .L89
 3415 0006 2270     		strb	r2, [r4]
 396:vasynth.cpp   **** 	
 397:vasynth.cpp   **** 	waveform_ = vas->waveform;
 3416              		.loc 1 397 2 is_stmt 1 view .LVU1059
ARM GAS  /var/folders/kw/h2sg8jtn02b91cpsjc1nlpg80000gn/T//cc9L9FMQ.s 			page 87


 3417              		.loc 1 397 19 is_stmt 0 view .LVU1060
 3418 0008 91F800C0 		ldrb	ip, [r1]	@ zero_extendqisi2
 3419              		.loc 1 397 12 view .LVU1061
 3420 000c 80F804C0 		strb	ip, [r0, #4]
 398:vasynth.cpp   **** 	osc_mix_ = vas->osc_mix;
 3421              		.loc 1 398 2 is_stmt 1 view .LVU1062
 3422              		.loc 1 398 18 is_stmt 0 view .LVU1063
 3423 0010 D1F804C0 		ldr	ip, [r1, #4]	@ float
 3424              		.loc 1 398 11 view .LVU1064
 3425 0014 C0F808C0 		str	ip, [r0, #8]	@ float
 399:vasynth.cpp   **** 	detune_ = vas->detune;
 3426              		.loc 1 399 2 is_stmt 1 view .LVU1065
 3427              		.loc 1 399 17 is_stmt 0 view .LVU1066
 3428 0018 D1F808C0 		ldr	ip, [r1, #8]	@ float
 3429              		.loc 1 399 10 view .LVU1067
 3430 001c C0F80CC0 		str	ip, [r0, #12]	@ float
 400:vasynth.cpp   **** 	osc_pw_ = vas->osc_pw;
 3431              		.loc 1 400 2 is_stmt 1 view .LVU1068
 3432              		.loc 1 400 17 is_stmt 0 view .LVU1069
 3433 0020 D1F80CC0 		ldr	ip, [r1, #12]	@ float
 3434              		.loc 1 400 10 view .LVU1070
 3435 0024 C0F810C0 		str	ip, [r0, #16]	@ float
 401:vasynth.cpp   **** 
 402:vasynth.cpp   **** 	osc2_waveform_ = vas->osc2_waveform;
 3436              		.loc 1 402 2 is_stmt 1 view .LVU1071
 3437              		.loc 1 402 24 is_stmt 0 view .LVU1072
 3438 0028 91F810C0 		ldrb	ip, [r1, #16]	@ zero_extendqisi2
 3439              		.loc 1 402 17 view .LVU1073
 3440 002c 80F814C0 		strb	ip, [r0, #20]
 403:vasynth.cpp   **** 	osc2_detune_ = vas->osc2_detune;
 3441              		.loc 1 403 2 is_stmt 1 view .LVU1074
 3442              		.loc 1 403 22 is_stmt 0 view .LVU1075
 3443 0030 D1F814C0 		ldr	ip, [r1, #20]	@ float
 3444              		.loc 1 403 15 view .LVU1076
 3445 0034 C0F818C0 		str	ip, [r0, #24]	@ float
 404:vasynth.cpp   **** 	osc2_transpose_ = vas->osc2_transpose;
 3446              		.loc 1 404 2 is_stmt 1 view .LVU1077
 3447              		.loc 1 404 25 is_stmt 0 view .LVU1078
 3448 0038 D1F818C0 		ldr	ip, [r1, #24]	@ float
 3449              		.loc 1 404 18 view .LVU1079
 3450 003c C0F81CC0 		str	ip, [r0, #28]	@ float
 405:vasynth.cpp   **** 	osc2_pw_ = vas->osc2_pw;
 3451              		.loc 1 405 2 is_stmt 1 view .LVU1080
 3452              		.loc 1 405 18 is_stmt 0 view .LVU1081
 3453 0040 D1F81CC0 		ldr	ip, [r1, #28]	@ float
 3454              		.loc 1 405 11 view .LVU1082
 3455 0044 C0F820C0 		str	ip, [r0, #32]	@ float
 406:vasynth.cpp   **** 	
 407:vasynth.cpp   **** 	eg_a_attack_ = vas->eg_a_attack;
 3456              		.loc 1 407 2 is_stmt 1 view .LVU1083
 3457              		.loc 1 407 22 is_stmt 0 view .LVU1084
 3458 0048 D1F820C0 		ldr	ip, [r1, #32]	@ float
 3459              		.loc 1 407 15 view .LVU1085
 3460 004c C0F824C0 		str	ip, [r0, #36]	@ float
 408:vasynth.cpp   **** 	eg_a_decay_ = vas->eg_a_decay;
 3461              		.loc 1 408 2 is_stmt 1 view .LVU1086
 3462              		.loc 1 408 21 is_stmt 0 view .LVU1087
ARM GAS  /var/folders/kw/h2sg8jtn02b91cpsjc1nlpg80000gn/T//cc9L9FMQ.s 			page 88


 3463 0050 D1F824C0 		ldr	ip, [r1, #36]	@ float
 3464              		.loc 1 408 14 view .LVU1088
 3465 0054 C0F828C0 		str	ip, [r0, #40]	@ float
 409:vasynth.cpp   **** 	eg_a_sustain_ = vas->eg_a_sustain; // level
 3466              		.loc 1 409 2 is_stmt 1 view .LVU1089
 3467              		.loc 1 409 23 is_stmt 0 view .LVU1090
 3468 0058 D1F828C0 		ldr	ip, [r1, #40]	@ float
 3469              		.loc 1 409 16 view .LVU1091
 3470 005c C0F82CC0 		str	ip, [r0, #44]	@ float
 410:vasynth.cpp   **** 	eg_a_release_ = vas->eg_a_release;
 3471              		.loc 1 410 2 is_stmt 1 view .LVU1092
 3472              		.loc 1 410 23 is_stmt 0 view .LVU1093
 3473 0060 D1F82CC0 		ldr	ip, [r1, #44]	@ float
 3474              		.loc 1 410 16 view .LVU1094
 3475 0064 C0F830C0 		str	ip, [r0, #48]	@ float
 411:vasynth.cpp   **** 	eg_f_attack_ = vas->eg_f_attack;
 3476              		.loc 1 411 2 is_stmt 1 view .LVU1095
 3477              		.loc 1 411 22 is_stmt 0 view .LVU1096
 3478 0068 D1F830C0 		ldr	ip, [r1, #48]	@ float
